---
triple:          'arm64-apple-darwin'
binary-path:     '/Users/leonbiner/Documents/git/new_game/enemies'
relocations:
  - { offsetInCU: 0x5C, offset: 0x5C, size: 0x8, addend: 0x0, symName: __ZNSt3__1L19piecewise_constructE, symObjAddr: 0x5D0D, symBinAddr: 0x100026660, symSize: 0x0 }
  - { offsetInCU: 0xA0C, offset: 0xA0C, size: 0x8, addend: 0x0, symName: __ZNSt3__16chronogtB7v160006IxNS_5ratioILl1ELl1000EEExS3_EEbRKNS0_8durationIT_T0_EERKNS4_IT1_T2_EE, symObjAddr: 0x53A8, symBinAddr: 0x100006700, symSize: 0x30 }
  - { offsetInCU: 0xA6D, offset: 0xA6D, size: 0x8, addend: 0x0, symName: __ZNSt3__16chronoltB7v160006IxNS_5ratioILl1ELl1000EEEeNS2_ILl1ELl1EEEEEbRKNS0_8durationIT_T0_EERKNS5_IT1_T2_EE, symObjAddr: 0x5414, symBinAddr: 0x10000676C, symSize: 0x34 }
  - { offsetInCU: 0xACE, offset: 0xACE, size: 0x8, addend: 0x0, symName: __ZNSt3__16chrono13duration_castB7v160006INS0_8durationIxNS_5ratioILl1ELl1000000000EEEEExNS3_ILl1ELl1000EEEEENS_9enable_ifIXsr13__is_durationIT_EE5valueES8_E4typeERKNS2_IT0_T1_EE, symObjAddr: 0x5448, symBinAddr: 0x1000067A0, symSize: 0x30 }
  - { offsetInCU: 0xB15, offset: 0xB15, size: 0x8, addend: 0x0, symName: __ZNSt3__16chronoltB7v160006IxNS_5ratioILl1ELl1000000000EEExNS2_ILl1ELl1000EEEEEbRKNS0_8durationIT_T0_EERKNS5_IT1_T2_EE, symObjAddr: 0x5478, symBinAddr: 0x1000067D0, symSize: 0x34 }
  - { offsetInCU: 0xB76, offset: 0xB76, size: 0x8, addend: 0x0, symName: __ZNSt3__16chronoltB7v160006IxNS_5ratioILl1ELl1000EEExS3_EEbRKNS0_8durationIT_T0_EERKNS4_IT1_T2_EE, symObjAddr: 0x5508, symBinAddr: 0x100006860, symSize: 0x34 }
  - { offsetInCU: 0xC54, offset: 0xC54, size: 0x8, addend: 0x0, symName: __ZNSt3__16chrono13duration_castB7v160006INS0_8durationIeNS_5ratioILl1ELl1000EEEEExS4_EENS_9enable_ifIXsr13__is_durationIT_EE5valueES7_E4typeERKNS2_IT0_T1_EE, symObjAddr: 0x575C, symBinAddr: 0x100006AB4, symSize: 0x30 }
  - { offsetInCU: 0xCE6, offset: 0xCE6, size: 0x8, addend: 0x0, symName: __ZNSt3__16chrono13duration_castB7v160006INS0_8durationIeNS_5ratioILl1ELl1000EEEEEeNS3_ILl1ELl1EEEEENS_9enable_ifIXsr13__is_durationIT_EE5valueES8_E4typeERKNS2_IT0_T1_EE, symObjAddr: 0x587C, symBinAddr: 0x100006BD4, symSize: 0x30 }
  - { offsetInCU: 0xDEEA, offset: 0xDEEA, size: 0x8, addend: 0x0, symName: __ZNSt3__17advanceB7v160006INS_21__tree_const_iteratorINS_12__value_typeINS_12basic_stringIcNS_11char_traitsIcEENS_9allocatorIcEEEENS_10shared_ptrI4MenuEEEEPNS_11__tree_nodeISC_PvEElEEllvEEvRT_T0_, symObjAddr: 0x3A6C, symBinAddr: 0x100004DC4, symSize: 0x50 }
  - { offsetInCU: 0x10505, offset: 0x10505, size: 0x8, addend: 0x0, symName: __ZNSt3__111this_thread9sleep_forB7v160006IxNS_5ratioILl1ELl1000EEEEEvRKNS_6chrono8durationIT_T0_EE, symObjAddr: 0x56C, symBinAddr: 0x1000018C4, symSize: 0xBC }
  - { offsetInCU: 0x1058A, offset: 0x1058A, size: 0x8, addend: 0x0, symName: __ZNSt3__122__make_exception_guardB7v160006INS_6vectorINS_10shared_ptrI9LevelGridEENS_9allocatorIS4_EEE16__destroy_vectorEEENS_28__exception_guard_exceptionsIT_EESA_, symObjAddr: 0x87C, symBinAddr: 0x100001BD4, symSize: 0x40 }
  - { offsetInCU: 0x105BF, offset: 0x105BF, size: 0x8, addend: 0x0, symName: __ZNSt3__119__debug_db_insert_cB7v160006INS_6vectorINS_10shared_ptrI9LevelGridEENS_9allocatorIS4_EEEEEEvPT_, symObjAddr: 0x8F0, symBinAddr: 0x100001C48, symSize: 0x10 }
  - { offsetInCU: 0x105F0, offset: 0x105F0, size: 0x8, addend: 0x0, symName: __ZNSt3__119__allocate_at_leastB7v160006INS_9allocatorINS_10shared_ptrI9LevelGridEEEEEENS_19__allocation_resultINS_16allocator_traitsIT_E7pointerEEERS8_m, symObjAddr: 0xC4C, symBinAddr: 0x100001FA4, symSize: 0x40 }
  - { offsetInCU: 0x10633, offset: 0x10633, size: 0x8, addend: 0x0, symName: __ZNSt3__13minB7v160006ImEERKT_S3_S3_, symObjAddr: 0xD88, symBinAddr: 0x1000020E0, symSize: 0x2C }
  - { offsetInCU: 0x10860, offset: 0x10860, size: 0x8, addend: 0x0, symName: __ZNSt3__13minB7v160006ImNS_6__lessImmEEEERKT_S5_S5_T0_, symObjAddr: 0xDF8, symBinAddr: 0x100002150, symSize: 0x54 }
  - { offsetInCU: 0x108F5, offset: 0x108F5, size: 0x8, addend: 0x0, symName: __ZNSt3__120__throw_length_errorB7v160006EPKc, symObjAddr: 0xE9C, symBinAddr: 0x1000021F4, symSize: 0x64 }
  - { offsetInCU: 0x1091D, offset: 0x1091D, size: 0x8, addend: 0x0, symName: __ZNSt3__117__libcpp_allocateB7v160006Emm, symObjAddr: 0x100C, symBinAddr: 0x100002364, symSize: 0x60 }
  - { offsetInCU: 0x10977, offset: 0x10977, size: 0x8, addend: 0x0, symName: __ZNSt3__124__is_overaligned_for_newB7v160006Em, symObjAddr: 0x106C, symBinAddr: 0x1000023C4, symSize: 0x20 }
  - { offsetInCU: 0x109A5, offset: 0x109A5, size: 0x8, addend: 0x0, symName: __ZNSt3__121__libcpp_operator_newB7v160006IJmSt11align_val_tEEEPvDpT_, symObjAddr: 0x108C, symBinAddr: 0x1000023E4, symSize: 0x2C }
  - { offsetInCU: 0x109F2, offset: 0x109F2, size: 0x8, addend: 0x0, symName: __ZNSt3__121__libcpp_operator_newB7v160006IJmEEEPvDpT_, symObjAddr: 0x10B8, symBinAddr: 0x100002410, symSize: 0x24 }
  - { offsetInCU: 0x10A2B, offset: 0x10A2B, size: 0x8, addend: 0x0, symName: __ZNSt3__112__to_addressB7v160006INS_10shared_ptrI9LevelGridEEEEPT_S5_, symObjAddr: 0x11D4, symBinAddr: 0x10000252C, symSize: 0x14 }
  - { offsetInCU: 0x10A60, offset: 0x10A60, size: 0x8, addend: 0x0, symName: __ZNSt3__130__uninitialized_allocator_copyB7v160006INS_9allocatorINS_10shared_ptrI9LevelGridEEEEPS4_S6_S6_EET2_RT_T0_T1_S7_, symObjAddr: 0x1284, symBinAddr: 0x1000025DC, symSize: 0xF4 }
  - { offsetInCU: 0x10AFE, offset: 0x10AFE, size: 0x8, addend: 0x0, symName: __ZNSt3__122__make_exception_guardB7v160006INS_29_AllocatorDestroyRangeReverseINS_9allocatorINS_10shared_ptrI9LevelGridEEEEPS5_EEEENS_28__exception_guard_exceptionsIT_EESA_, symObjAddr: 0x13E8, symBinAddr: 0x100002740, symSize: 0x4C }
  - { offsetInCU: 0x10B34, offset: 0x10B34, size: 0x8, addend: 0x0, symName: __ZNSt3__134__libcpp_atomic_refcount_incrementB7v160006IlEET_RS1_, symObjAddr: 0x16B0, symBinAddr: 0x100002A08, symSize: 0x30 }
  - { offsetInCU: 0x10B69, offset: 0x10B69, size: 0x8, addend: 0x0, symName: __ZNSt3__119__allocator_destroyB7v160006INS_9allocatorINS_10shared_ptrI9LevelGridEEEENS_16reverse_iteratorIPS4_EES8_EEvRT_T0_T1_, symObjAddr: 0x1798, symBinAddr: 0x100002AF0, symSize: 0x70 }
  - { offsetInCU: 0x10BCC, offset: 0x10BCC, size: 0x8, addend: 0x0, symName: __ZNSt3__1neB7v160006IPNS_10shared_ptrI9LevelGridEES4_EEbRKNS_16reverse_iteratorIT_EERKNS5_IT0_EE, symObjAddr: 0x183C, symBinAddr: 0x100002B94, symSize: 0x48 }
  - { offsetInCU: 0x10C18, offset: 0x10C18, size: 0x8, addend: 0x0, symName: __ZNSt3__112__to_addressB7v160006INS_16reverse_iteratorIPNS_10shared_ptrI9LevelGridEEEEvEENS_5decayIDTclsr19__to_address_helperIT_EE6__callclsr3stdE7declvalIRKS8_EEEEE4typeESA_, symObjAddr: 0x18B0, symBinAddr: 0x100002C08, symSize: 0x24 }
  - { offsetInCU: 0x10C4E, offset: 0x10C4E, size: 0x8, addend: 0x0, symName: __ZNSt3__134__libcpp_atomic_refcount_decrementB7v160006IlEET_RS1_, symObjAddr: 0x1A6C, symBinAddr: 0x100002DC4, symSize: 0x30 }
  - { offsetInCU: 0x10CAC, offset: 0x10CAC, size: 0x8, addend: 0x0, symName: __ZNSt3__118__debug_db_erase_cB7v160006INS_6vectorINS_10shared_ptrI9LevelGridEENS_9allocatorIS4_EEEEEEvPT_, symObjAddr: 0x1D0C, symBinAddr: 0x100003064, symSize: 0x10 }
  - { offsetInCU: 0x10CDD, offset: 0x10CDD, size: 0x8, addend: 0x0, symName: __ZNSt3__119__libcpp_deallocateB7v160006EPvmm, symObjAddr: 0x1E44, symBinAddr: 0x10000319C, symSize: 0x60 }
  - { offsetInCU: 0x10D42, offset: 0x10D42, size: 0x8, addend: 0x0, symName: __ZNSt3__127__do_deallocate_handle_sizeB7v160006IJSt11align_val_tEEEvPvmDpT_, symObjAddr: 0x1EA4, symBinAddr: 0x1000031FC, symSize: 0x30 }
  - { offsetInCU: 0x10D95, offset: 0x10D95, size: 0x8, addend: 0x0, symName: __ZNSt3__127__do_deallocate_handle_sizeB7v160006IJEEEvPvmDpT_, symObjAddr: 0x1ED4, symBinAddr: 0x10000322C, symSize: 0x28 }
  - { offsetInCU: 0x10DD3, offset: 0x10DD3, size: 0x8, addend: 0x0, symName: __ZNSt3__124__libcpp_operator_deleteB7v160006IJPvSt11align_val_tEEEvDpT_, symObjAddr: 0x1EFC, symBinAddr: 0x100003254, symSize: 0x2C }
  - { offsetInCU: 0x10E1C, offset: 0x10E1C, size: 0x8, addend: 0x0, symName: __ZNSt3__124__libcpp_operator_deleteB7v160006IJPvEEEvDpT_, symObjAddr: 0x1F28, symBinAddr: 0x100003280, symSize: 0x24 }
  - { offsetInCU: 0x10E84, offset: 0x10E84, size: 0x8, addend: 0x0, symName: __ZNSt3__1neB7v160006ERKNS_20__map_const_iteratorINS_21__tree_const_iteratorINS_12__value_typeINS_12basic_stringIcNS_11char_traitsIcEENS_9allocatorIcEEEENS_10shared_ptrI4MenuEEEEPNS_11__tree_nodeISC_PvEElEEEESK_, symObjAddr: 0x253C, symBinAddr: 0x100003894, symSize: 0x30 }
  - { offsetInCU: 0x10EC1, offset: 0x10EC1, size: 0x8, addend: 0x0, symName: __ZNSt3__1neB7v160006ERKNS_21__tree_const_iteratorINS_12__value_typeINS_12basic_stringIcNS_11char_traitsIcEENS_9allocatorIcEEEENS_10shared_ptrI4MenuEEEEPNS_11__tree_nodeISB_PvEElEESI_, symObjAddr: 0x2644, symBinAddr: 0x10000399C, symSize: 0x34 }
  - { offsetInCU: 0x10EFE, offset: 0x10EFE, size: 0x8, addend: 0x0, symName: __ZNSt3__1eqB7v160006ERKNS_21__tree_const_iteratorINS_12__value_typeINS_12basic_stringIcNS_11char_traitsIcEENS_9allocatorIcEEEENS_10shared_ptrI4MenuEEEEPNS_11__tree_nodeISB_PvEElEESI_, symObjAddr: 0x2678, symBinAddr: 0x1000039D0, symSize: 0x30 }
  - { offsetInCU: 0x10F5F, offset: 0x10F5F, size: 0x8, addend: 0x0, symName: __ZNSt3__14nextB7v160006INS_21__tree_const_iteratorINS_12__value_typeINS_12basic_stringIcNS_11char_traitsIcEENS_9allocatorIcEEEENS_10shared_ptrI4MenuEEEEPNS_11__tree_nodeISC_PvEElEEEENS_9enable_ifIXsr25__is_cpp17_input_iteratorIT_EE5valueESJ_E4typeESJ_NS_15iterator_traitsISJ_E15difference_typeE, symObjAddr: 0x3180, symBinAddr: 0x1000044D8, symSize: 0x50 }
  - { offsetInCU: 0x10FA2, offset: 0x10FA2, size: 0x8, addend: 0x0, symName: __ZNSt3__1ltB7v160006IcNS_11char_traitsIcEENS_9allocatorIcEEEEbRKNS_12basic_stringIT_T0_T1_EESB_, symObjAddr: 0x32EC, symBinAddr: 0x100004644, symSize: 0x38 }
  - { offsetInCU: 0x1101E, offset: 0x1101E, size: 0x8, addend: 0x0, symName: __ZNSt3__118__constexpr_memcmpB7v160006IcEEiPKT_S3_m, symObjAddr: 0x36D0, symBinAddr: 0x100004A28, symSize: 0x34 }
  - { offsetInCU: 0x1106F, offset: 0x1106F, size: 0x8, addend: 0x0, symName: __ZNSt3__112__to_addressB7v160006IKcEEPT_S3_, symObjAddr: 0x3704, symBinAddr: 0x100004A5C, symSize: 0x14 }
  - { offsetInCU: 0x110D7, offset: 0x110D7, size: 0x8, addend: 0x0, symName: __ZNSt3__17launderB7v160006IKNS_4pairIKNS_12basic_stringIcNS_11char_traitsIcEENS_9allocatorIcEEEENS_10shared_ptrI4MenuEEEEEEPT_SF_, symObjAddr: 0x385C, symBinAddr: 0x100004BB4, symSize: 0x24 }
  - { offsetInCU: 0x1110E, offset: 0x1110E, size: 0x8, addend: 0x0, symName: __ZNSt3__19__launderB7v160006IKNS_4pairIKNS_12basic_stringIcNS_11char_traitsIcEENS_9allocatorIcEEEENS_10shared_ptrI4MenuEEEEEEPT_SF_, symObjAddr: 0x3880, symBinAddr: 0x100004BD8, symSize: 0x14 }
  - { offsetInCU: 0x11145, offset: 0x11145, size: 0x8, addend: 0x0, symName: __ZNSt3__116__tree_prev_iterB7v160006IPNS_16__tree_node_baseIPvEEPNS_15__tree_end_nodeIS4_EEEET_T0_, symObjAddr: 0x3894, symBinAddr: 0x100004BEC, symSize: 0xA4 }
  - { offsetInCU: 0x11191, offset: 0x11191, size: 0x8, addend: 0x0, symName: __ZNSt3__110__tree_maxB7v160006IPNS_16__tree_node_baseIPvEEEET_S5_, symObjAddr: 0x3938, symBinAddr: 0x100004C90, symSize: 0x40 }
  - { offsetInCU: 0x111C6, offset: 0x111C6, size: 0x8, addend: 0x0, symName: __ZNSt3__120__tree_is_left_childB7v160006IPNS_16__tree_node_baseIPvEEEEbT_, symObjAddr: 0x3978, symBinAddr: 0x100004CD0, symSize: 0x2C }
  - { offsetInCU: 0x111FB, offset: 0x111FB, size: 0x8, addend: 0x0, symName: __ZNSt3__121__convert_to_integralB7v160006El, symObjAddr: 0x3ABC, symBinAddr: 0x100004E14, symSize: 0x14 }
  - { offsetInCU: 0x11227, offset: 0x11227, size: 0x8, addend: 0x0, symName: __ZNSt3__19__advanceB7v160006INS_21__tree_const_iteratorINS_12__value_typeINS_12basic_stringIcNS_11char_traitsIcEENS_9allocatorIcEEEENS_10shared_ptrI4MenuEEEEPNS_11__tree_nodeISC_PvEElEEEEvRT_NS_15iterator_traitsISI_E15difference_typeENS_26bidirectional_iterator_tagE, symObjAddr: 0x3AD0, symBinAddr: 0x100004E28, symSize: 0xA4 }
  - { offsetInCU: 0x11270, offset: 0x11270, size: 0x8, addend: 0x0, symName: __ZNSt3__116__tree_next_iterB7v160006IPNS_15__tree_end_nodeIPNS_16__tree_node_baseIPvEEEES5_EET_T0_, symObjAddr: 0x3BAC, symBinAddr: 0x100004F04, symSize: 0x80 }
  - { offsetInCU: 0x112AE, offset: 0x112AE, size: 0x8, addend: 0x0, symName: __ZNSt3__110__tree_minB7v160006IPNS_16__tree_node_baseIPvEEEET_S5_, symObjAddr: 0x3C2C, symBinAddr: 0x100004F84, symSize: 0x40 }
  - { offsetInCU: 0x11301, offset: 0x11301, size: 0x8, addend: 0x0, symName: __ZNSt3__17launderB7v160006INS_4pairIKNS_12basic_stringIcNS_11char_traitsIcEENS_9allocatorIcEEEENS_10shared_ptrI4MenuEEEEEEPT_SE_, symObjAddr: 0x4180, symBinAddr: 0x1000054D8, symSize: 0x24 }
  - { offsetInCU: 0x11338, offset: 0x11338, size: 0x8, addend: 0x0, symName: __ZNSt3__19__launderB7v160006INS_4pairIKNS_12basic_stringIcNS_11char_traitsIcEENS_9allocatorIcEEEENS_10shared_ptrI4MenuEEEEEEPT_SE_, symObjAddr: 0x41A4, symBinAddr: 0x1000054FC, symSize: 0x14 }
  - { offsetInCU: 0x1136F, offset: 0x1136F, size: 0x8, addend: 0x0, symName: __ZNSt3__127__tree_balance_after_insertB7v160006IPNS_16__tree_node_baseIPvEEEEvT_S5_, symObjAddr: 0x422C, symBinAddr: 0x100005584, symSize: 0x27C }
  - { offsetInCU: 0x113EB, offset: 0x113EB, size: 0x8, addend: 0x0, symName: __ZNSt3__118__tree_left_rotateB7v160006IPNS_16__tree_node_baseIPvEEEEvT_, symObjAddr: 0x44D0, symBinAddr: 0x100005828, symSize: 0xD8 }
  - { offsetInCU: 0x1142D, offset: 0x1142D, size: 0x8, addend: 0x0, symName: __ZNSt3__119__tree_right_rotateB7v160006IPNS_16__tree_node_baseIPvEEEEvT_, symObjAddr: 0x45A8, symBinAddr: 0x100005900, symSize: 0xCC }
  - { offsetInCU: 0x114A2, offset: 0x114A2, size: 0x8, addend: 0x0, symName: __ZNSt3__119__debug_db_insert_cB7v160006INS_12basic_stringIcNS_11char_traitsIcEENS_9allocatorIcEEEEEEvPT_, symObjAddr: 0x4D4C, symBinAddr: 0x1000060A4, symSize: 0x10 }
  - { offsetInCU: 0x114D3, offset: 0x114D3, size: 0x8, addend: 0x0, symName: __ZNSt3__118__constexpr_strlenB7v160006EPKc, symObjAddr: 0x4E18, symBinAddr: 0x100006170, symSize: 0x24 }
  - { offsetInCU: 0x11536, offset: 0x11536, size: 0x8, addend: 0x0, symName: __ZNSt3__116forward_as_tupleB7v160006IJRKNS_12basic_stringIcNS_11char_traitsIcEENS_9allocatorIcEEEEEEENS_5tupleIJDpOT_EEESC_, symObjAddr: 0x4F3C, symBinAddr: 0x100006294, symSize: 0x2C }
  - { offsetInCU: 0x1156F, offset: 0x1156F, size: 0x8, addend: 0x0, symName: __ZNSt3__116forward_as_tupleB7v160006IJEEENS_5tupleIJDpOT_EEES4_, symObjAddr: 0x4F68, symBinAddr: 0x1000062C0, symSize: 0x4 }
  - { offsetInCU: 0x1159E, offset: 0x1159E, size: 0x8, addend: 0x0, symName: __ZNSt3__13getB7v160006ILm0EJRKNS_12basic_stringIcNS_11char_traitsIcEENS_9allocatorIcEEEEEEERNS_13tuple_elementIXT_ENS_5tupleIJDpT0_EEEE4typeERSD_, symObjAddr: 0x5208, symBinAddr: 0x100006560, symSize: 0x24 }
  - { offsetInCU: 0x11E53, offset: 0x11E53, size: 0x8, addend: 0x0, symName: __ZSt28__throw_bad_array_new_lengthB7v160006v, symObjAddr: 0xFD8, symBinAddr: 0x100002330, symSize: 0x34 }
  - { offsetInCU: 0x13549, offset: 0x13549, size: 0x8, addend: 0x0, symName: __ZNKSt3__16chrono13__duration_ltINS0_8durationIxNS_5ratioILl1ELl1000EEEEENS2_IeNS3_ILl1ELl1EEEEEEclB7v160006ERKS5_RKS7_, symObjAddr: 0x560C, symBinAddr: 0x100006964, symSize: 0x78 }
  - { offsetInCU: 0x135C6, offset: 0x135C6, size: 0x8, addend: 0x0, symName: __ZNKSt3__16chrono15__duration_castINS0_8durationIeNS_5ratioILl1ELl1EEEEENS2_IeNS3_ILl1ELl1000EEEEENS3_ILl1000ELl1EEELb0ELb1EEclB7v160006ERKS5_, symObjAddr: 0x58AC, symBinAddr: 0x100006C04, symSize: 0x4C }
  - { offsetInCU: 0x13632, offset: 0x13632, size: 0x8, addend: 0x0, symName: __ZNKSt3__16chrono15__duration_castINS0_8durationIxNS_5ratioILl1ELl1000EEEEENS2_IxNS3_ILl1ELl1000000000EEEEENS3_ILl1000000ELl1EEELb0ELb1EEclB7v160006ERKS5_, symObjAddr: 0x5910, symBinAddr: 0x100006C68, symSize: 0x4C }
  - { offsetInCU: 0x1367B, offset: 0x1367B, size: 0x8, addend: 0x0, symName: __ZNKSt3__16chrono13__duration_ltINS0_8durationIxNS_5ratioILl1ELl1000000000EEEEENS2_IxNS3_ILl1ELl1000EEEEEEclB7v160006ERKS5_RKS7_, symObjAddr: 0x59C0, symBinAddr: 0x100006D18, symSize: 0x6C }
  - { offsetInCU: 0x15BE9, offset: 0x15BE9, size: 0x8, addend: 0x0, symName: __ZN11ApplicationC2E4GameNSt3__13mapINS1_12basic_stringIcNS1_11char_traitsIcEENS1_9allocatorIcEEEENS1_10shared_ptrI4MenuEENS1_4lessIS8_EENS6_INS1_4pairIKS8_SB_EEEEEEi, symObjAddr: 0x0, symBinAddr: 0x100001358, symSize: 0x90 }
  - { offsetInCU: 0x15C41, offset: 0x15C41, size: 0x8, addend: 0x0, symName: __ZNSt3__13mapINS_12basic_stringIcNS_11char_traitsIcEENS_9allocatorIcEEEENS_10shared_ptrI4MenuEENS_4lessIS6_EENS4_INS_4pairIKS6_S9_EEEEEC1B7v160006ERKSG_, symObjAddr: 0x90, symBinAddr: 0x1000013E8, symSize: 0x34 }
  - { offsetInCU: 0x15C84, offset: 0x15C84, size: 0x8, addend: 0x0, symName: __ZN4GameC1ERKS_, symObjAddr: 0xC4, symBinAddr: 0x10000141C, symSize: 0x34 }
  - { offsetInCU: 0x15CB9, offset: 0x15CB9, size: 0x8, addend: 0x0, symName: __ZNSt3__13mapINS_12basic_stringIcNS_11char_traitsIcEENS_9allocatorIcEEEENS_10shared_ptrI4MenuEENS_4lessIS6_EENS4_INS_4pairIKS6_S9_EEEEED1B7v160006Ev, symObjAddr: 0xF8, symBinAddr: 0x100001450, symSize: 0x2C }
  - { offsetInCU: 0x15CE3, offset: 0x15CE3, size: 0x8, addend: 0x0, symName: __ZN11ApplicationC1E4GameNSt3__13mapINS1_12basic_stringIcNS1_11char_traitsIcEENS1_9allocatorIcEEEENS1_10shared_ptrI4MenuEENS1_4lessIS8_EENS6_INS1_4pairIKS8_SB_EEEEEEi, symObjAddr: 0x124, symBinAddr: 0x10000147C, symSize: 0x44 }
  - { offsetInCU: 0x15D3B, offset: 0x15D3B, size: 0x8, addend: 0x0, symName: __ZN11Application6runAppEv, symObjAddr: 0x168, symBinAddr: 0x1000014C0, symSize: 0x1D8 }
  - { offsetInCU: 0x15D71, offset: 0x15D71, size: 0x8, addend: 0x0, symName: __ZN11Application12navigateMenuENSt3__112basic_stringIcNS0_11char_traitsIcEENS0_9allocatorIcEEEE, symObjAddr: 0x358, symBinAddr: 0x1000016B0, symSize: 0x9C }
  - { offsetInCU: 0x15DAD, offset: 0x15DAD, size: 0x8, addend: 0x0, symName: __ZNSt3__112basic_stringIcNS_11char_traitsIcEENS_9allocatorIcEEEC1B7v160006IDnEEPKc, symObjAddr: 0x3F4, symBinAddr: 0x10000174C, symSize: 0x34 }
  - { offsetInCU: 0x15DEB, offset: 0x15DEB, size: 0x8, addend: 0x0, symName: __ZN11Application8playGameEv, symObjAddr: 0x428, symBinAddr: 0x100001780, symSize: 0x9C }
  - { offsetInCU: 0x15E21, offset: 0x15E21, size: 0x8, addend: 0x0, symName: __ZN11Application4saveEv, symObjAddr: 0x4C4, symBinAddr: 0x10000181C, symSize: 0x10 }
  - { offsetInCU: 0x15E49, offset: 0x15E49, size: 0x8, addend: 0x0, symName: __ZNSt3__13mapINS_12basic_stringIcNS_11char_traitsIcEENS_9allocatorIcEEEENS_10shared_ptrI4MenuEENS_4lessIS6_EENS4_INS_4pairIKS6_S9_EEEEEixERSD_, symObjAddr: 0x4D4, symBinAddr: 0x10000182C, symSize: 0x80 }
  - { offsetInCU: 0x15E80, offset: 0x15E80, size: 0x8, addend: 0x0, symName: __ZNKSt3__110shared_ptrI4MenuEptB7v160006Ev, symObjAddr: 0x554, symBinAddr: 0x1000018AC, symSize: 0x18 }
  - { offsetInCU: 0x15EAB, offset: 0x15EAB, size: 0x8, addend: 0x0, symName: __ZNSt3__16chrono8durationIxNS_5ratioILl1ELl1000EEEEC1B7v160006IiEERKT_PNS_9enable_ifIXaasr14is_convertibleIS8_xEE5valueooL_ZNS_17integral_constantIbLb0EE5valueEEntsr23treat_as_floating_pointIS6_EE5valueEvE4typeE, symObjAddr: 0x628, symBinAddr: 0x100001980, symSize: 0x3C }
  - { offsetInCU: 0x15EF8, offset: 0x15EF8, size: 0x8, addend: 0x0, symName: __ZN4GameC2ERKS_, symObjAddr: 0x664, symBinAddr: 0x1000019BC, symSize: 0x5C }
  - { offsetInCU: 0x15F2D, offset: 0x15F2D, size: 0x8, addend: 0x0, symName: __ZNSt3__16vectorINS_10shared_ptrI9LevelGridEENS_9allocatorIS3_EEEC1ERKS6_, symObjAddr: 0x6C0, symBinAddr: 0x100001A18, symSize: 0x34 }
  - { offsetInCU: 0x15F68, offset: 0x15F68, size: 0x8, addend: 0x0, symName: __ZNSt3__16vectorINS_10shared_ptrI9LevelGridEENS_9allocatorIS3_EEEC2ERKS6_, symObjAddr: 0x6F4, symBinAddr: 0x100001A4C, symSize: 0x114 }
  - { offsetInCU: 0x15FD2, offset: 0x15FD2, size: 0x8, addend: 0x0, symName: __ZNSt3__116allocator_traitsINS_9allocatorINS_10shared_ptrI9LevelGridEEEEE37select_on_container_copy_constructionB7v160006IS5_vvEES5_RKS5_, symObjAddr: 0x808, symBinAddr: 0x100001B60, symSize: 0x10 }
  - { offsetInCU: 0x16001, offset: 0x16001, size: 0x8, addend: 0x0, symName: __ZNKSt3__16vectorINS_10shared_ptrI9LevelGridEENS_9allocatorIS3_EEE7__allocB7v160006Ev, symObjAddr: 0x818, symBinAddr: 0x100001B70, symSize: 0x28 }
  - { offsetInCU: 0x16031, offset: 0x16031, size: 0x8, addend: 0x0, symName: __ZNSt3__117__compressed_pairIPNS_10shared_ptrI9LevelGridEENS_9allocatorIS3_EEEC1B7v160006IDnS6_EEOT_OT0_, symObjAddr: 0x840, symBinAddr: 0x100001B98, symSize: 0x3C }
  - { offsetInCU: 0x16089, offset: 0x16089, size: 0x8, addend: 0x0, symName: __ZNSt3__16vectorINS_10shared_ptrI9LevelGridEENS_9allocatorIS3_EEE16__destroy_vectorC1ERS6_, symObjAddr: 0x8BC, symBinAddr: 0x100001C14, symSize: 0x34 }
  - { offsetInCU: 0x160C2, offset: 0x160C2, size: 0x8, addend: 0x0, symName: __ZNKSt3__16vectorINS_10shared_ptrI9LevelGridEENS_9allocatorIS3_EEE4sizeB7v160006Ev, symObjAddr: 0x900, symBinAddr: 0x100001C58, symSize: 0x28 }
  - { offsetInCU: 0x160E8, offset: 0x160E8, size: 0x8, addend: 0x0, symName: __ZNSt3__16vectorINS_10shared_ptrI9LevelGridEENS_9allocatorIS3_EEE11__vallocateB7v160006Em, symObjAddr: 0x928, symBinAddr: 0x100001C80, symSize: 0xAC }
  - { offsetInCU: 0x1612C, offset: 0x1612C, size: 0x8, addend: 0x0, symName: __ZNSt3__16vectorINS_10shared_ptrI9LevelGridEENS_9allocatorIS3_EEE18__construct_at_endIPS3_Li0EEEvT_S9_m, symObjAddr: 0x9D4, symBinAddr: 0x100001D2C, symSize: 0x8C }
  - { offsetInCU: 0x1619F, offset: 0x1619F, size: 0x8, addend: 0x0, symName: __ZNSt3__128__exception_guard_exceptionsINS_6vectorINS_10shared_ptrI9LevelGridEENS_9allocatorIS4_EEE16__destroy_vectorEE10__completeB7v160006Ev, symObjAddr: 0xA60, symBinAddr: 0x100001DB8, symSize: 0x1C }
  - { offsetInCU: 0x161C5, offset: 0x161C5, size: 0x8, addend: 0x0, symName: __ZNSt3__128__exception_guard_exceptionsINS_6vectorINS_10shared_ptrI9LevelGridEENS_9allocatorIS4_EEE16__destroy_vectorEED1B7v160006Ev, symObjAddr: 0xA7C, symBinAddr: 0x100001DD4, symSize: 0x2C }
  - { offsetInCU: 0x161EF, offset: 0x161EF, size: 0x8, addend: 0x0, symName: __ZNKSt3__117__compressed_pairIPNS_10shared_ptrI9LevelGridEENS_9allocatorIS3_EEE6secondB7v160006Ev, symObjAddr: 0xAA8, symBinAddr: 0x100001E00, symSize: 0x24 }
  - { offsetInCU: 0x16215, offset: 0x16215, size: 0x8, addend: 0x0, symName: __ZNKSt3__122__compressed_pair_elemINS_9allocatorINS_10shared_ptrI9LevelGridEEEELi1ELb1EE5__getB7v160006Ev, symObjAddr: 0xACC, symBinAddr: 0x100001E24, symSize: 0x14 }
  - { offsetInCU: 0x1623B, offset: 0x1623B, size: 0x8, addend: 0x0, symName: __ZNSt3__117__compressed_pairIPNS_10shared_ptrI9LevelGridEENS_9allocatorIS3_EEEC2B7v160006IDnS6_EEOT_OT0_, symObjAddr: 0xAE0, symBinAddr: 0x100001E38, symSize: 0x44 }
  - { offsetInCU: 0x16293, offset: 0x16293, size: 0x8, addend: 0x0, symName: __ZNSt3__122__compressed_pair_elemIPNS_10shared_ptrI9LevelGridEELi0ELb0EEC2B7v160006IDnvEEOT_, symObjAddr: 0xB24, symBinAddr: 0x100001E7C, symSize: 0x1C }
  - { offsetInCU: 0x162D5, offset: 0x162D5, size: 0x8, addend: 0x0, symName: __ZNSt3__122__compressed_pair_elemINS_9allocatorINS_10shared_ptrI9LevelGridEEEELi1ELb1EEC2B7v160006IS5_vEEOT_, symObjAddr: 0xB40, symBinAddr: 0x100001E98, symSize: 0x18 }
  - { offsetInCU: 0x16317, offset: 0x16317, size: 0x8, addend: 0x0, symName: __ZNSt3__128__exception_guard_exceptionsINS_6vectorINS_10shared_ptrI9LevelGridEENS_9allocatorIS4_EEE16__destroy_vectorEEC1B7v160006ES8_, symObjAddr: 0xB58, symBinAddr: 0x100001EB0, symSize: 0x34 }
  - { offsetInCU: 0x1634F, offset: 0x1634F, size: 0x8, addend: 0x0, symName: __ZNSt3__128__exception_guard_exceptionsINS_6vectorINS_10shared_ptrI9LevelGridEENS_9allocatorIS4_EEE16__destroy_vectorEEC2B7v160006ES8_, symObjAddr: 0xB8C, symBinAddr: 0x100001EE4, symSize: 0x24 }
  - { offsetInCU: 0x16387, offset: 0x16387, size: 0x8, addend: 0x0, symName: __ZNSt3__16vectorINS_10shared_ptrI9LevelGridEENS_9allocatorIS3_EEE16__destroy_vectorC2ERS6_, symObjAddr: 0xBB0, symBinAddr: 0x100001F08, symSize: 0x20 }
  - { offsetInCU: 0x163C0, offset: 0x163C0, size: 0x8, addend: 0x0, symName: __ZNKSt3__16vectorINS_10shared_ptrI9LevelGridEENS_9allocatorIS3_EEE8max_sizeEv, symObjAddr: 0xBD0, symBinAddr: 0x100001F28, symSize: 0x60 }
  - { offsetInCU: 0x163E8, offset: 0x163E8, size: 0x8, addend: 0x0, symName: __ZNKSt3__16vectorINS_10shared_ptrI9LevelGridEENS_9allocatorIS3_EEE20__throw_length_errorB7v160006Ev, symObjAddr: 0xC30, symBinAddr: 0x100001F88, symSize: 0x1C }
  - { offsetInCU: 0x1640E, offset: 0x1640E, size: 0x8, addend: 0x0, symName: __ZNSt3__16vectorINS_10shared_ptrI9LevelGridEENS_9allocatorIS3_EEE7__allocB7v160006Ev, symObjAddr: 0xC8C, symBinAddr: 0x100001FE4, symSize: 0x28 }
  - { offsetInCU: 0x16434, offset: 0x16434, size: 0x8, addend: 0x0, symName: __ZNSt3__16vectorINS_10shared_ptrI9LevelGridEENS_9allocatorIS3_EEE9__end_capB7v160006Ev, symObjAddr: 0xCB4, symBinAddr: 0x10000200C, symSize: 0x28 }
  - { offsetInCU: 0x1645A, offset: 0x1645A, size: 0x8, addend: 0x0, symName: __ZNKSt3__16vectorINS_10shared_ptrI9LevelGridEENS_9allocatorIS3_EEE14__annotate_newB7v160006Em, symObjAddr: 0xCDC, symBinAddr: 0x100002034, symSize: 0xAC }
  - { offsetInCU: 0x1648F, offset: 0x1648F, size: 0x8, addend: 0x0, symName: __ZNSt3__116allocator_traitsINS_9allocatorINS_10shared_ptrI9LevelGridEEEEE8max_sizeB7v160006IS5_vEEmRKS5_, symObjAddr: 0xDB4, symBinAddr: 0x10000210C, symSize: 0x24 }
  - { offsetInCU: 0x164BD, offset: 0x164BD, size: 0x8, addend: 0x0, symName: __ZNSt3__114numeric_limitsIlE3maxB7v160006Ev, symObjAddr: 0xDD8, symBinAddr: 0x100002130, symSize: 0x14 }
  - { offsetInCU: 0x164DB, offset: 0x164DB, size: 0x8, addend: 0x0, symName: __ZNKSt3__16__lessImmEclB7v160006ERKmS3_, symObjAddr: 0xE4C, symBinAddr: 0x1000021A4, symSize: 0x34 }
  - { offsetInCU: 0x1651D, offset: 0x1651D, size: 0x8, addend: 0x0, symName: __ZNKSt3__19allocatorINS_10shared_ptrI9LevelGridEEE8max_sizeB7v160006Ev, symObjAddr: 0xE80, symBinAddr: 0x1000021D8, symSize: 0x14 }
  - { offsetInCU: 0x16543, offset: 0x16543, size: 0x8, addend: 0x0, symName: __ZNSt3__123__libcpp_numeric_limitsIlLb1EE3maxB7v160006Ev, symObjAddr: 0xE94, symBinAddr: 0x1000021EC, symSize: 0x8 }
  - { offsetInCU: 0x16557, offset: 0x16557, size: 0x8, addend: 0x0, symName: __ZNSt12length_errorC1B7v160006EPKc, symObjAddr: 0xF00, symBinAddr: 0x100002258, symSize: 0x34 }
  - { offsetInCU: 0x1658F, offset: 0x1658F, size: 0x8, addend: 0x0, symName: __ZNSt12length_errorC2B7v160006EPKc, symObjAddr: 0xF34, symBinAddr: 0x10000228C, symSize: 0x4C }
  - { offsetInCU: 0x165C7, offset: 0x165C7, size: 0x8, addend: 0x0, symName: __ZNSt3__19allocatorINS_10shared_ptrI9LevelGridEEE8allocateB7v160006Em, symObjAddr: 0xF80, symBinAddr: 0x1000022D8, symSize: 0x58 }
  - { offsetInCU: 0x165FB, offset: 0x165FB, size: 0x8, addend: 0x0, symName: __ZNSt3__117__compressed_pairIPNS_10shared_ptrI9LevelGridEENS_9allocatorIS3_EEE6secondB7v160006Ev, symObjAddr: 0x10DC, symBinAddr: 0x100002434, symSize: 0x24 }
  - { offsetInCU: 0x16621, offset: 0x16621, size: 0x8, addend: 0x0, symName: __ZNSt3__122__compressed_pair_elemINS_9allocatorINS_10shared_ptrI9LevelGridEEEELi1ELb1EE5__getB7v160006Ev, symObjAddr: 0x1100, symBinAddr: 0x100002458, symSize: 0x14 }
  - { offsetInCU: 0x16647, offset: 0x16647, size: 0x8, addend: 0x0, symName: __ZNSt3__117__compressed_pairIPNS_10shared_ptrI9LevelGridEENS_9allocatorIS3_EEE5firstB7v160006Ev, symObjAddr: 0x1114, symBinAddr: 0x10000246C, symSize: 0x24 }
  - { offsetInCU: 0x1666D, offset: 0x1666D, size: 0x8, addend: 0x0, symName: __ZNSt3__122__compressed_pair_elemIPNS_10shared_ptrI9LevelGridEELi0ELb0EE5__getB7v160006Ev, symObjAddr: 0x1138, symBinAddr: 0x100002490, symSize: 0x14 }
  - { offsetInCU: 0x16693, offset: 0x16693, size: 0x8, addend: 0x0, symName: __ZNKSt3__16vectorINS_10shared_ptrI9LevelGridEENS_9allocatorIS3_EEE31__annotate_contiguous_containerB7v160006EPKvS8_S8_S8_, symObjAddr: 0x114C, symBinAddr: 0x1000024A4, symSize: 0x20 }
  - { offsetInCU: 0x166E9, offset: 0x166E9, size: 0x8, addend: 0x0, symName: __ZNKSt3__16vectorINS_10shared_ptrI9LevelGridEENS_9allocatorIS3_EEE4dataB7v160006Ev, symObjAddr: 0x116C, symBinAddr: 0x1000024C4, symSize: 0x28 }
  - { offsetInCU: 0x1670F, offset: 0x1670F, size: 0x8, addend: 0x0, symName: __ZNKSt3__16vectorINS_10shared_ptrI9LevelGridEENS_9allocatorIS3_EEE8capacityB7v160006Ev, symObjAddr: 0x1194, symBinAddr: 0x1000024EC, symSize: 0x40 }
  - { offsetInCU: 0x16735, offset: 0x16735, size: 0x8, addend: 0x0, symName: __ZNKSt3__16vectorINS_10shared_ptrI9LevelGridEENS_9allocatorIS3_EEE9__end_capB7v160006Ev, symObjAddr: 0x11E8, symBinAddr: 0x100002540, symSize: 0x28 }
  - { offsetInCU: 0x1675B, offset: 0x1675B, size: 0x8, addend: 0x0, symName: __ZNKSt3__117__compressed_pairIPNS_10shared_ptrI9LevelGridEENS_9allocatorIS3_EEE5firstB7v160006Ev, symObjAddr: 0x1210, symBinAddr: 0x100002568, symSize: 0x24 }
  - { offsetInCU: 0x16781, offset: 0x16781, size: 0x8, addend: 0x0, symName: __ZNKSt3__122__compressed_pair_elemIPNS_10shared_ptrI9LevelGridEELi0ELb0EE5__getB7v160006Ev, symObjAddr: 0x1234, symBinAddr: 0x10000258C, symSize: 0x14 }
  - { offsetInCU: 0x167C0, offset: 0x167C0, size: 0x8, addend: 0x0, symName: __ZNSt3__16vectorINS_10shared_ptrI9LevelGridEENS_9allocatorIS3_EEE21_ConstructTransactionC1B7v160006ERS6_m, symObjAddr: 0x1248, symBinAddr: 0x1000025A0, symSize: 0x3C }
  - { offsetInCU: 0x16808, offset: 0x16808, size: 0x8, addend: 0x0, symName: __ZNSt3__16vectorINS_10shared_ptrI9LevelGridEENS_9allocatorIS3_EEE21_ConstructTransactionD1B7v160006Ev, symObjAddr: 0x1378, symBinAddr: 0x1000026D0, symSize: 0x2C }
  - { offsetInCU: 0x16832, offset: 0x16832, size: 0x8, addend: 0x0, symName: __ZNSt3__16vectorINS_10shared_ptrI9LevelGridEENS_9allocatorIS3_EEE21_ConstructTransactionC2B7v160006ERS6_m, symObjAddr: 0x13A4, symBinAddr: 0x1000026FC, symSize: 0x44 }
  - { offsetInCU: 0x1687A, offset: 0x1687A, size: 0x8, addend: 0x0, symName: __ZNSt3__129_AllocatorDestroyRangeReverseINS_9allocatorINS_10shared_ptrI9LevelGridEEEEPS4_EC1B7v160006ERS5_RS6_S9_, symObjAddr: 0x1434, symBinAddr: 0x10000278C, symSize: 0x44 }
  - { offsetInCU: 0x168D1, offset: 0x168D1, size: 0x8, addend: 0x0, symName: __ZNSt3__116allocator_traitsINS_9allocatorINS_10shared_ptrI9LevelGridEEEEE9constructB7v160006IS4_JRS4_EvEEvRS5_PT_DpOT0_, symObjAddr: 0x1478, symBinAddr: 0x1000027D0, symSize: 0x34 }
  - { offsetInCU: 0x16928, offset: 0x16928, size: 0x8, addend: 0x0, symName: __ZNSt3__128__exception_guard_exceptionsINS_29_AllocatorDestroyRangeReverseINS_9allocatorINS_10shared_ptrI9LevelGridEEEEPS5_EEE10__completeB7v160006Ev, symObjAddr: 0x14AC, symBinAddr: 0x100002804, symSize: 0x1C }
  - { offsetInCU: 0x1694E, offset: 0x1694E, size: 0x8, addend: 0x0, symName: __ZNSt3__128__exception_guard_exceptionsINS_29_AllocatorDestroyRangeReverseINS_9allocatorINS_10shared_ptrI9LevelGridEEEEPS5_EEED1B7v160006Ev, symObjAddr: 0x14C8, symBinAddr: 0x100002820, symSize: 0x2C }
  - { offsetInCU: 0x16978, offset: 0x16978, size: 0x8, addend: 0x0, symName: __ZNSt3__128__exception_guard_exceptionsINS_29_AllocatorDestroyRangeReverseINS_9allocatorINS_10shared_ptrI9LevelGridEEEEPS5_EEEC1B7v160006ES8_, symObjAddr: 0x14F4, symBinAddr: 0x10000284C, symSize: 0x34 }
  - { offsetInCU: 0x169B1, offset: 0x169B1, size: 0x8, addend: 0x0, symName: __ZNSt3__128__exception_guard_exceptionsINS_29_AllocatorDestroyRangeReverseINS_9allocatorINS_10shared_ptrI9LevelGridEEEEPS5_EEEC2B7v160006ES8_, symObjAddr: 0x1528, symBinAddr: 0x100002880, symSize: 0x30 }
  - { offsetInCU: 0x169EA, offset: 0x169EA, size: 0x8, addend: 0x0, symName: __ZNSt3__129_AllocatorDestroyRangeReverseINS_9allocatorINS_10shared_ptrI9LevelGridEEEEPS4_EC2B7v160006ERS5_RS6_S9_, symObjAddr: 0x1558, symBinAddr: 0x1000028B0, symSize: 0x38 }
  - { offsetInCU: 0x16A41, offset: 0x16A41, size: 0x8, addend: 0x0, symName: __ZNSt3__19allocatorINS_10shared_ptrI9LevelGridEEE9constructB7v160006IS3_JRS3_EEEvPT_DpOT0_, symObjAddr: 0x1590, symBinAddr: 0x1000028E8, symSize: 0x30 }
  - { offsetInCU: 0x16A97, offset: 0x16A97, size: 0x8, addend: 0x0, symName: __ZNSt3__110shared_ptrI9LevelGridEC1B7v160006ERKS2_, symObjAddr: 0x15C0, symBinAddr: 0x100002918, symSize: 0x34 }
  - { offsetInCU: 0x16AD0, offset: 0x16AD0, size: 0x8, addend: 0x0, symName: __ZNSt3__110shared_ptrI9LevelGridEC2B7v160006ERKS2_, symObjAddr: 0x15F4, symBinAddr: 0x10000294C, symSize: 0x70 }
  - { offsetInCU: 0x16B09, offset: 0x16B09, size: 0x8, addend: 0x0, symName: __ZNSt3__119__shared_weak_count12__add_sharedB7v160006Ev, symObjAddr: 0x1664, symBinAddr: 0x1000029BC, symSize: 0x24 }
  - { offsetInCU: 0x16B2F, offset: 0x16B2F, size: 0x8, addend: 0x0, symName: __ZNSt3__114__shared_count12__add_sharedB7v160006Ev, symObjAddr: 0x1688, symBinAddr: 0x1000029E0, symSize: 0x28 }
  - { offsetInCU: 0x16B55, offset: 0x16B55, size: 0x8, addend: 0x0, symName: __ZNSt3__128__exception_guard_exceptionsINS_29_AllocatorDestroyRangeReverseINS_9allocatorINS_10shared_ptrI9LevelGridEEEEPS5_EEED2B7v160006Ev, symObjAddr: 0x16E0, symBinAddr: 0x100002A38, symSize: 0x50 }
  - { offsetInCU: 0x16B7F, offset: 0x16B7F, size: 0x8, addend: 0x0, symName: __ZNKSt3__129_AllocatorDestroyRangeReverseINS_9allocatorINS_10shared_ptrI9LevelGridEEEEPS4_EclB7v160006Ev, symObjAddr: 0x1730, symBinAddr: 0x100002A88, symSize: 0x68 }
  - { offsetInCU: 0x16BA5, offset: 0x16BA5, size: 0x8, addend: 0x0, symName: __ZNSt3__116reverse_iteratorIPNS_10shared_ptrI9LevelGridEEEC1B7v160006ES4_, symObjAddr: 0x1808, symBinAddr: 0x100002B60, symSize: 0x34 }
  - { offsetInCU: 0x16BDD, offset: 0x16BDD, size: 0x8, addend: 0x0, symName: __ZNSt3__116allocator_traitsINS_9allocatorINS_10shared_ptrI9LevelGridEEEEE7destroyB7v160006IS4_vEEvRS5_PT_, symObjAddr: 0x1884, symBinAddr: 0x100002BDC, symSize: 0x2C }
  - { offsetInCU: 0x16C1A, offset: 0x16C1A, size: 0x8, addend: 0x0, symName: __ZNSt3__116reverse_iteratorIPNS_10shared_ptrI9LevelGridEEEppB7v160006Ev, symObjAddr: 0x18D4, symBinAddr: 0x100002C2C, symSize: 0x20 }
  - { offsetInCU: 0x16C40, offset: 0x16C40, size: 0x8, addend: 0x0, symName: __ZNKSt3__116reverse_iteratorIPNS_10shared_ptrI9LevelGridEEE4baseB7v160006Ev, symObjAddr: 0x18F4, symBinAddr: 0x100002C4C, symSize: 0x18 }
  - { offsetInCU: 0x16C66, offset: 0x16C66, size: 0x8, addend: 0x0, symName: __ZNSt3__19allocatorINS_10shared_ptrI9LevelGridEEE7destroyB7v160006EPS3_, symObjAddr: 0x190C, symBinAddr: 0x100002C64, symSize: 0x28 }
  - { offsetInCU: 0x16C9A, offset: 0x16C9A, size: 0x8, addend: 0x0, symName: __ZNSt3__110shared_ptrI9LevelGridED1B7v160006Ev, symObjAddr: 0x1934, symBinAddr: 0x100002C8C, symSize: 0x2C }
  - { offsetInCU: 0x16CC4, offset: 0x16CC4, size: 0x8, addend: 0x0, symName: __ZNSt3__110shared_ptrI9LevelGridED2B7v160006Ev, symObjAddr: 0x1960, symBinAddr: 0x100002CB8, symSize: 0x54 }
  - { offsetInCU: 0x16CEE, offset: 0x16CEE, size: 0x8, addend: 0x0, symName: __ZNSt3__119__shared_weak_count16__release_sharedB7v160006Ev, symObjAddr: 0x19B4, symBinAddr: 0x100002D0C, symSize: 0x3C }
  - { offsetInCU: 0x16D14, offset: 0x16D14, size: 0x8, addend: 0x0, symName: __ZNSt3__114__shared_count16__release_sharedB7v160006Ev, symObjAddr: 0x19F0, symBinAddr: 0x100002D48, symSize: 0x7C }
  - { offsetInCU: 0x16D3F, offset: 0x16D3F, size: 0x8, addend: 0x0, symName: __ZNSt3__119__to_address_helperINS_16reverse_iteratorIPNS_10shared_ptrI9LevelGridEEEEvE6__callB7v160006ERKS6_, symObjAddr: 0x1A9C, symBinAddr: 0x100002DF4, symSize: 0x38 }
  - { offsetInCU: 0x16D62, offset: 0x16D62, size: 0x8, addend: 0x0, symName: __ZNKSt3__116reverse_iteratorIPNS_10shared_ptrI9LevelGridEEEptB7v160006Ev, symObjAddr: 0x1AD4, symBinAddr: 0x100002E2C, symSize: 0x24 }
  - { offsetInCU: 0x16D88, offset: 0x16D88, size: 0x8, addend: 0x0, symName: __ZNKSt3__116reverse_iteratorIPNS_10shared_ptrI9LevelGridEEEdeB7v160006Ev, symObjAddr: 0x1AF8, symBinAddr: 0x100002E50, symSize: 0x28 }
  - { offsetInCU: 0x16DBC, offset: 0x16DBC, size: 0x8, addend: 0x0, symName: __ZNSt3__116reverse_iteratorIPNS_10shared_ptrI9LevelGridEEEC2B7v160006ES4_, symObjAddr: 0x1B20, symBinAddr: 0x100002E78, symSize: 0x28 }
  - { offsetInCU: 0x16DF4, offset: 0x16DF4, size: 0x8, addend: 0x0, symName: __ZNSt3__16vectorINS_10shared_ptrI9LevelGridEENS_9allocatorIS3_EEE21_ConstructTransactionD2B7v160006Ev, symObjAddr: 0x1B48, symBinAddr: 0x100002EA0, symSize: 0x20 }
  - { offsetInCU: 0x16E1E, offset: 0x16E1E, size: 0x8, addend: 0x0, symName: __ZNSt3__128__exception_guard_exceptionsINS_6vectorINS_10shared_ptrI9LevelGridEENS_9allocatorIS4_EEE16__destroy_vectorEED2B7v160006Ev, symObjAddr: 0x1B68, symBinAddr: 0x100002EC0, symSize: 0x50 }
  - { offsetInCU: 0x16E48, offset: 0x16E48, size: 0x8, addend: 0x0, symName: __ZNSt3__16vectorINS_10shared_ptrI9LevelGridEENS_9allocatorIS3_EEE16__destroy_vectorclB7v160006Ev, symObjAddr: 0x1BB8, symBinAddr: 0x100002F10, symSize: 0x9C }
  - { offsetInCU: 0x16E6E, offset: 0x16E6E, size: 0x8, addend: 0x0, symName: __ZNKSt3__16vectorINS_10shared_ptrI9LevelGridEENS_9allocatorIS3_EEE17__annotate_deleteB7v160006Ev, symObjAddr: 0x1C54, symBinAddr: 0x100002FAC, symSize: 0xB8 }
  - { offsetInCU: 0x16E94, offset: 0x16E94, size: 0x8, addend: 0x0, symName: __ZNSt3__16vectorINS_10shared_ptrI9LevelGridEENS_9allocatorIS3_EEE7__clearB7v160006Ev, symObjAddr: 0x1D1C, symBinAddr: 0x100003074, symSize: 0x28 }
  - { offsetInCU: 0x16EBA, offset: 0x16EBA, size: 0x8, addend: 0x0, symName: __ZNSt3__116allocator_traitsINS_9allocatorINS_10shared_ptrI9LevelGridEEEEE10deallocateB7v160006ERS5_PS4_m, symObjAddr: 0x1D44, symBinAddr: 0x10000309C, symSize: 0x34 }
  - { offsetInCU: 0x16EFC, offset: 0x16EFC, size: 0x8, addend: 0x0, symName: __ZNSt3__16vectorINS_10shared_ptrI9LevelGridEENS_9allocatorIS3_EEE22__base_destruct_at_endB7v160006EPS3_, symObjAddr: 0x1D78, symBinAddr: 0x1000030D0, symSize: 0x8C }
  - { offsetInCU: 0x16F40, offset: 0x16F40, size: 0x8, addend: 0x0, symName: __ZNSt3__19allocatorINS_10shared_ptrI9LevelGridEEE10deallocateB7v160006EPS3_m, symObjAddr: 0x1E04, symBinAddr: 0x10000315C, symSize: 0x40 }
  - { offsetInCU: 0x16F82, offset: 0x16F82, size: 0x8, addend: 0x0, symName: __ZNSt3__16chrono8durationIxNS_5ratioILl1ELl1000EEEEC2B7v160006IiEERKT_PNS_9enable_ifIXaasr14is_convertibleIS8_xEE5valueooL_ZNS_17integral_constantIbLb0EE5valueEEntsr23treat_as_floating_pointIS6_EE5valueEvE4typeE, symObjAddr: 0x1F4C, symBinAddr: 0x1000032A4, symSize: 0x28 }
  - { offsetInCU: 0x16FCF, offset: 0x16FCF, size: 0x8, addend: 0x0, symName: __ZNSt3__13mapINS_12basic_stringIcNS_11char_traitsIcEENS_9allocatorIcEEEENS_10shared_ptrI4MenuEENS_4lessIS6_EENS4_INS_4pairIKS6_S9_EEEEEC2B7v160006ERKSG_, symObjAddr: 0x1F74, symBinAddr: 0x1000032CC, symSize: 0x88 }
  - { offsetInCU: 0x17008, offset: 0x17008, size: 0x8, addend: 0x0, symName: __ZNSt3__16__treeINS_12__value_typeINS_12basic_stringIcNS_11char_traitsIcEENS_9allocatorIcEEEENS_10shared_ptrI4MenuEEEENS_19__map_value_compareIS7_SB_NS_4lessIS7_EELb1EEENS5_ISB_EEEC1ERKSH_, symObjAddr: 0x1FFC, symBinAddr: 0x100003354, symSize: 0x34 }
  - { offsetInCU: 0x17043, offset: 0x17043, size: 0x8, addend: 0x0, symName: __ZNSt3__13mapINS_12basic_stringIcNS_11char_traitsIcEENS_9allocatorIcEEEENS_10shared_ptrI4MenuEENS_4lessIS6_EENS4_INS_4pairIKS6_S9_EEEEE6insertB7v160006INS_20__map_const_iteratorINS_21__tree_const_iteratorINS_12__value_typeIS6_S9_EEPNS_11__tree_nodeISL_PvEElEEEEEEvT_SS_, symObjAddr: 0x2030, symBinAddr: 0x100003388, symSize: 0x8C }
  - { offsetInCU: 0x170AD, offset: 0x170AD, size: 0x8, addend: 0x0, symName: __ZNKSt3__13mapINS_12basic_stringIcNS_11char_traitsIcEENS_9allocatorIcEEEENS_10shared_ptrI4MenuEENS_4lessIS6_EENS4_INS_4pairIKS6_S9_EEEEE5beginB7v160006Ev, symObjAddr: 0x20BC, symBinAddr: 0x100003414, symSize: 0x38 }
  - { offsetInCU: 0x170D3, offset: 0x170D3, size: 0x8, addend: 0x0, symName: __ZNKSt3__13mapINS_12basic_stringIcNS_11char_traitsIcEENS_9allocatorIcEEEENS_10shared_ptrI4MenuEENS_4lessIS6_EENS4_INS_4pairIKS6_S9_EEEEE3endB7v160006Ev, symObjAddr: 0x20F4, symBinAddr: 0x10000344C, symSize: 0x38 }
  - { offsetInCU: 0x170F9, offset: 0x170F9, size: 0x8, addend: 0x0, symName: __ZNSt3__16__treeINS_12__value_typeINS_12basic_stringIcNS_11char_traitsIcEENS_9allocatorIcEEEENS_10shared_ptrI4MenuEEEENS_19__map_value_compareIS7_SB_NS_4lessIS7_EELb1EEENS5_ISB_EEED1Ev, symObjAddr: 0x212C, symBinAddr: 0x100003484, symSize: 0x2C }
  - { offsetInCU: 0x17125, offset: 0x17125, size: 0x8, addend: 0x0, symName: __ZNSt3__16__treeINS_12__value_typeINS_12basic_stringIcNS_11char_traitsIcEENS_9allocatorIcEEEENS_10shared_ptrI4MenuEEEENS_19__map_value_compareIS7_SB_NS_4lessIS7_EELb1EEENS5_ISB_EEEC2ERKSH_, symObjAddr: 0x2158, symBinAddr: 0x1000034B0, symSize: 0x9C }
  - { offsetInCU: 0x1716A, offset: 0x1716A, size: 0x8, addend: 0x0, symName: __ZNSt3__116allocator_traitsINS_9allocatorINS_11__tree_nodeINS_12__value_typeINS_12basic_stringIcNS_11char_traitsIcEENS1_IcEEEENS_10shared_ptrI4MenuEEEEPvEEEEE37select_on_container_copy_constructionB7v160006ISF_vvEESF_RKSF_, symObjAddr: 0x21F4, symBinAddr: 0x10000354C, symSize: 0x10 }
  - { offsetInCU: 0x17199, offset: 0x17199, size: 0x8, addend: 0x0, symName: __ZNKSt3__16__treeINS_12__value_typeINS_12basic_stringIcNS_11char_traitsIcEENS_9allocatorIcEEEENS_10shared_ptrI4MenuEEEENS_19__map_value_compareIS7_SB_NS_4lessIS7_EELb1EEENS5_ISB_EEE12__node_allocB7v160006Ev, symObjAddr: 0x2204, symBinAddr: 0x10000355C, symSize: 0x28 }
  - { offsetInCU: 0x171C9, offset: 0x171C9, size: 0x8, addend: 0x0, symName: __ZNSt3__117__compressed_pairINS_15__tree_end_nodeIPNS_16__tree_node_baseIPvEEEENS_9allocatorINS_11__tree_nodeINS_12__value_typeINS_12basic_stringIcNS_11char_traitsIcEENS7_IcEEEENS_10shared_ptrI4MenuEEEES3_EEEEEC1B7v160006INS_18__default_init_tagESK_EEOT_OT0_, symObjAddr: 0x222C, symBinAddr: 0x100003584, symSize: 0x3C }
  - { offsetInCU: 0x17221, offset: 0x17221, size: 0x8, addend: 0x0, symName: __ZNKSt3__16__treeINS_12__value_typeINS_12basic_stringIcNS_11char_traitsIcEENS_9allocatorIcEEEENS_10shared_ptrI4MenuEEEENS_19__map_value_compareIS7_SB_NS_4lessIS7_EELb1EEENS5_ISB_EEE10value_compB7v160006Ev, symObjAddr: 0x2268, symBinAddr: 0x1000035C0, symSize: 0x28 }
  - { offsetInCU: 0x1724C, offset: 0x1724C, size: 0x8, addend: 0x0, symName: __ZNSt3__117__compressed_pairImNS_19__map_value_compareINS_12basic_stringIcNS_11char_traitsIcEENS_9allocatorIcEEEENS_12__value_typeIS7_NS_10shared_ptrI4MenuEEEENS_4lessIS7_EELb1EEEEC1B7v160006IiRKSF_EEOT_OT0_, symObjAddr: 0x2290, symBinAddr: 0x1000035E8, symSize: 0x3C }
  - { offsetInCU: 0x172A4, offset: 0x172A4, size: 0x8, addend: 0x0, symName: __ZNSt3__16__treeINS_12__value_typeINS_12basic_stringIcNS_11char_traitsIcEENS_9allocatorIcEEEENS_10shared_ptrI4MenuEEEENS_19__map_value_compareIS7_SB_NS_4lessIS7_EELb1EEENS5_ISB_EEE10__end_nodeB7v160006Ev, symObjAddr: 0x22CC, symBinAddr: 0x100003624, symSize: 0x2C }
  - { offsetInCU: 0x172CA, offset: 0x172CA, size: 0x8, addend: 0x0, symName: __ZNSt3__16__treeINS_12__value_typeINS_12basic_stringIcNS_11char_traitsIcEENS_9allocatorIcEEEENS_10shared_ptrI4MenuEEEENS_19__map_value_compareIS7_SB_NS_4lessIS7_EELb1EEENS5_ISB_EEE12__begin_nodeB7v160006Ev, symObjAddr: 0x22F8, symBinAddr: 0x100003650, symSize: 0x14 }
  - { offsetInCU: 0x172F0, offset: 0x172F0, size: 0x8, addend: 0x0, symName: __ZNKSt3__117__compressed_pairINS_15__tree_end_nodeIPNS_16__tree_node_baseIPvEEEENS_9allocatorINS_11__tree_nodeINS_12__value_typeINS_12basic_stringIcNS_11char_traitsIcEENS7_IcEEEENS_10shared_ptrI4MenuEEEES3_EEEEE6secondB7v160006Ev, symObjAddr: 0x230C, symBinAddr: 0x100003664, symSize: 0x24 }
  - { offsetInCU: 0x17316, offset: 0x17316, size: 0x8, addend: 0x0, symName: __ZNKSt3__122__compressed_pair_elemINS_9allocatorINS_11__tree_nodeINS_12__value_typeINS_12basic_stringIcNS_11char_traitsIcEENS1_IcEEEENS_10shared_ptrI4MenuEEEEPvEEEELi1ELb1EE5__getB7v160006Ev, symObjAddr: 0x2330, symBinAddr: 0x100003688, symSize: 0x14 }
  - { offsetInCU: 0x1733C, offset: 0x1733C, size: 0x8, addend: 0x0, symName: __ZNSt3__117__compressed_pairINS_15__tree_end_nodeIPNS_16__tree_node_baseIPvEEEENS_9allocatorINS_11__tree_nodeINS_12__value_typeINS_12basic_stringIcNS_11char_traitsIcEENS7_IcEEEENS_10shared_ptrI4MenuEEEES3_EEEEEC2B7v160006INS_18__default_init_tagESK_EEOT_OT0_, symObjAddr: 0x2344, symBinAddr: 0x10000369C, symSize: 0x40 }
  - { offsetInCU: 0x17394, offset: 0x17394, size: 0x8, addend: 0x0, symName: __ZNSt3__122__compressed_pair_elemINS_15__tree_end_nodeIPNS_16__tree_node_baseIPvEEEELi0ELb0EEC2B7v160006ENS_18__default_init_tagE, symObjAddr: 0x2384, symBinAddr: 0x1000036DC, symSize: 0x2C }
  - { offsetInCU: 0x173C8, offset: 0x173C8, size: 0x8, addend: 0x0, symName: __ZNSt3__122__compressed_pair_elemINS_9allocatorINS_11__tree_nodeINS_12__value_typeINS_12basic_stringIcNS_11char_traitsIcEENS1_IcEEEENS_10shared_ptrI4MenuEEEEPvEEEELi1ELb1EEC2B7v160006ISF_vEEOT_, symObjAddr: 0x23B0, symBinAddr: 0x100003708, symSize: 0x18 }
  - { offsetInCU: 0x1740A, offset: 0x1740A, size: 0x8, addend: 0x0, symName: __ZNSt3__115__tree_end_nodeIPNS_16__tree_node_baseIPvEEEC1B7v160006Ev, symObjAddr: 0x23C8, symBinAddr: 0x100003720, symSize: 0x2C }
  - { offsetInCU: 0x17434, offset: 0x17434, size: 0x8, addend: 0x0, symName: __ZNSt3__115__tree_end_nodeIPNS_16__tree_node_baseIPvEEEC2B7v160006Ev, symObjAddr: 0x23F4, symBinAddr: 0x10000374C, symSize: 0x18 }
  - { offsetInCU: 0x1745E, offset: 0x1745E, size: 0x8, addend: 0x0, symName: __ZNKSt3__117__compressed_pairImNS_19__map_value_compareINS_12basic_stringIcNS_11char_traitsIcEENS_9allocatorIcEEEENS_12__value_typeIS7_NS_10shared_ptrI4MenuEEEENS_4lessIS7_EELb1EEEE6secondB7v160006Ev, symObjAddr: 0x240C, symBinAddr: 0x100003764, symSize: 0x24 }
  - { offsetInCU: 0x17484, offset: 0x17484, size: 0x8, addend: 0x0, symName: __ZNKSt3__122__compressed_pair_elemINS_19__map_value_compareINS_12basic_stringIcNS_11char_traitsIcEENS_9allocatorIcEEEENS_12__value_typeIS7_NS_10shared_ptrI4MenuEEEENS_4lessIS7_EELb1EEELi1ELb1EE5__getB7v160006Ev, symObjAddr: 0x2430, symBinAddr: 0x100003788, symSize: 0x14 }
  - { offsetInCU: 0x174AA, offset: 0x174AA, size: 0x8, addend: 0x0, symName: __ZNSt3__117__compressed_pairImNS_19__map_value_compareINS_12basic_stringIcNS_11char_traitsIcEENS_9allocatorIcEEEENS_12__value_typeIS7_NS_10shared_ptrI4MenuEEEENS_4lessIS7_EELb1EEEEC2B7v160006IiRKSF_EEOT_OT0_, symObjAddr: 0x2444, symBinAddr: 0x10000379C, symSize: 0x44 }
  - { offsetInCU: 0x17502, offset: 0x17502, size: 0x8, addend: 0x0, symName: __ZNSt3__122__compressed_pair_elemImLi0ELb0EEC2B7v160006IivEEOT_, symObjAddr: 0x2488, symBinAddr: 0x1000037E0, symSize: 0x24 }
  - { offsetInCU: 0x17544, offset: 0x17544, size: 0x8, addend: 0x0, symName: __ZNSt3__122__compressed_pair_elemINS_19__map_value_compareINS_12basic_stringIcNS_11char_traitsIcEENS_9allocatorIcEEEENS_12__value_typeIS7_NS_10shared_ptrI4MenuEEEENS_4lessIS7_EELb1EEELi1ELb1EEC2B7v160006IRKSF_vEEOT_, symObjAddr: 0x24AC, symBinAddr: 0x100003804, symSize: 0x18 }
  - { offsetInCU: 0x17586, offset: 0x17586, size: 0x8, addend: 0x0, symName: __ZNSt3__114pointer_traitsIPNS_15__tree_end_nodeIPNS_16__tree_node_baseIPvEEEEE10pointer_toB7v160006ERS6_, symObjAddr: 0x24C4, symBinAddr: 0x10000381C, symSize: 0x14 }
  - { offsetInCU: 0x175A9, offset: 0x175A9, size: 0x8, addend: 0x0, symName: __ZNSt3__117__compressed_pairINS_15__tree_end_nodeIPNS_16__tree_node_baseIPvEEEENS_9allocatorINS_11__tree_nodeINS_12__value_typeINS_12basic_stringIcNS_11char_traitsIcEENS7_IcEEEENS_10shared_ptrI4MenuEEEES3_EEEEE5firstB7v160006Ev, symObjAddr: 0x24D8, symBinAddr: 0x100003830, symSize: 0x24 }
  - { offsetInCU: 0x175CF, offset: 0x175CF, size: 0x8, addend: 0x0, symName: __ZNSt3__122__compressed_pair_elemINS_15__tree_end_nodeIPNS_16__tree_node_baseIPvEEEELi0ELb0EE5__getB7v160006Ev, symObjAddr: 0x24FC, symBinAddr: 0x100003854, symSize: 0x14 }
  - { offsetInCU: 0x175F5, offset: 0x175F5, size: 0x8, addend: 0x0, symName: __ZNKSt3__13mapINS_12basic_stringIcNS_11char_traitsIcEENS_9allocatorIcEEEENS_10shared_ptrI4MenuEENS_4lessIS6_EENS4_INS_4pairIKS6_S9_EEEEE4cendB7v160006Ev, symObjAddr: 0x2510, symBinAddr: 0x100003868, symSize: 0x2C }
  - { offsetInCU: 0x1761B, offset: 0x1761B, size: 0x8, addend: 0x0, symName: __ZNSt3__13mapINS_12basic_stringIcNS_11char_traitsIcEENS_9allocatorIcEEEENS_10shared_ptrI4MenuEENS_4lessIS6_EENS4_INS_4pairIKS6_S9_EEEEE6insertB7v160006ENS_20__map_const_iteratorINS_21__tree_const_iteratorINS_12__value_typeIS6_S9_EEPNS_11__tree_nodeISK_PvEElEEEERKSE_, symObjAddr: 0x256C, symBinAddr: 0x1000038C4, symSize: 0x50 }
  - { offsetInCU: 0x1765F, offset: 0x1765F, size: 0x8, addend: 0x0, symName: __ZNSt3__120__map_const_iteratorINS_21__tree_const_iteratorINS_12__value_typeINS_12basic_stringIcNS_11char_traitsIcEENS_9allocatorIcEEEENS_10shared_ptrI4MenuEEEEPNS_11__tree_nodeISC_PvEElEEEC1B7v160006ESH_, symObjAddr: 0x25BC, symBinAddr: 0x100003914, symSize: 0x34 }
  - { offsetInCU: 0x17698, offset: 0x17698, size: 0x8, addend: 0x0, symName: __ZNKSt3__120__map_const_iteratorINS_21__tree_const_iteratorINS_12__value_typeINS_12basic_stringIcNS_11char_traitsIcEENS_9allocatorIcEEEENS_10shared_ptrI4MenuEEEEPNS_11__tree_nodeISC_PvEElEEEdeB7v160006Ev, symObjAddr: 0x25F0, symBinAddr: 0x100003948, symSize: 0x28 }
  - { offsetInCU: 0x176BE, offset: 0x176BE, size: 0x8, addend: 0x0, symName: __ZNSt3__120__map_const_iteratorINS_21__tree_const_iteratorINS_12__value_typeINS_12basic_stringIcNS_11char_traitsIcEENS_9allocatorIcEEEENS_10shared_ptrI4MenuEEEEPNS_11__tree_nodeISC_PvEElEEEppB7v160006Ev, symObjAddr: 0x2618, symBinAddr: 0x100003970, symSize: 0x2C }
  - { offsetInCU: 0x176E4, offset: 0x176E4, size: 0x8, addend: 0x0, symName: __ZNSt3__16__treeINS_12__value_typeINS_12basic_stringIcNS_11char_traitsIcEENS_9allocatorIcEEEENS_10shared_ptrI4MenuEEEENS_19__map_value_compareIS7_SB_NS_4lessIS7_EELb1EEENS5_ISB_EEE15__insert_uniqueB7v160006ENS_21__tree_const_iteratorISB_PNS_11__tree_nodeISB_PvEElEERKNS_4pairIKS7_SA_EE, symObjAddr: 0x26A8, symBinAddr: 0x100003A00, symSize: 0x64 }
  - { offsetInCU: 0x17728, offset: 0x17728, size: 0x8, addend: 0x0, symName: __ZNSt3__114__map_iteratorINS_15__tree_iteratorINS_12__value_typeINS_12basic_stringIcNS_11char_traitsIcEENS_9allocatorIcEEEENS_10shared_ptrI4MenuEEEEPNS_11__tree_nodeISC_PvEElEEEC1B7v160006ESH_, symObjAddr: 0x270C, symBinAddr: 0x100003A64, symSize: 0x34 }
  - { offsetInCU: 0x17761, offset: 0x17761, size: 0x8, addend: 0x0, symName: __ZNSt3__16__treeINS_12__value_typeINS_12basic_stringIcNS_11char_traitsIcEENS_9allocatorIcEEEENS_10shared_ptrI4MenuEEEENS_19__map_value_compareIS7_SB_NS_4lessIS7_EELb1EEENS5_ISB_EEE30__emplace_hint_unique_key_argsIS7_JRKNS_4pairIKS7_SA_EEEEENSJ_INS_15__tree_iteratorISB_PNS_11__tree_nodeISB_PvEElEEbEENS_21__tree_const_iteratorISB_SS_lEERKT_DpOT0_, symObjAddr: 0x2740, symBinAddr: 0x100003A98, symSize: 0x104 }
  - { offsetInCU: 0x1782E, offset: 0x1782E, size: 0x8, addend: 0x0, symName: __ZNSt3__122__tree_key_value_typesINS_12__value_typeINS_12basic_stringIcNS_11char_traitsIcEENS_9allocatorIcEEEENS_10shared_ptrI4MenuEEEEE9__get_keyB7v160006IKNS_4pairIKS7_SA_EEEENS_9enable_ifIXsr17__is_same_uncvrefIT_SG_EE5valueERSF_E4typeERSJ_, symObjAddr: 0x2844, symBinAddr: 0x100003B9C, symSize: 0x14 }
  - { offsetInCU: 0x1785B, offset: 0x1785B, size: 0x8, addend: 0x0, symName: __ZNSt3__16__treeINS_12__value_typeINS_12basic_stringIcNS_11char_traitsIcEENS_9allocatorIcEEEENS_10shared_ptrI4MenuEEEENS_19__map_value_compareIS7_SB_NS_4lessIS7_EELb1EEENS5_ISB_EEE12__find_equalIS7_EERPNS_16__tree_node_baseIPvEENS_21__tree_const_iteratorISB_PNS_11__tree_nodeISB_SK_EElEERPNS_15__tree_end_nodeISM_EESN_RKT_, symObjAddr: 0x2858, symBinAddr: 0x100003BB0, symSize: 0x304 }
  - { offsetInCU: 0x17904, offset: 0x17904, size: 0x8, addend: 0x0, symName: __ZNSt3__16__treeINS_12__value_typeINS_12basic_stringIcNS_11char_traitsIcEENS_9allocatorIcEEEENS_10shared_ptrI4MenuEEEENS_19__map_value_compareIS7_SB_NS_4lessIS7_EELb1EEENS5_ISB_EEE16__construct_nodeIJRKNS_4pairIKS7_SA_EEEEENS_10unique_ptrINS_11__tree_nodeISB_PvEENS_22__tree_node_destructorINS5_ISR_EEEEEEDpOT_, symObjAddr: 0x2B5C, symBinAddr: 0x100003EB4, symSize: 0x110 }
  - { offsetInCU: 0x17965, offset: 0x17965, size: 0x8, addend: 0x0, symName: __ZNSt3__16__treeINS_12__value_typeINS_12basic_stringIcNS_11char_traitsIcEENS_9allocatorIcEEEENS_10shared_ptrI4MenuEEEENS_19__map_value_compareIS7_SB_NS_4lessIS7_EELb1EEENS5_ISB_EEE16__insert_node_atEPNS_15__tree_end_nodeIPNS_16__tree_node_baseIPvEEEERSM_SM_, symObjAddr: 0x2C6C, symBinAddr: 0x100003FC4, symSize: 0xCC }
  - { offsetInCU: 0x179BA, offset: 0x179BA, size: 0x8, addend: 0x0, symName: __ZNKSt3__110unique_ptrINS_11__tree_nodeINS_12__value_typeINS_12basic_stringIcNS_11char_traitsIcEENS_9allocatorIcEEEENS_10shared_ptrI4MenuEEEEPvEENS_22__tree_node_destructorINS6_ISE_EEEEE3getB7v160006Ev, symObjAddr: 0x2D38, symBinAddr: 0x100004090, symSize: 0x28 }
  - { offsetInCU: 0x179E0, offset: 0x179E0, size: 0x8, addend: 0x0, symName: __ZNSt3__110unique_ptrINS_11__tree_nodeINS_12__value_typeINS_12basic_stringIcNS_11char_traitsIcEENS_9allocatorIcEEEENS_10shared_ptrI4MenuEEEEPvEENS_22__tree_node_destructorINS6_ISE_EEEEE7releaseB7v160006Ev, symObjAddr: 0x2D60, symBinAddr: 0x1000040B8, symSize: 0x44 }
  - { offsetInCU: 0x17A15, offset: 0x17A15, size: 0x8, addend: 0x0, symName: __ZNSt3__110unique_ptrINS_11__tree_nodeINS_12__value_typeINS_12basic_stringIcNS_11char_traitsIcEENS_9allocatorIcEEEENS_10shared_ptrI4MenuEEEEPvEENS_22__tree_node_destructorINS6_ISE_EEEEED1B7v160006Ev, symObjAddr: 0x2DA4, symBinAddr: 0x1000040FC, symSize: 0x2C }
  - { offsetInCU: 0x17A3F, offset: 0x17A3F, size: 0x8, addend: 0x0, symName: __ZNSt3__115__tree_iteratorINS_12__value_typeINS_12basic_stringIcNS_11char_traitsIcEENS_9allocatorIcEEEENS_10shared_ptrI4MenuEEEEPNS_11__tree_nodeISB_PvEElEC1B7v160006ESF_, symObjAddr: 0x2DD0, symBinAddr: 0x100004128, symSize: 0x34 }
  - { offsetInCU: 0x17A7D, offset: 0x17A7D, size: 0x8, addend: 0x0, symName: __ZNSt3__14pairINS_15__tree_iteratorINS_12__value_typeINS_12basic_stringIcNS_11char_traitsIcEENS_9allocatorIcEEEENS_10shared_ptrI4MenuEEEEPNS_11__tree_nodeISC_PvEElEEbEC1B7v160006ISH_RbLSE_0EEEOT_OT0_, symObjAddr: 0x2E04, symBinAddr: 0x10000415C, symSize: 0x3C }
  - { offsetInCU: 0x17ADB, offset: 0x17ADB, size: 0x8, addend: 0x0, symName: __ZNSt3__16__treeINS_12__value_typeINS_12basic_stringIcNS_11char_traitsIcEENS_9allocatorIcEEEENS_10shared_ptrI4MenuEEEENS_19__map_value_compareIS7_SB_NS_4lessIS7_EELb1EEENS5_ISB_EEE3endB7v160006Ev, symObjAddr: 0x2E40, symBinAddr: 0x100004198, symSize: 0x34 }
  - { offsetInCU: 0x17B01, offset: 0x17B01, size: 0x8, addend: 0x0, symName: __ZNSt3__121__tree_const_iteratorINS_12__value_typeINS_12basic_stringIcNS_11char_traitsIcEENS_9allocatorIcEEEENS_10shared_ptrI4MenuEEEEPNS_11__tree_nodeISB_PvEElEC1B7v160006ENS_15__tree_iteratorISB_SF_lEE, symObjAddr: 0x2E74, symBinAddr: 0x1000041CC, symSize: 0x34 }
  - { offsetInCU: 0x17B3A, offset: 0x17B3A, size: 0x8, addend: 0x0, symName: __ZNSt3__16__treeINS_12__value_typeINS_12basic_stringIcNS_11char_traitsIcEENS_9allocatorIcEEEENS_10shared_ptrI4MenuEEEENS_19__map_value_compareIS7_SB_NS_4lessIS7_EELb1EEENS5_ISB_EEE10value_compB7v160006Ev, symObjAddr: 0x2EA8, symBinAddr: 0x100004200, symSize: 0x28 }
  - { offsetInCU: 0x17B60, offset: 0x17B60, size: 0x8, addend: 0x0, symName: __ZNKSt3__119__map_value_compareINS_12basic_stringIcNS_11char_traitsIcEENS_9allocatorIcEEEENS_12__value_typeIS6_NS_10shared_ptrI4MenuEEEENS_4lessIS6_EELb1EEclB7v160006ERKS6_RKSB_, symObjAddr: 0x2ED0, symBinAddr: 0x100004228, symSize: 0x50 }
  - { offsetInCU: 0x17BA4, offset: 0x17BA4, size: 0x8, addend: 0x0, symName: __ZNKSt3__121__tree_const_iteratorINS_12__value_typeINS_12basic_stringIcNS_11char_traitsIcEENS_9allocatorIcEEEENS_10shared_ptrI4MenuEEEEPNS_11__tree_nodeISB_PvEElEdeB7v160006Ev, symObjAddr: 0x2F20, symBinAddr: 0x100004278, symSize: 0x28 }
  - { offsetInCU: 0x17BCA, offset: 0x17BCA, size: 0x8, addend: 0x0, symName: __ZNSt3__16__treeINS_12__value_typeINS_12basic_stringIcNS_11char_traitsIcEENS_9allocatorIcEEEENS_10shared_ptrI4MenuEEEENS_19__map_value_compareIS7_SB_NS_4lessIS7_EELb1EEENS5_ISB_EEE5beginB7v160006Ev, symObjAddr: 0x2F48, symBinAddr: 0x1000042A0, symSize: 0x34 }
  - { offsetInCU: 0x17BF0, offset: 0x17BF0, size: 0x8, addend: 0x0, symName: __ZNKSt3__119__map_value_compareINS_12basic_stringIcNS_11char_traitsIcEENS_9allocatorIcEEEENS_12__value_typeIS6_NS_10shared_ptrI4MenuEEEENS_4lessIS6_EELb1EEclB7v160006ERKSB_RKS6_, symObjAddr: 0x2F7C, symBinAddr: 0x1000042D4, symSize: 0x48 }
  - { offsetInCU: 0x17C34, offset: 0x17C34, size: 0x8, addend: 0x0, symName: __ZNSt3__121__tree_const_iteratorINS_12__value_typeINS_12basic_stringIcNS_11char_traitsIcEENS_9allocatorIcEEEENS_10shared_ptrI4MenuEEEEPNS_11__tree_nodeISB_PvEElEmmB7v160006Ev, symObjAddr: 0x2FC4, symBinAddr: 0x10000431C, symSize: 0x38 }
  - { offsetInCU: 0x17C5A, offset: 0x17C5A, size: 0x8, addend: 0x0, symName: __ZNSt3__16__treeINS_12__value_typeINS_12basic_stringIcNS_11char_traitsIcEENS_9allocatorIcEEEENS_10shared_ptrI4MenuEEEENS_19__map_value_compareIS7_SB_NS_4lessIS7_EELb1EEENS5_ISB_EEE12__find_equalIS7_EERPNS_16__tree_node_baseIPvEERPNS_15__tree_end_nodeISM_EERKT_, symObjAddr: 0x2FFC, symBinAddr: 0x100004354, symSize: 0x184 }
  - { offsetInCU: 0x17CC7, offset: 0x17CC7, size: 0x8, addend: 0x0, symName: __ZNKSt3__121__tree_const_iteratorINS_12__value_typeINS_12basic_stringIcNS_11char_traitsIcEENS_9allocatorIcEEEENS_10shared_ptrI4MenuEEEEPNS_11__tree_nodeISB_PvEElE8__get_npB7v160006Ev, symObjAddr: 0x31D0, symBinAddr: 0x100004528, symSize: 0x18 }
  - { offsetInCU: 0x17CED, offset: 0x17CED, size: 0x8, addend: 0x0, symName: __ZNSt3__115__tree_iteratorINS_12__value_typeINS_12basic_stringIcNS_11char_traitsIcEENS_9allocatorIcEEEENS_10shared_ptrI4MenuEEEEPNS_11__tree_nodeISB_PvEElEC1B7v160006EPNS_15__tree_end_nodeIPNS_16__tree_node_baseISD_EEEE, symObjAddr: 0x31E8, symBinAddr: 0x100004540, symSize: 0x34 }
  - { offsetInCU: 0x17D26, offset: 0x17D26, size: 0x8, addend: 0x0, symName: __ZNSt3__115__tree_iteratorINS_12__value_typeINS_12basic_stringIcNS_11char_traitsIcEENS_9allocatorIcEEEENS_10shared_ptrI4MenuEEEEPNS_11__tree_nodeISB_PvEElEC2B7v160006EPNS_15__tree_end_nodeIPNS_16__tree_node_baseISD_EEEE, symObjAddr: 0x321C, symBinAddr: 0x100004574, symSize: 0x20 }
  - { offsetInCU: 0x17D5F, offset: 0x17D5F, size: 0x8, addend: 0x0, symName: __ZNSt3__121__tree_const_iteratorINS_12__value_typeINS_12basic_stringIcNS_11char_traitsIcEENS_9allocatorIcEEEENS_10shared_ptrI4MenuEEEEPNS_11__tree_nodeISB_PvEElEC2B7v160006ENS_15__tree_iteratorISB_SF_lEE, symObjAddr: 0x323C, symBinAddr: 0x100004594, symSize: 0x20 }
  - { offsetInCU: 0x17D98, offset: 0x17D98, size: 0x8, addend: 0x0, symName: __ZNSt3__117__compressed_pairImNS_19__map_value_compareINS_12basic_stringIcNS_11char_traitsIcEENS_9allocatorIcEEEENS_12__value_typeIS7_NS_10shared_ptrI4MenuEEEENS_4lessIS7_EELb1EEEE6secondB7v160006Ev, symObjAddr: 0x325C, symBinAddr: 0x1000045B4, symSize: 0x24 }
  - { offsetInCU: 0x17DBE, offset: 0x17DBE, size: 0x8, addend: 0x0, symName: __ZNSt3__122__compressed_pair_elemINS_19__map_value_compareINS_12basic_stringIcNS_11char_traitsIcEENS_9allocatorIcEEEENS_12__value_typeIS7_NS_10shared_ptrI4MenuEEEENS_4lessIS7_EELb1EEELi1ELb1EE5__getB7v160006Ev, symObjAddr: 0x3280, symBinAddr: 0x1000045D8, symSize: 0x14 }
  - { offsetInCU: 0x17DE4, offset: 0x17DE4, size: 0x8, addend: 0x0, symName: __ZNKSt3__14lessINS_12basic_stringIcNS_11char_traitsIcEENS_9allocatorIcEEEEEclB7v160006ERKS6_S9_, symObjAddr: 0x3294, symBinAddr: 0x1000045EC, symSize: 0x34 }
  - { offsetInCU: 0x17E28, offset: 0x17E28, size: 0x8, addend: 0x0, symName: __ZNKSt3__112__value_typeINS_12basic_stringIcNS_11char_traitsIcEENS_9allocatorIcEEEENS_10shared_ptrI4MenuEEE11__get_valueB7v160006Ev, symObjAddr: 0x32C8, symBinAddr: 0x100004620, symSize: 0x24 }
  - { offsetInCU: 0x17E4E, offset: 0x17E4E, size: 0x8, addend: 0x0, symName: __ZNKSt3__112basic_stringIcNS_11char_traitsIcEENS_9allocatorIcEEE7compareB7v160006ERKS5_, symObjAddr: 0x3324, symBinAddr: 0x10000467C, symSize: 0x4C }
  - { offsetInCU: 0x17E85, offset: 0x17E85, size: 0x8, addend: 0x0, symName: __ZNKSt3__112basic_stringIcNS_11char_traitsIcEENS_9allocatorIcEEE7compareINS_17basic_string_viewIcS2_EEEENS_9enable_ifIXsr33__can_be_converted_to_string_viewIcS2_T_EE5valueEiE4typeERKSA_, symObjAddr: 0x3370, symBinAddr: 0x1000046C8, symSize: 0x12C }
  - { offsetInCU: 0x17F02, offset: 0x17F02, size: 0x8, addend: 0x0, symName: __ZNKSt3__112basic_stringIcNS_11char_traitsIcEENS_9allocatorIcEEEcvNS_17basic_string_viewIcS2_EEB7v160006Ev, symObjAddr: 0x349C, symBinAddr: 0x1000047F4, symSize: 0x50 }
  - { offsetInCU: 0x17F28, offset: 0x17F28, size: 0x8, addend: 0x0, symName: __ZNKSt3__112basic_stringIcNS_11char_traitsIcEENS_9allocatorIcEEE4sizeB7v160006Ev, symObjAddr: 0x34EC, symBinAddr: 0x100004844, symSize: 0x54 }
  - { offsetInCU: 0x17F4E, offset: 0x17F4E, size: 0x8, addend: 0x0, symName: __ZNKSt3__117basic_string_viewIcNS_11char_traitsIcEEE4sizeB7v160006Ev, symObjAddr: 0x3540, symBinAddr: 0x100004898, symSize: 0x18 }
  - { offsetInCU: 0x17F74, offset: 0x17F74, size: 0x8, addend: 0x0, symName: __ZNSt3__111char_traitsIcE7compareEPKcS3_m, symObjAddr: 0x3558, symBinAddr: 0x1000048B0, symSize: 0x6C }
  - { offsetInCU: 0x17FB3, offset: 0x17FB3, size: 0x8, addend: 0x0, symName: __ZNKSt3__112basic_stringIcNS_11char_traitsIcEENS_9allocatorIcEEE4dataB7v160006Ev, symObjAddr: 0x35C4, symBinAddr: 0x10000491C, symSize: 0x28 }
  - { offsetInCU: 0x17FD9, offset: 0x17FD9, size: 0x8, addend: 0x0, symName: __ZNKSt3__117basic_string_viewIcNS_11char_traitsIcEEE4dataB7v160006Ev, symObjAddr: 0x35EC, symBinAddr: 0x100004944, symSize: 0x18 }
  - { offsetInCU: 0x17FFF, offset: 0x17FFF, size: 0x8, addend: 0x0, symName: __ZNKSt3__112basic_stringIcNS_11char_traitsIcEENS_9allocatorIcEEE9__is_longB7v160006Ev, symObjAddr: 0x3604, symBinAddr: 0x10000495C, symSize: 0x38 }
  - { offsetInCU: 0x18025, offset: 0x18025, size: 0x8, addend: 0x0, symName: __ZNKSt3__112basic_stringIcNS_11char_traitsIcEENS_9allocatorIcEEE15__get_long_sizeB7v160006Ev, symObjAddr: 0x363C, symBinAddr: 0x100004994, symSize: 0x28 }
  - { offsetInCU: 0x1804B, offset: 0x1804B, size: 0x8, addend: 0x0, symName: __ZNKSt3__112basic_stringIcNS_11char_traitsIcEENS_9allocatorIcEEE16__get_short_sizeB7v160006Ev, symObjAddr: 0x3664, symBinAddr: 0x1000049BC, symSize: 0x34 }
  - { offsetInCU: 0x18071, offset: 0x18071, size: 0x8, addend: 0x0, symName: __ZNKSt3__117__compressed_pairINS_12basic_stringIcNS_11char_traitsIcEENS_9allocatorIcEEE5__repES5_E5firstB7v160006Ev, symObjAddr: 0x3698, symBinAddr: 0x1000049F0, symSize: 0x24 }
  - { offsetInCU: 0x18097, offset: 0x18097, size: 0x8, addend: 0x0, symName: __ZNKSt3__122__compressed_pair_elemINS_12basic_stringIcNS_11char_traitsIcEENS_9allocatorIcEEE5__repELi0ELb0EE5__getB7v160006Ev, symObjAddr: 0x36BC, symBinAddr: 0x100004A14, symSize: 0x14 }
  - { offsetInCU: 0x180BD, offset: 0x180BD, size: 0x8, addend: 0x0, symName: __ZNKSt3__112basic_stringIcNS_11char_traitsIcEENS_9allocatorIcEEE13__get_pointerB7v160006Ev, symObjAddr: 0x3718, symBinAddr: 0x100004A70, symSize: 0x54 }
  - { offsetInCU: 0x180E3, offset: 0x180E3, size: 0x8, addend: 0x0, symName: __ZNKSt3__112basic_stringIcNS_11char_traitsIcEENS_9allocatorIcEEE18__get_long_pointerB7v160006Ev, symObjAddr: 0x376C, symBinAddr: 0x100004AC4, symSize: 0x28 }
  - { offsetInCU: 0x18109, offset: 0x18109, size: 0x8, addend: 0x0, symName: __ZNKSt3__112basic_stringIcNS_11char_traitsIcEENS_9allocatorIcEEE19__get_short_pointerB7v160006Ev, symObjAddr: 0x3794, symBinAddr: 0x100004AEC, symSize: 0x28 }
  - { offsetInCU: 0x1812F, offset: 0x1812F, size: 0x8, addend: 0x0, symName: __ZNSt3__114pointer_traitsIPKcE10pointer_toB7v160006ERS1_, symObjAddr: 0x37BC, symBinAddr: 0x100004B14, symSize: 0x14 }
  - { offsetInCU: 0x18152, offset: 0x18152, size: 0x8, addend: 0x0, symName: __ZNSt3__117basic_string_viewIcNS_11char_traitsIcEEEC1B7v160006EPKcm, symObjAddr: 0x37D0, symBinAddr: 0x100004B28, symSize: 0x3C }
  - { offsetInCU: 0x1819A, offset: 0x1819A, size: 0x8, addend: 0x0, symName: __ZNSt3__117basic_string_viewIcNS_11char_traitsIcEEEC2B7v160006EPKcm, symObjAddr: 0x380C, symBinAddr: 0x100004B64, symSize: 0x50 }
  - { offsetInCU: 0x181E2, offset: 0x181E2, size: 0x8, addend: 0x0, symName: __ZNKSt3__116__tree_node_baseIPvE15__parent_unsafeB7v160006Ev, symObjAddr: 0x39A4, symBinAddr: 0x100004CFC, symSize: 0x18 }
  - { offsetInCU: 0x18208, offset: 0x18208, size: 0x8, addend: 0x0, symName: __ZNKSt3__16__treeINS_12__value_typeINS_12basic_stringIcNS_11char_traitsIcEENS_9allocatorIcEEEENS_10shared_ptrI4MenuEEEENS_19__map_value_compareIS7_SB_NS_4lessIS7_EELb1EEENS5_ISB_EEE6__rootB7v160006Ev, symObjAddr: 0x39BC, symBinAddr: 0x100004D14, symSize: 0x28 }
  - { offsetInCU: 0x1822E, offset: 0x1822E, size: 0x8, addend: 0x0, symName: __ZNKSt3__16__treeINS_12__value_typeINS_12basic_stringIcNS_11char_traitsIcEENS_9allocatorIcEEEENS_10shared_ptrI4MenuEEEENS_19__map_value_compareIS7_SB_NS_4lessIS7_EELb1EEENS5_ISB_EEE10__root_ptrEv, symObjAddr: 0x39E4, symBinAddr: 0x100004D3C, symSize: 0x24 }
  - { offsetInCU: 0x18254, offset: 0x18254, size: 0x8, addend: 0x0, symName: __ZNKSt3__16__treeINS_12__value_typeINS_12basic_stringIcNS_11char_traitsIcEENS_9allocatorIcEEEENS_10shared_ptrI4MenuEEEENS_19__map_value_compareIS7_SB_NS_4lessIS7_EELb1EEENS5_ISB_EEE10__end_nodeB7v160006Ev, symObjAddr: 0x3A08, symBinAddr: 0x100004D60, symSize: 0x2C }
  - { offsetInCU: 0x1827A, offset: 0x1827A, size: 0x8, addend: 0x0, symName: __ZNKSt3__117__compressed_pairINS_15__tree_end_nodeIPNS_16__tree_node_baseIPvEEEENS_9allocatorINS_11__tree_nodeINS_12__value_typeINS_12basic_stringIcNS_11char_traitsIcEENS7_IcEEEENS_10shared_ptrI4MenuEEEES3_EEEEE5firstB7v160006Ev, symObjAddr: 0x3A34, symBinAddr: 0x100004D8C, symSize: 0x24 }
  - { offsetInCU: 0x182A0, offset: 0x182A0, size: 0x8, addend: 0x0, symName: __ZNKSt3__122__compressed_pair_elemINS_15__tree_end_nodeIPNS_16__tree_node_baseIPvEEEELi0ELb0EE5__getB7v160006Ev, symObjAddr: 0x3A58, symBinAddr: 0x100004DB0, symSize: 0x14 }
  - { offsetInCU: 0x182C6, offset: 0x182C6, size: 0x8, addend: 0x0, symName: __ZNSt3__121__tree_const_iteratorINS_12__value_typeINS_12basic_stringIcNS_11char_traitsIcEENS_9allocatorIcEEEENS_10shared_ptrI4MenuEEEEPNS_11__tree_nodeISB_PvEElEppB7v160006Ev, symObjAddr: 0x3B74, symBinAddr: 0x100004ECC, symSize: 0x38 }
  - { offsetInCU: 0x182EC, offset: 0x182EC, size: 0x8, addend: 0x0, symName: __ZNSt3__16__treeINS_12__value_typeINS_12basic_stringIcNS_11char_traitsIcEENS_9allocatorIcEEEENS_10shared_ptrI4MenuEEEENS_19__map_value_compareIS7_SB_NS_4lessIS7_EELb1EEENS5_ISB_EEE12__node_allocB7v160006Ev, symObjAddr: 0x3C6C, symBinAddr: 0x100004FC4, symSize: 0x28 }
  - { offsetInCU: 0x18312, offset: 0x18312, size: 0x8, addend: 0x0, symName: __ZNSt3__116allocator_traitsINS_9allocatorINS_11__tree_nodeINS_12__value_typeINS_12basic_stringIcNS_11char_traitsIcEENS1_IcEEEENS_10shared_ptrI4MenuEEEEPvEEEEE8allocateB7v160006ERSF_m, symObjAddr: 0x3C94, symBinAddr: 0x100004FEC, symSize: 0x2C }
  - { offsetInCU: 0x18345, offset: 0x18345, size: 0x8, addend: 0x0, symName: __ZNSt3__122__tree_node_destructorINS_9allocatorINS_11__tree_nodeINS_12__value_typeINS_12basic_stringIcNS_11char_traitsIcEENS1_IcEEEENS_10shared_ptrI4MenuEEEEPvEEEEEC1B7v160006ERSF_b, symObjAddr: 0x3CC0, symBinAddr: 0x100005018, symSize: 0x48 }
  - { offsetInCU: 0x18392, offset: 0x18392, size: 0x8, addend: 0x0, symName: __ZNSt3__110unique_ptrINS_11__tree_nodeINS_12__value_typeINS_12basic_stringIcNS_11char_traitsIcEENS_9allocatorIcEEEENS_10shared_ptrI4MenuEEEEPvEENS_22__tree_node_destructorINS6_ISE_EEEEEC1B7v160006ILb1EvEEPSE_NS_16__dependent_typeINS_27__unique_ptr_deleter_sfinaeISH_EEXT_EE20__good_rval_ref_typeE, symObjAddr: 0x3D08, symBinAddr: 0x100005060, symSize: 0x3C }
  - { offsetInCU: 0x183E3, offset: 0x183E3, size: 0x8, addend: 0x0, symName: __ZNSt3__116allocator_traitsINS_9allocatorINS_11__tree_nodeINS_12__value_typeINS_12basic_stringIcNS_11char_traitsIcEENS1_IcEEEENS_10shared_ptrI4MenuEEEEPvEEEEE9constructB7v160006INS_4pairIKS8_SB_EEJRKSK_EvEEvRSF_PT_DpOT0_, symObjAddr: 0x3D44, symBinAddr: 0x10000509C, symSize: 0x34 }
  - { offsetInCU: 0x1843A, offset: 0x1843A, size: 0x8, addend: 0x0, symName: __ZNSt3__122__tree_key_value_typesINS_12__value_typeINS_12basic_stringIcNS_11char_traitsIcEENS_9allocatorIcEEEENS_10shared_ptrI4MenuEEEEE9__get_ptrB7v160006ERSB_, symObjAddr: 0x3D78, symBinAddr: 0x1000050D0, symSize: 0x24 }
  - { offsetInCU: 0x1845E, offset: 0x1845E, size: 0x8, addend: 0x0, symName: __ZNKSt3__110unique_ptrINS_11__tree_nodeINS_12__value_typeINS_12basic_stringIcNS_11char_traitsIcEENS_9allocatorIcEEEENS_10shared_ptrI4MenuEEEEPvEENS_22__tree_node_destructorINS6_ISE_EEEEEptB7v160006Ev, symObjAddr: 0x3D9C, symBinAddr: 0x1000050F4, symSize: 0x28 }
  - { offsetInCU: 0x18484, offset: 0x18484, size: 0x8, addend: 0x0, symName: __ZNSt3__110unique_ptrINS_11__tree_nodeINS_12__value_typeINS_12basic_stringIcNS_11char_traitsIcEENS_9allocatorIcEEEENS_10shared_ptrI4MenuEEEEPvEENS_22__tree_node_destructorINS6_ISE_EEEEE11get_deleterB7v160006Ev, symObjAddr: 0x3DC4, symBinAddr: 0x10000511C, symSize: 0x24 }
  - { offsetInCU: 0x184AA, offset: 0x184AA, size: 0x8, addend: 0x0, symName: __ZNSt3__117__compressed_pairINS_15__tree_end_nodeIPNS_16__tree_node_baseIPvEEEENS_9allocatorINS_11__tree_nodeINS_12__value_typeINS_12basic_stringIcNS_11char_traitsIcEENS7_IcEEEENS_10shared_ptrI4MenuEEEES3_EEEEE6secondB7v160006Ev, symObjAddr: 0x3DE8, symBinAddr: 0x100005140, symSize: 0x24 }
  - { offsetInCU: 0x184D0, offset: 0x184D0, size: 0x8, addend: 0x0, symName: __ZNSt3__122__compressed_pair_elemINS_9allocatorINS_11__tree_nodeINS_12__value_typeINS_12basic_stringIcNS_11char_traitsIcEENS1_IcEEEENS_10shared_ptrI4MenuEEEEPvEEEELi1ELb1EE5__getB7v160006Ev, symObjAddr: 0x3E0C, symBinAddr: 0x100005164, symSize: 0x14 }
  - { offsetInCU: 0x184F6, offset: 0x184F6, size: 0x8, addend: 0x0, symName: __ZNSt3__19allocatorINS_11__tree_nodeINS_12__value_typeINS_12basic_stringIcNS_11char_traitsIcEENS0_IcEEEENS_10shared_ptrI4MenuEEEEPvEEE8allocateB7v160006Em, symObjAddr: 0x3E20, symBinAddr: 0x100005178, symSize: 0x5C }
  - { offsetInCU: 0x1852A, offset: 0x1852A, size: 0x8, addend: 0x0, symName: __ZNSt3__116allocator_traitsINS_9allocatorINS_11__tree_nodeINS_12__value_typeINS_12basic_stringIcNS_11char_traitsIcEENS1_IcEEEENS_10shared_ptrI4MenuEEEEPvEEEEE8max_sizeB7v160006ISF_vEEmRKSF_, symObjAddr: 0x3E7C, symBinAddr: 0x1000051D4, symSize: 0x24 }
  - { offsetInCU: 0x18558, offset: 0x18558, size: 0x8, addend: 0x0, symName: __ZNKSt3__19allocatorINS_11__tree_nodeINS_12__value_typeINS_12basic_stringIcNS_11char_traitsIcEENS0_IcEEEENS_10shared_ptrI4MenuEEEEPvEEE8max_sizeB7v160006Ev, symObjAddr: 0x3EA0, symBinAddr: 0x1000051F8, symSize: 0x20 }
  - { offsetInCU: 0x1857E, offset: 0x1857E, size: 0x8, addend: 0x0, symName: __ZNSt3__122__tree_node_destructorINS_9allocatorINS_11__tree_nodeINS_12__value_typeINS_12basic_stringIcNS_11char_traitsIcEENS1_IcEEEENS_10shared_ptrI4MenuEEEEPvEEEEEC2B7v160006ERSF_b, symObjAddr: 0x3EC0, symBinAddr: 0x100005218, symSize: 0x38 }
  - { offsetInCU: 0x185C6, offset: 0x185C6, size: 0x8, addend: 0x0, symName: __ZNSt3__110unique_ptrINS_11__tree_nodeINS_12__value_typeINS_12basic_stringIcNS_11char_traitsIcEENS_9allocatorIcEEEENS_10shared_ptrI4MenuEEEEPvEENS_22__tree_node_destructorINS6_ISE_EEEEEC2B7v160006ILb1EvEEPSE_NS_16__dependent_typeINS_27__unique_ptr_deleter_sfinaeISH_EEXT_EE20__good_rval_ref_typeE, symObjAddr: 0x3EF8, symBinAddr: 0x100005250, symSize: 0x48 }
  - { offsetInCU: 0x18617, offset: 0x18617, size: 0x8, addend: 0x0, symName: __ZNSt3__117__compressed_pairIPNS_11__tree_nodeINS_12__value_typeINS_12basic_stringIcNS_11char_traitsIcEENS_9allocatorIcEEEENS_10shared_ptrI4MenuEEEEPvEENS_22__tree_node_destructorINS6_ISE_EEEEEC1B7v160006IRSF_SI_EEOT_OT0_, symObjAddr: 0x3F40, symBinAddr: 0x100005298, symSize: 0x3C }
  - { offsetInCU: 0x1866F, offset: 0x1866F, size: 0x8, addend: 0x0, symName: __ZNSt3__117__compressed_pairIPNS_11__tree_nodeINS_12__value_typeINS_12basic_stringIcNS_11char_traitsIcEENS_9allocatorIcEEEENS_10shared_ptrI4MenuEEEEPvEENS_22__tree_node_destructorINS6_ISE_EEEEEC2B7v160006IRSF_SI_EEOT_OT0_, symObjAddr: 0x3F7C, symBinAddr: 0x1000052D4, symSize: 0x48 }
  - { offsetInCU: 0x186C7, offset: 0x186C7, size: 0x8, addend: 0x0, symName: __ZNSt3__122__compressed_pair_elemIPNS_11__tree_nodeINS_12__value_typeINS_12basic_stringIcNS_11char_traitsIcEENS_9allocatorIcEEEENS_10shared_ptrI4MenuEEEEPvEELi0ELb0EEC2B7v160006IRSF_vEEOT_, symObjAddr: 0x3FC4, symBinAddr: 0x10000531C, symSize: 0x24 }
  - { offsetInCU: 0x18709, offset: 0x18709, size: 0x8, addend: 0x0, symName: __ZNSt3__122__compressed_pair_elemINS_22__tree_node_destructorINS_9allocatorINS_11__tree_nodeINS_12__value_typeINS_12basic_stringIcNS_11char_traitsIcEENS2_IcEEEENS_10shared_ptrI4MenuEEEEPvEEEEEELi1ELb0EEC2B7v160006ISH_vEEOT_, symObjAddr: 0x3FE8, symBinAddr: 0x100005340, symSize: 0x24 }
  - { offsetInCU: 0x1874B, offset: 0x1874B, size: 0x8, addend: 0x0, symName: __ZNSt3__19allocatorINS_11__tree_nodeINS_12__value_typeINS_12basic_stringIcNS_11char_traitsIcEENS0_IcEEEENS_10shared_ptrI4MenuEEEEPvEEE9constructB7v160006INS_4pairIKS7_SA_EEJRKSI_EEEvPT_DpOT0_, symObjAddr: 0x400C, symBinAddr: 0x100005364, symSize: 0x30 }
  - { offsetInCU: 0x187A1, offset: 0x187A1, size: 0x8, addend: 0x0, symName: __ZNSt3__14pairIKNS_12basic_stringIcNS_11char_traitsIcEENS_9allocatorIcEEEENS_10shared_ptrI4MenuEEEC1ERKSB_, symObjAddr: 0x403C, symBinAddr: 0x100005394, symSize: 0x34 }
  - { offsetInCU: 0x187D5, offset: 0x187D5, size: 0x8, addend: 0x0, symName: __ZNSt3__14pairIKNS_12basic_stringIcNS_11char_traitsIcEENS_9allocatorIcEEEENS_10shared_ptrI4MenuEEEC2ERKSB_, symObjAddr: 0x4070, symBinAddr: 0x1000053C8, symSize: 0x48 }
  - { offsetInCU: 0x18809, offset: 0x18809, size: 0x8, addend: 0x0, symName: __ZNSt3__110shared_ptrI4MenuEC1B7v160006ERKS2_, symObjAddr: 0x40B8, symBinAddr: 0x100005410, symSize: 0x34 }
  - { offsetInCU: 0x18842, offset: 0x18842, size: 0x8, addend: 0x0, symName: __ZNSt3__110shared_ptrI4MenuEC2B7v160006ERKS2_, symObjAddr: 0x40EC, symBinAddr: 0x100005444, symSize: 0x70 }
  - { offsetInCU: 0x1887B, offset: 0x1887B, size: 0x8, addend: 0x0, symName: __ZNSt3__112__value_typeINS_12basic_stringIcNS_11char_traitsIcEENS_9allocatorIcEEEENS_10shared_ptrI4MenuEEE11__get_valueB7v160006Ev, symObjAddr: 0x415C, symBinAddr: 0x1000054B4, symSize: 0x24 }
  - { offsetInCU: 0x188A1, offset: 0x188A1, size: 0x8, addend: 0x0, symName: __ZNKSt3__117__compressed_pairIPNS_11__tree_nodeINS_12__value_typeINS_12basic_stringIcNS_11char_traitsIcEENS_9allocatorIcEEEENS_10shared_ptrI4MenuEEEEPvEENS_22__tree_node_destructorINS6_ISE_EEEEE5firstB7v160006Ev, symObjAddr: 0x41B8, symBinAddr: 0x100005510, symSize: 0x24 }
  - { offsetInCU: 0x188C7, offset: 0x188C7, size: 0x8, addend: 0x0, symName: __ZNKSt3__122__compressed_pair_elemIPNS_11__tree_nodeINS_12__value_typeINS_12basic_stringIcNS_11char_traitsIcEENS_9allocatorIcEEEENS_10shared_ptrI4MenuEEEEPvEELi0ELb0EE5__getB7v160006Ev, symObjAddr: 0x41DC, symBinAddr: 0x100005534, symSize: 0x14 }
  - { offsetInCU: 0x188ED, offset: 0x188ED, size: 0x8, addend: 0x0, symName: __ZNSt3__117__compressed_pairIPNS_11__tree_nodeINS_12__value_typeINS_12basic_stringIcNS_11char_traitsIcEENS_9allocatorIcEEEENS_10shared_ptrI4MenuEEEEPvEENS_22__tree_node_destructorINS6_ISE_EEEEE6secondB7v160006Ev, symObjAddr: 0x41F0, symBinAddr: 0x100005548, symSize: 0x28 }
  - { offsetInCU: 0x18913, offset: 0x18913, size: 0x8, addend: 0x0, symName: __ZNSt3__122__compressed_pair_elemINS_22__tree_node_destructorINS_9allocatorINS_11__tree_nodeINS_12__value_typeINS_12basic_stringIcNS_11char_traitsIcEENS2_IcEEEENS_10shared_ptrI4MenuEEEEPvEEEEEELi1ELb0EE5__getB7v160006Ev, symObjAddr: 0x4218, symBinAddr: 0x100005570, symSize: 0x14 }
  - { offsetInCU: 0x18939, offset: 0x18939, size: 0x8, addend: 0x0, symName: __ZNSt3__16__treeINS_12__value_typeINS_12basic_stringIcNS_11char_traitsIcEENS_9allocatorIcEEEENS_10shared_ptrI4MenuEEEENS_19__map_value_compareIS7_SB_NS_4lessIS7_EELb1EEENS5_ISB_EEE4sizeB7v160006Ev, symObjAddr: 0x44A8, symBinAddr: 0x100005800, symSize: 0x28 }
  - { offsetInCU: 0x1895F, offset: 0x1895F, size: 0x8, addend: 0x0, symName: __ZNSt3__116__tree_node_baseIPvE12__set_parentB7v160006EPS2_, symObjAddr: 0x4674, symBinAddr: 0x1000059CC, symSize: 0x20 }
  - { offsetInCU: 0x18994, offset: 0x18994, size: 0x8, addend: 0x0, symName: __ZNSt3__117__compressed_pairImNS_19__map_value_compareINS_12basic_stringIcNS_11char_traitsIcEENS_9allocatorIcEEEENS_12__value_typeIS7_NS_10shared_ptrI4MenuEEEENS_4lessIS7_EELb1EEEE5firstB7v160006Ev, symObjAddr: 0x4694, symBinAddr: 0x1000059EC, symSize: 0x24 }
  - { offsetInCU: 0x189BA, offset: 0x189BA, size: 0x8, addend: 0x0, symName: __ZNSt3__122__compressed_pair_elemImLi0ELb0EE5__getB7v160006Ev, symObjAddr: 0x46B8, symBinAddr: 0x100005A10, symSize: 0x14 }
  - { offsetInCU: 0x189E0, offset: 0x189E0, size: 0x8, addend: 0x0, symName: __ZNSt3__117__compressed_pairIPNS_11__tree_nodeINS_12__value_typeINS_12basic_stringIcNS_11char_traitsIcEENS_9allocatorIcEEEENS_10shared_ptrI4MenuEEEEPvEENS_22__tree_node_destructorINS6_ISE_EEEEE5firstB7v160006Ev, symObjAddr: 0x46CC, symBinAddr: 0x100005A24, symSize: 0x24 }
  - { offsetInCU: 0x18A06, offset: 0x18A06, size: 0x8, addend: 0x0, symName: __ZNSt3__122__compressed_pair_elemIPNS_11__tree_nodeINS_12__value_typeINS_12basic_stringIcNS_11char_traitsIcEENS_9allocatorIcEEEENS_10shared_ptrI4MenuEEEEPvEELi0ELb0EE5__getB7v160006Ev, symObjAddr: 0x46F0, symBinAddr: 0x100005A48, symSize: 0x14 }
  - { offsetInCU: 0x18A2C, offset: 0x18A2C, size: 0x8, addend: 0x0, symName: __ZNSt3__110unique_ptrINS_11__tree_nodeINS_12__value_typeINS_12basic_stringIcNS_11char_traitsIcEENS_9allocatorIcEEEENS_10shared_ptrI4MenuEEEEPvEENS_22__tree_node_destructorINS6_ISE_EEEEED2B7v160006Ev, symObjAddr: 0x4704, symBinAddr: 0x100005A5C, symSize: 0x30 }
  - { offsetInCU: 0x18A56, offset: 0x18A56, size: 0x8, addend: 0x0, symName: __ZNSt3__110unique_ptrINS_11__tree_nodeINS_12__value_typeINS_12basic_stringIcNS_11char_traitsIcEENS_9allocatorIcEEEENS_10shared_ptrI4MenuEEEEPvEENS_22__tree_node_destructorINS6_ISE_EEEEE5resetB7v160006EPSE_, symObjAddr: 0x4734, symBinAddr: 0x100005A8C, symSize: 0x78 }
  - { offsetInCU: 0x18A9A, offset: 0x18A9A, size: 0x8, addend: 0x0, symName: __ZNSt3__122__tree_node_destructorINS_9allocatorINS_11__tree_nodeINS_12__value_typeINS_12basic_stringIcNS_11char_traitsIcEENS1_IcEEEENS_10shared_ptrI4MenuEEEEPvEEEEEclB7v160006EPSE_, symObjAddr: 0x47AC, symBinAddr: 0x100005B04, symSize: 0x98 }
  - { offsetInCU: 0x18ACF, offset: 0x18ACF, size: 0x8, addend: 0x0, symName: __ZNSt3__116allocator_traitsINS_9allocatorINS_11__tree_nodeINS_12__value_typeINS_12basic_stringIcNS_11char_traitsIcEENS1_IcEEEENS_10shared_ptrI4MenuEEEEPvEEEEE7destroyB7v160006INS_4pairIKS8_SB_EEvvEEvRSF_PT_, symObjAddr: 0x4844, symBinAddr: 0x100005B9C, symSize: 0x28 }
  - { offsetInCU: 0x18B0A, offset: 0x18B0A, size: 0x8, addend: 0x0, symName: __ZNSt3__116allocator_traitsINS_9allocatorINS_11__tree_nodeINS_12__value_typeINS_12basic_stringIcNS_11char_traitsIcEENS1_IcEEEENS_10shared_ptrI4MenuEEEEPvEEEEE10deallocateB7v160006ERSF_PSE_m, symObjAddr: 0x486C, symBinAddr: 0x100005BC4, symSize: 0x34 }
  - { offsetInCU: 0x18B4C, offset: 0x18B4C, size: 0x8, addend: 0x0, symName: __ZNSt3__14pairIKNS_12basic_stringIcNS_11char_traitsIcEENS_9allocatorIcEEEENS_10shared_ptrI4MenuEEED1Ev, symObjAddr: 0x48A0, symBinAddr: 0x100005BF8, symSize: 0x2C }
  - { offsetInCU: 0x18B78, offset: 0x18B78, size: 0x8, addend: 0x0, symName: __ZNSt3__14pairIKNS_12basic_stringIcNS_11char_traitsIcEENS_9allocatorIcEEEENS_10shared_ptrI4MenuEEED2Ev, symObjAddr: 0x48CC, symBinAddr: 0x100005C24, symSize: 0x38 }
  - { offsetInCU: 0x18BA4, offset: 0x18BA4, size: 0x8, addend: 0x0, symName: __ZNSt3__110shared_ptrI4MenuED1B7v160006Ev, symObjAddr: 0x4904, symBinAddr: 0x100005C5C, symSize: 0x2C }
  - { offsetInCU: 0x18BCE, offset: 0x18BCE, size: 0x8, addend: 0x0, symName: __ZNSt3__110shared_ptrI4MenuED2B7v160006Ev, symObjAddr: 0x4930, symBinAddr: 0x100005C88, symSize: 0x54 }
  - { offsetInCU: 0x18BF8, offset: 0x18BF8, size: 0x8, addend: 0x0, symName: __ZNSt3__19allocatorINS_11__tree_nodeINS_12__value_typeINS_12basic_stringIcNS_11char_traitsIcEENS0_IcEEEENS_10shared_ptrI4MenuEEEEPvEEE10deallocateB7v160006EPSD_m, symObjAddr: 0x4984, symBinAddr: 0x100005CDC, symSize: 0x44 }
  - { offsetInCU: 0x18C3A, offset: 0x18C3A, size: 0x8, addend: 0x0, symName: __ZNSt3__115__tree_iteratorINS_12__value_typeINS_12basic_stringIcNS_11char_traitsIcEENS_9allocatorIcEEEENS_10shared_ptrI4MenuEEEEPNS_11__tree_nodeISB_PvEElEC2B7v160006ESF_, symObjAddr: 0x49C8, symBinAddr: 0x100005D20, symSize: 0x20 }
  - { offsetInCU: 0x18C73, offset: 0x18C73, size: 0x8, addend: 0x0, symName: __ZNSt3__14pairINS_15__tree_iteratorINS_12__value_typeINS_12basic_stringIcNS_11char_traitsIcEENS_9allocatorIcEEEENS_10shared_ptrI4MenuEEEEPNS_11__tree_nodeISC_PvEElEEbEC2B7v160006ISH_RbLSE_0EEEOT_OT0_, symObjAddr: 0x49E8, symBinAddr: 0x100005D40, symSize: 0x38 }
  - { offsetInCU: 0x18CD1, offset: 0x18CD1, size: 0x8, addend: 0x0, symName: __ZNSt3__114__map_iteratorINS_15__tree_iteratorINS_12__value_typeINS_12basic_stringIcNS_11char_traitsIcEENS_9allocatorIcEEEENS_10shared_ptrI4MenuEEEEPNS_11__tree_nodeISC_PvEElEEEC2B7v160006ESH_, symObjAddr: 0x4A20, symBinAddr: 0x100005D78, symSize: 0x20 }
  - { offsetInCU: 0x18D0A, offset: 0x18D0A, size: 0x8, addend: 0x0, symName: __ZNSt3__120__map_const_iteratorINS_21__tree_const_iteratorINS_12__value_typeINS_12basic_stringIcNS_11char_traitsIcEENS_9allocatorIcEEEENS_10shared_ptrI4MenuEEEEPNS_11__tree_nodeISC_PvEElEEEC2B7v160006ESH_, symObjAddr: 0x4A40, symBinAddr: 0x100005D98, symSize: 0x20 }
  - { offsetInCU: 0x18D43, offset: 0x18D43, size: 0x8, addend: 0x0, symName: __ZNKSt3__121__tree_const_iteratorINS_12__value_typeINS_12basic_stringIcNS_11char_traitsIcEENS_9allocatorIcEEEENS_10shared_ptrI4MenuEEEEPNS_11__tree_nodeISB_PvEElEptB7v160006Ev, symObjAddr: 0x4A60, symBinAddr: 0x100005DB8, symSize: 0x2C }
  - { offsetInCU: 0x18D69, offset: 0x18D69, size: 0x8, addend: 0x0, symName: __ZNSt3__114pointer_traitsIPKNS_12__value_typeINS_12basic_stringIcNS_11char_traitsIcEENS_9allocatorIcEEEENS_10shared_ptrI4MenuEEEEE10pointer_toB7v160006ERSC_, symObjAddr: 0x4A8C, symBinAddr: 0x100005DE4, symSize: 0x14 }
  - { offsetInCU: 0x18D8C, offset: 0x18D8C, size: 0x8, addend: 0x0, symName: __ZNKSt3__16__treeINS_12__value_typeINS_12basic_stringIcNS_11char_traitsIcEENS_9allocatorIcEEEENS_10shared_ptrI4MenuEEEENS_19__map_value_compareIS7_SB_NS_4lessIS7_EELb1EEENS5_ISB_EEE5beginB7v160006Ev, symObjAddr: 0x4AA0, symBinAddr: 0x100005DF8, symSize: 0x34 }
  - { offsetInCU: 0x18DB2, offset: 0x18DB2, size: 0x8, addend: 0x0, symName: __ZNKSt3__16__treeINS_12__value_typeINS_12basic_stringIcNS_11char_traitsIcEENS_9allocatorIcEEEENS_10shared_ptrI4MenuEEEENS_19__map_value_compareIS7_SB_NS_4lessIS7_EELb1EEENS5_ISB_EEE12__begin_nodeB7v160006Ev, symObjAddr: 0x4AD4, symBinAddr: 0x100005E2C, symSize: 0x14 }
  - { offsetInCU: 0x18DD8, offset: 0x18DD8, size: 0x8, addend: 0x0, symName: __ZNSt3__121__tree_const_iteratorINS_12__value_typeINS_12basic_stringIcNS_11char_traitsIcEENS_9allocatorIcEEEENS_10shared_ptrI4MenuEEEEPNS_11__tree_nodeISB_PvEElEC1B7v160006EPNS_15__tree_end_nodeIPNS_16__tree_node_baseISD_EEEE, symObjAddr: 0x4AE8, symBinAddr: 0x100005E40, symSize: 0x34 }
  - { offsetInCU: 0x18E11, offset: 0x18E11, size: 0x8, addend: 0x0, symName: __ZNSt3__121__tree_const_iteratorINS_12__value_typeINS_12basic_stringIcNS_11char_traitsIcEENS_9allocatorIcEEEENS_10shared_ptrI4MenuEEEEPNS_11__tree_nodeISB_PvEElEC2B7v160006EPNS_15__tree_end_nodeIPNS_16__tree_node_baseISD_EEEE, symObjAddr: 0x4B1C, symBinAddr: 0x100005E74, symSize: 0x20 }
  - { offsetInCU: 0x18E4A, offset: 0x18E4A, size: 0x8, addend: 0x0, symName: __ZNKSt3__16__treeINS_12__value_typeINS_12basic_stringIcNS_11char_traitsIcEENS_9allocatorIcEEEENS_10shared_ptrI4MenuEEEENS_19__map_value_compareIS7_SB_NS_4lessIS7_EELb1EEENS5_ISB_EEE3endB7v160006Ev, symObjAddr: 0x4B3C, symBinAddr: 0x100005E94, symSize: 0x34 }
  - { offsetInCU: 0x18E70, offset: 0x18E70, size: 0x8, addend: 0x0, symName: __ZNSt3__16__treeINS_12__value_typeINS_12basic_stringIcNS_11char_traitsIcEENS_9allocatorIcEEEENS_10shared_ptrI4MenuEEEENS_19__map_value_compareIS7_SB_NS_4lessIS7_EELb1EEENS5_ISB_EEED2Ev, symObjAddr: 0x4B70, symBinAddr: 0x100005EC8, symSize: 0x38 }
  - { offsetInCU: 0x18E9C, offset: 0x18E9C, size: 0x8, addend: 0x0, symName: __ZNSt3__16__treeINS_12__value_typeINS_12basic_stringIcNS_11char_traitsIcEENS_9allocatorIcEEEENS_10shared_ptrI4MenuEEEENS_19__map_value_compareIS7_SB_NS_4lessIS7_EELb1EEENS5_ISB_EEE7destroyEPNS_11__tree_nodeISB_PvEE, symObjAddr: 0x4BA8, symBinAddr: 0x100005F00, symSize: 0xA8 }
  - { offsetInCU: 0x18EE9, offset: 0x18EE9, size: 0x8, addend: 0x0, symName: __ZNSt3__13mapINS_12basic_stringIcNS_11char_traitsIcEENS_9allocatorIcEEEENS_10shared_ptrI4MenuEENS_4lessIS6_EENS4_INS_4pairIKS6_S9_EEEEED2B7v160006Ev, symObjAddr: 0x4C50, symBinAddr: 0x100005FA8, symSize: 0x2C }
  - { offsetInCU: 0x18F13, offset: 0x18F13, size: 0x8, addend: 0x0, symName: __ZNSt3__112basic_stringIcNS_11char_traitsIcEENS_9allocatorIcEEEC2B7v160006IDnEEPKc, symObjAddr: 0x4C7C, symBinAddr: 0x100005FD4, symSize: 0x60 }
  - { offsetInCU: 0x18F51, offset: 0x18F51, size: 0x8, addend: 0x0, symName: __ZNSt3__117__compressed_pairINS_12basic_stringIcNS_11char_traitsIcEENS_9allocatorIcEEE5__repES5_EC1B7v160006INS_18__default_init_tagESA_EEOT_OT0_, symObjAddr: 0x4CDC, symBinAddr: 0x100006034, symSize: 0x3C }
  - { offsetInCU: 0x18FA9, offset: 0x18FA9, size: 0x8, addend: 0x0, symName: __ZNSt3__111char_traitsIcE6lengthEPKc, symObjAddr: 0x4D18, symBinAddr: 0x100006070, symSize: 0x34 }
  - { offsetInCU: 0x18FCC, offset: 0x18FCC, size: 0x8, addend: 0x0, symName: __ZNSt3__117__compressed_pairINS_12basic_stringIcNS_11char_traitsIcEENS_9allocatorIcEEE5__repES5_EC2B7v160006INS_18__default_init_tagESA_EEOT_OT0_, symObjAddr: 0x4D5C, symBinAddr: 0x1000060B4, symSize: 0x3C }
  - { offsetInCU: 0x19024, offset: 0x19024, size: 0x8, addend: 0x0, symName: __ZNSt3__122__compressed_pair_elemINS_12basic_stringIcNS_11char_traitsIcEENS_9allocatorIcEEE5__repELi0ELb0EEC2B7v160006ENS_18__default_init_tagE, symObjAddr: 0x4D98, symBinAddr: 0x1000060F0, symSize: 0x14 }
  - { offsetInCU: 0x19058, offset: 0x19058, size: 0x8, addend: 0x0, symName: __ZNSt3__122__compressed_pair_elemINS_9allocatorIcEELi1ELb1EEC2B7v160006ENS_18__default_init_tagE, symObjAddr: 0x4DAC, symBinAddr: 0x100006104, symSize: 0x2C }
  - { offsetInCU: 0x1908C, offset: 0x1908C, size: 0x8, addend: 0x0, symName: __ZNSt3__19allocatorIcEC2B7v160006Ev, symObjAddr: 0x4DD8, symBinAddr: 0x100006130, symSize: 0x2C }
  - { offsetInCU: 0x190B6, offset: 0x190B6, size: 0x8, addend: 0x0, symName: __ZNSt3__116__non_trivial_ifILb1ENS_9allocatorIcEEEC2B7v160006Ev, symObjAddr: 0x4E04, symBinAddr: 0x10000615C, symSize: 0x14 }
  - { offsetInCU: 0x190F4, offset: 0x190F4, size: 0x8, addend: 0x0, symName: __ZNSt3__16__treeINS_12__value_typeINS_12basic_stringIcNS_11char_traitsIcEENS_9allocatorIcEEEENS_10shared_ptrI4MenuEEEENS_19__map_value_compareIS7_SB_NS_4lessIS7_EELb1EEENS5_ISB_EEE25__emplace_unique_key_argsIS7_JRKNS_21piecewise_construct_tENS_5tupleIJRKS7_EEENSM_IJEEEEEENS_4pairINS_15__tree_iteratorISB_PNS_11__tree_nodeISB_PvEElEEbEERKT_DpOT0_, symObjAddr: 0x4E3C, symBinAddr: 0x100006194, symSize: 0x100 }
  - { offsetInCU: 0x191CB, offset: 0x191CB, size: 0x8, addend: 0x0, symName: __ZNKSt3__115__tree_iteratorINS_12__value_typeINS_12basic_stringIcNS_11char_traitsIcEENS_9allocatorIcEEEENS_10shared_ptrI4MenuEEEEPNS_11__tree_nodeISB_PvEElEptB7v160006Ev, symObjAddr: 0x4F6C, symBinAddr: 0x1000062C4, symSize: 0x2C }
  - { offsetInCU: 0x191F1, offset: 0x191F1, size: 0x8, addend: 0x0, symName: __ZNSt3__16__treeINS_12__value_typeINS_12basic_stringIcNS_11char_traitsIcEENS_9allocatorIcEEEENS_10shared_ptrI4MenuEEEENS_19__map_value_compareIS7_SB_NS_4lessIS7_EELb1EEENS5_ISB_EEE16__construct_nodeIJRKNS_21piecewise_construct_tENS_5tupleIJRKS7_EEENSM_IJEEEEEENS_10unique_ptrINS_11__tree_nodeISB_PvEENS_22__tree_node_destructorINS5_ISU_EEEEEEDpOT_, symObjAddr: 0x4F98, symBinAddr: 0x1000062F0, symSize: 0x120 }
  - { offsetInCU: 0x1927A, offset: 0x1927A, size: 0x8, addend: 0x0, symName: __ZNSt3__116allocator_traitsINS_9allocatorINS_11__tree_nodeINS_12__value_typeINS_12basic_stringIcNS_11char_traitsIcEENS1_IcEEEENS_10shared_ptrI4MenuEEEEPvEEEEE9constructB7v160006INS_4pairIKS8_SB_EEJRKNS_21piecewise_construct_tENS_5tupleIJRSJ_EEENSO_IJEEEEvEEvRSF_PT_DpOT0_, symObjAddr: 0x50B8, symBinAddr: 0x100006410, symSize: 0x44 }
  - { offsetInCU: 0x192F9, offset: 0x192F9, size: 0x8, addend: 0x0, symName: __ZNSt3__19allocatorINS_11__tree_nodeINS_12__value_typeINS_12basic_stringIcNS_11char_traitsIcEENS0_IcEEEENS_10shared_ptrI4MenuEEEEPvEEE9constructB7v160006INS_4pairIKS7_SA_EEJRKNS_21piecewise_construct_tENS_5tupleIJRSH_EEENSM_IJEEEEEEvPT_DpOT0_, symObjAddr: 0x50FC, symBinAddr: 0x100006454, symSize: 0x44 }
  - { offsetInCU: 0x19375, offset: 0x19375, size: 0x8, addend: 0x0, symName: __ZNSt3__14pairIKNS_12basic_stringIcNS_11char_traitsIcEENS_9allocatorIcEEEENS_10shared_ptrI4MenuEEEC1B7v160006IJRS7_EJEEENS_21piecewise_construct_tENS_5tupleIJDpT_EEENSF_IJDpT0_EEE, symObjAddr: 0x5140, symBinAddr: 0x100006498, symSize: 0x3C }
  - { offsetInCU: 0x193DC, offset: 0x193DC, size: 0x8, addend: 0x0, symName: __ZNSt3__14pairIKNS_12basic_stringIcNS_11char_traitsIcEENS_9allocatorIcEEEENS_10shared_ptrI4MenuEEEC1B7v160006IJRS7_EJEJLm0EEJEEENS_21piecewise_construct_tERNS_5tupleIJDpT_EEERNSF_IJDpT0_EEENS_15__tuple_indicesIJXspT1_EEEENSO_IJXspT2_EEEE, symObjAddr: 0x517C, symBinAddr: 0x1000064D4, symSize: 0x3C }
  - { offsetInCU: 0x1946C, offset: 0x1946C, size: 0x8, addend: 0x0, symName: __ZNSt3__14pairIKNS_12basic_stringIcNS_11char_traitsIcEENS_9allocatorIcEEEENS_10shared_ptrI4MenuEEEC2B7v160006IJRS7_EJEJLm0EEJEEENS_21piecewise_construct_tERNS_5tupleIJDpT_EEERNSF_IJDpT0_EEENS_15__tuple_indicesIJXspT1_EEEENSO_IJXspT2_EEEE, symObjAddr: 0x51B8, symBinAddr: 0x100006510, symSize: 0x50 }
  - { offsetInCU: 0x194FC, offset: 0x194FC, size: 0x8, addend: 0x0, symName: __ZNSt3__110shared_ptrI4MenuEC1B7v160006Ev, symObjAddr: 0x522C, symBinAddr: 0x100006584, symSize: 0x2C }
  - { offsetInCU: 0x19526, offset: 0x19526, size: 0x8, addend: 0x0, symName: __ZNSt3__112__tuple_leafILm0ERKNS_12basic_stringIcNS_11char_traitsIcEENS_9allocatorIcEEEELb0EE3getB7v160006Ev, symObjAddr: 0x5258, symBinAddr: 0x1000065B0, symSize: 0x18 }
  - { offsetInCU: 0x1954C, offset: 0x1954C, size: 0x8, addend: 0x0, symName: __ZNSt3__110shared_ptrI4MenuEC2B7v160006Ev, symObjAddr: 0x5270, symBinAddr: 0x1000065C8, symSize: 0x1C }
  - { offsetInCU: 0x19576, offset: 0x19576, size: 0x8, addend: 0x0, symName: __ZNSt3__15tupleIJRKNS_12basic_stringIcNS_11char_traitsIcEENS_9allocatorIcEEEEEEC1B7v160006INS_4_AndELi0EEES8_, symObjAddr: 0x528C, symBinAddr: 0x1000065E4, symSize: 0x34 }
  - { offsetInCU: 0x195BE, offset: 0x195BE, size: 0x8, addend: 0x0, symName: __ZNSt3__15tupleIJRKNS_12basic_stringIcNS_11char_traitsIcEENS_9allocatorIcEEEEEEC2B7v160006INS_4_AndELi0EEES8_, symObjAddr: 0x52C0, symBinAddr: 0x100006618, symSize: 0x34 }
  - { offsetInCU: 0x19606, offset: 0x19606, size: 0x8, addend: 0x0, symName: __ZNSt3__112__tuple_implINS_15__tuple_indicesIJLm0EEEEJRKNS_12basic_stringIcNS_11char_traitsIcEENS_9allocatorIcEEEEEEC1B7v160006IJLm0EEJSA_EJEJEJSA_EEENS1_IJXspT_EEEENS_13__tuple_typesIJDpT0_EEENS1_IJXspT1_EEEENSE_IJDpT2_EEEDpOT3_, symObjAddr: 0x52F4, symBinAddr: 0x10000664C, symSize: 0x34 }
  - { offsetInCU: 0x1969B, offset: 0x1969B, size: 0x8, addend: 0x0, symName: __ZNSt3__112__tuple_implINS_15__tuple_indicesIJLm0EEEEJRKNS_12basic_stringIcNS_11char_traitsIcEENS_9allocatorIcEEEEEEC2B7v160006IJLm0EEJSA_EJEJEJSA_EEENS1_IJXspT_EEEENS_13__tuple_typesIJDpT0_EEENS1_IJXspT1_EEEENSE_IJDpT2_EEEDpOT3_, symObjAddr: 0x5328, symBinAddr: 0x100006680, symSize: 0x34 }
  - { offsetInCU: 0x19730, offset: 0x19730, size: 0x8, addend: 0x0, symName: __ZNSt3__112__tuple_leafILm0ERKNS_12basic_stringIcNS_11char_traitsIcEENS_9allocatorIcEEEELb0EEC2B7v160006IS8_vEEOT_, symObjAddr: 0x535C, symBinAddr: 0x1000066B4, symSize: 0x20 }
  - { offsetInCU: 0x19773, offset: 0x19773, size: 0x8, addend: 0x0, symName: __ZNSt3__114pointer_traitsIPNS_12__value_typeINS_12basic_stringIcNS_11char_traitsIcEENS_9allocatorIcEEEENS_10shared_ptrI4MenuEEEEE10pointer_toB7v160006ERSB_, symObjAddr: 0x537C, symBinAddr: 0x1000066D4, symSize: 0x14 }
  - { offsetInCU: 0x19796, offset: 0x19796, size: 0x8, addend: 0x0, symName: __ZNKSt3__115__tree_iteratorINS_12__value_typeINS_12basic_stringIcNS_11char_traitsIcEENS_9allocatorIcEEEENS_10shared_ptrI4MenuEEEEPNS_11__tree_nodeISB_PvEElE8__get_npB7v160006Ev, symObjAddr: 0x5390, symBinAddr: 0x1000066E8, symSize: 0x18 }
  - { offsetInCU: 0x197BC, offset: 0x197BC, size: 0x8, addend: 0x0, symName: __ZNSt3__16chrono8durationIxNS_5ratioILl1ELl1000EEEE4zeroB7v160006Ev, symObjAddr: 0x53D8, symBinAddr: 0x100006730, symSize: 0x3C }
  - { offsetInCU: 0x197D0, offset: 0x197D0, size: 0x8, addend: 0x0, symName: __ZNSt3__16chrono8durationIxNS_5ratioILl1ELl1000000000EEEEppB7v160006Ev, symObjAddr: 0x54AC, symBinAddr: 0x100006804, symSize: 0x20 }
  - { offsetInCU: 0x197F6, offset: 0x197F6, size: 0x8, addend: 0x0, symName: __ZNSt3__16chrono8durationIxNS_5ratioILl1ELl1000000000EEEE3maxB7v160006Ev, symObjAddr: 0x54CC, symBinAddr: 0x100006824, symSize: 0x3C }
  - { offsetInCU: 0x19814, offset: 0x19814, size: 0x8, addend: 0x0, symName: __ZNKSt3__16chrono13__duration_ltINS0_8durationIxNS_5ratioILl1ELl1000EEEEES5_EclB7v160006ERKS5_S8_, symObjAddr: 0x553C, symBinAddr: 0x100006894, symSize: 0x4C }
  - { offsetInCU: 0x19858, offset: 0x19858, size: 0x8, addend: 0x0, symName: __ZNKSt3__16chrono8durationIxNS_5ratioILl1ELl1000EEEE5countB7v160006Ev, symObjAddr: 0x5588, symBinAddr: 0x1000068E0, symSize: 0x18 }
  - { offsetInCU: 0x1987E, offset: 0x1987E, size: 0x8, addend: 0x0, symName: __ZNSt3__16chrono15duration_valuesIxE4zeroB7v160006Ev, symObjAddr: 0x55A0, symBinAddr: 0x1000068F8, symSize: 0x8 }
  - { offsetInCU: 0x1989C, offset: 0x1989C, size: 0x8, addend: 0x0, symName: __ZNSt3__16chrono8durationIxNS_5ratioILl1ELl1000EEEEC1B7v160006IxEERKT_PNS_9enable_ifIXaasr14is_convertibleIS8_xEE5valueooL_ZNS_17integral_constantIbLb0EE5valueEEntsr23treat_as_floating_pointIS6_EE5valueEvE4typeE, symObjAddr: 0x55A8, symBinAddr: 0x100006900, symSize: 0x3C }
  - { offsetInCU: 0x198E9, offset: 0x198E9, size: 0x8, addend: 0x0, symName: __ZNSt3__16chrono8durationIxNS_5ratioILl1ELl1000EEEEC2B7v160006IxEERKT_PNS_9enable_ifIXaasr14is_convertibleIS8_xEE5valueooL_ZNS_17integral_constantIbLb0EE5valueEEntsr23treat_as_floating_pointIS6_EE5valueEvE4typeE, symObjAddr: 0x55E4, symBinAddr: 0x10000693C, symSize: 0x28 }
  - { offsetInCU: 0x19936, offset: 0x19936, size: 0x8, addend: 0x0, symName: __ZNSt3__16chrono8durationIeNS_5ratioILl1ELl1000EEEEC1B7v160006IxS3_EERKNS1_IT_T0_EEPNS_9enable_ifIXaasr13__no_overflowIS7_S3_EE5valueooL_ZNS_17integral_constantIbLb1EE5valueEEaaeqsr13__no_overflowIS7_S3_E4typeE3denLi1Entsr23treat_as_floating_pointIS6_EE5valueEvE4typeE, symObjAddr: 0x5684, symBinAddr: 0x1000069DC, symSize: 0x3C }
  - { offsetInCU: 0x1998D, offset: 0x1998D, size: 0x8, addend: 0x0, symName: __ZNKSt3__16chrono8durationIeNS_5ratioILl1ELl1000EEEE5countB7v160006Ev, symObjAddr: 0x56C0, symBinAddr: 0x100006A18, symSize: 0x18 }
  - { offsetInCU: 0x199B3, offset: 0x199B3, size: 0x8, addend: 0x0, symName: __ZNSt3__16chrono8durationIeNS_5ratioILl1ELl1000EEEEC1B7v160006IeNS2_ILl1ELl1EEEEERKNS1_IT_T0_EEPNS_9enable_ifIXaasr13__no_overflowIS8_S3_EE5valueooL_ZNS_17integral_constantIbLb1EE5valueEEaaeqsr13__no_overflowIS8_S3_E4typeE3denLi1Entsr23treat_as_floating_pointIS7_EE5valueEvE4typeE, symObjAddr: 0x56D8, symBinAddr: 0x100006A30, symSize: 0x3C }
  - { offsetInCU: 0x19A0A, offset: 0x19A0A, size: 0x8, addend: 0x0, symName: __ZNSt3__16chrono8durationIeNS_5ratioILl1ELl1000EEEEC2B7v160006IxS3_EERKNS1_IT_T0_EEPNS_9enable_ifIXaasr13__no_overflowIS7_S3_EE5valueooL_ZNS_17integral_constantIbLb1EE5valueEEaaeqsr13__no_overflowIS7_S3_E4typeE3denLi1Entsr23treat_as_floating_pointIS6_EE5valueEvE4typeE, symObjAddr: 0x5714, symBinAddr: 0x100006A6C, symSize: 0x48 }
  - { offsetInCU: 0x19A6B, offset: 0x19A6B, size: 0x8, addend: 0x0, symName: __ZNKSt3__16chrono15__duration_castINS0_8durationIxNS_5ratioILl1ELl1000EEEEENS2_IeS4_EENS3_ILl1ELl1EEELb1ELb1EEclB7v160006ERKS5_, symObjAddr: 0x578C, symBinAddr: 0x100006AE4, symSize: 0x44 }
  - { offsetInCU: 0x19AA9, offset: 0x19AA9, size: 0x8, addend: 0x0, symName: __ZNSt3__16chrono8durationIeNS_5ratioILl1ELl1000EEEEC1B7v160006IeEERKT_PNS_9enable_ifIXaasr14is_convertibleIS8_eEE5valueooL_ZNS_17integral_constantIbLb1EE5valueEEntsr23treat_as_floating_pointIS6_EE5valueEvE4typeE, symObjAddr: 0x57D0, symBinAddr: 0x100006B28, symSize: 0x3C }
  - { offsetInCU: 0x19AF6, offset: 0x19AF6, size: 0x8, addend: 0x0, symName: __ZNSt3__16chrono8durationIeNS_5ratioILl1ELl1000EEEEC2B7v160006IeEERKT_PNS_9enable_ifIXaasr14is_convertibleIS8_eEE5valueooL_ZNS_17integral_constantIbLb1EE5valueEEntsr23treat_as_floating_pointIS6_EE5valueEvE4typeE, symObjAddr: 0x580C, symBinAddr: 0x100006B64, symSize: 0x28 }
  - { offsetInCU: 0x19B43, offset: 0x19B43, size: 0x8, addend: 0x0, symName: __ZNSt3__16chrono8durationIeNS_5ratioILl1ELl1000EEEEC2B7v160006IeNS2_ILl1ELl1EEEEERKNS1_IT_T0_EEPNS_9enable_ifIXaasr13__no_overflowIS8_S3_EE5valueooL_ZNS_17integral_constantIbLb1EE5valueEEaaeqsr13__no_overflowIS8_S3_E4typeE3denLi1Entsr23treat_as_floating_pointIS7_EE5valueEvE4typeE, symObjAddr: 0x5834, symBinAddr: 0x100006B8C, symSize: 0x48 }
  - { offsetInCU: 0x19B9A, offset: 0x19B9A, size: 0x8, addend: 0x0, symName: __ZNKSt3__16chrono8durationIeNS_5ratioILl1ELl1EEEE5countB7v160006Ev, symObjAddr: 0x58F8, symBinAddr: 0x100006C50, symSize: 0x18 }
  - { offsetInCU: 0x19BC0, offset: 0x19BC0, size: 0x8, addend: 0x0, symName: __ZNSt3__16chrono8durationIxNS_5ratioILl1ELl1000000000EEEEC1B7v160006IxEERKT_PNS_9enable_ifIXaasr14is_convertibleIS8_xEE5valueooL_ZNS_17integral_constantIbLb0EE5valueEEntsr23treat_as_floating_pointIS6_EE5valueEvE4typeE, symObjAddr: 0x595C, symBinAddr: 0x100006CB4, symSize: 0x3C }
  - { offsetInCU: 0x19C0D, offset: 0x19C0D, size: 0x8, addend: 0x0, symName: __ZNSt3__16chrono8durationIxNS_5ratioILl1ELl1000000000EEEEC2B7v160006IxEERKT_PNS_9enable_ifIXaasr14is_convertibleIS8_xEE5valueooL_ZNS_17integral_constantIbLb0EE5valueEEntsr23treat_as_floating_pointIS6_EE5valueEvE4typeE, symObjAddr: 0x5998, symBinAddr: 0x100006CF0, symSize: 0x28 }
  - { offsetInCU: 0x19C5A, offset: 0x19C5A, size: 0x8, addend: 0x0, symName: __ZNKSt3__16chrono8durationIxNS_5ratioILl1ELl1000000000EEEE5countB7v160006Ev, symObjAddr: 0x5A2C, symBinAddr: 0x100006D84, symSize: 0x18 }
  - { offsetInCU: 0x19C80, offset: 0x19C80, size: 0x8, addend: 0x0, symName: __ZNSt3__16chrono8durationIxNS_5ratioILl1ELl1000000000EEEEC1B7v160006IxNS2_ILl1ELl1000EEEEERKNS1_IT_T0_EEPNS_9enable_ifIXaasr13__no_overflowIS8_S3_EE5valueooL_ZNS_17integral_constantIbLb0EE5valueEEaaeqsr13__no_overflowIS8_S3_E4typeE3denLi1Entsr23treat_as_floating_pointIS7_EE5valueEvE4typeE, symObjAddr: 0x5A44, symBinAddr: 0x100006D9C, symSize: 0x3C }
  - { offsetInCU: 0x19CD7, offset: 0x19CD7, size: 0x8, addend: 0x0, symName: __ZNSt3__16chrono8durationIxNS_5ratioILl1ELl1000000000EEEEC2B7v160006IxNS2_ILl1ELl1000EEEEERKNS1_IT_T0_EEPNS_9enable_ifIXaasr13__no_overflowIS8_S3_EE5valueooL_ZNS_17integral_constantIbLb0EE5valueEEaaeqsr13__no_overflowIS8_S3_E4typeE3denLi1Entsr23treat_as_floating_pointIS7_EE5valueEvE4typeE, symObjAddr: 0x5A80, symBinAddr: 0x100006DD8, symSize: 0x50 }
  - { offsetInCU: 0x19D2E, offset: 0x19D2E, size: 0x8, addend: 0x0, symName: __ZNSt3__16chrono15duration_valuesIxE3maxB7v160006Ev, symObjAddr: 0x5AD0, symBinAddr: 0x100006E28, symSize: 0x14 }
  - { offsetInCU: 0x19D42, offset: 0x19D42, size: 0x8, addend: 0x0, symName: __ZNSt3__114numeric_limitsIxE3maxB7v160006Ev, symObjAddr: 0x5AE4, symBinAddr: 0x100006E3C, symSize: 0x14 }
  - { offsetInCU: 0x19D56, offset: 0x19D56, size: 0x8, addend: 0x0, symName: __ZNSt3__123__libcpp_numeric_limitsIxLb1EE3maxB7v160006Ev, symObjAddr: 0x5AF8, symBinAddr: 0x100006E50, symSize: 0x8 }
  - { offsetInCU: 0x5156, offset: 0x1F036, size: 0x8, addend: 0x0, symName: __ZNSt3__125__debug_db_invalidate_allB7v160006INS_6vectorIbNS_9allocatorIbEEE16__destroy_vectorEEEvPT_, symObjAddr: 0x1164, symBinAddr: 0x100007FB0, symSize: 0x10 }
  - { offsetInCU: 0x78F2, offset: 0x217D2, size: 0x8, addend: 0x0, symName: __ZN15PlayerCharacterC2E6mypairIiEiiiic, symObjAddr: 0x0, symBinAddr: 0x100006E58, symSize: 0x90 }
  - { offsetInCU: 0x7972, offset: 0x21852, size: 0x8, addend: 0x0, symName: __ZN15PlayerCharacterC1E6mypairIiEiiiic, symObjAddr: 0x90, symBinAddr: 0x100006EE8, symSize: 0x5C }
  - { offsetInCU: 0x79F2, offset: 0x218D2, size: 0x8, addend: 0x0, symName: __ZN15PlayerCharacter17displayAttributesEv, symObjAddr: 0xEC, symBinAddr: 0x100006F44, symSize: 0xE0 }
  - { offsetInCU: 0x7A1A, offset: 0x218FA, size: 0x8, addend: 0x0, symName: __ZN15PlayerCharacter4moveERK9LevelGridi, symObjAddr: 0x1CC, symBinAddr: 0x100007024, symSize: 0x154 }
  - { offsetInCU: 0x7A5E, offset: 0x2193E, size: 0x8, addend: 0x0, symName: __ZN15PlayerCharacter6moveUpERK9LevelGrid, symObjAddr: 0x320, symBinAddr: 0x100007178, symSize: 0xC0 }
  - { offsetInCU: 0x7A94, offset: 0x21974, size: 0x8, addend: 0x0, symName: __ZN15PlayerCharacter9moveRightERK9LevelGrid, symObjAddr: 0x3E0, symBinAddr: 0x100007238, symSize: 0xC4 }
  - { offsetInCU: 0x7ACA, offset: 0x219AA, size: 0x8, addend: 0x0, symName: __ZN15PlayerCharacter8moveDownERK9LevelGrid, symObjAddr: 0x4A4, symBinAddr: 0x1000072FC, symSize: 0xC4 }
  - { offsetInCU: 0x7B00, offset: 0x219E0, size: 0x8, addend: 0x0, symName: __ZN15PlayerCharacter8moveLeftERK9LevelGrid, symObjAddr: 0x568, symBinAddr: 0x1000073C0, symSize: 0xC4 }
  - { offsetInCU: 0x7B36, offset: 0x21A16, size: 0x8, addend: 0x0, symName: __ZNKSt3__15arrayINS0_IiLm80EEELm40EEixB7v160006Em, symObjAddr: 0x62C, symBinAddr: 0x100007484, symSize: 0x28 }
  - { offsetInCU: 0x7B6A, offset: 0x21A4A, size: 0x8, addend: 0x0, symName: __ZNKSt3__15arrayIiLm80EEixB7v160006Em, symObjAddr: 0x654, symBinAddr: 0x1000074AC, symSize: 0x20 }
  - { offsetInCU: 0x7B9E, offset: 0x21A7E, size: 0x8, addend: 0x0, symName: __ZN15PlayerCharacter9detectHitER9LevelGrid, symObjAddr: 0x674, symBinAddr: 0x1000074CC, symSize: 0xF4 }
  - { offsetInCU: 0x7BE2, offset: 0x21AC2, size: 0x8, addend: 0x0, symName: __ZN15PlayerCharacter8resetPosERK9LevelGrid, symObjAddr: 0x768, symBinAddr: 0x1000075C0, symSize: 0x30 }
  - { offsetInCU: 0x7C18, offset: 0x21AF8, size: 0x8, addend: 0x0, symName: __ZN6mypairIiEaSERKS0_, symObjAddr: 0x798, symBinAddr: 0x1000075F0, symSize: 0x64 }
  - { offsetInCU: 0x7C4C, offset: 0x21B2C, size: 0x8, addend: 0x0, symName: __ZNK15PlayerCharacter6getPosEv, symObjAddr: 0x7FC, symBinAddr: 0x100007654, symSize: 0x20 }
  - { offsetInCU: 0x7C74, offset: 0x21B54, size: 0x8, addend: 0x0, symName: __ZN15PlayerCharacter12updateHealthEi, symObjAddr: 0x81C, symBinAddr: 0x100007674, symSize: 0x48 }
  - { offsetInCU: 0x7CAA, offset: 0x21B8A, size: 0x8, addend: 0x0, symName: __ZNK15PlayerCharacter7displayEP7_win_st, symObjAddr: 0x864, symBinAddr: 0x1000076BC, symSize: 0x150 }
  - { offsetInCU: 0x7CE0, offset: 0x21BC0, size: 0x8, addend: 0x0, symName: __ZN15PlayerCharacter18updateWallsTouchedERK9LevelGrid, symObjAddr: 0x9C4, symBinAddr: 0x10000781C, symSize: 0xFC }
  - { offsetInCU: 0x7D16, offset: 0x21BF6, size: 0x8, addend: 0x0, symName: __ZN15PlayerCharacter10checkWallsERK9LevelGridbbbb, symObjAddr: 0xAD0, symBinAddr: 0x100007928, symSize: 0x238 }
  - { offsetInCU: 0x7D84, offset: 0x21C64, size: 0x8, addend: 0x0, symName: __ZNSt3__16vectorIbNS_9allocatorIbEEEixB7v160006Em, symObjAddr: 0xD08, symBinAddr: 0x100007B60, symSize: 0x3C }
  - { offsetInCU: 0x7DB9, offset: 0x21C99, size: 0x8, addend: 0x0, symName: __ZNSt3__115__bit_referenceINS_6vectorIbNS_9allocatorIbEEEELb1EEaSB7v160006Eb, symObjAddr: 0xD44, symBinAddr: 0x100007B9C, symSize: 0x6C }
  - { offsetInCU: 0x7DED, offset: 0x21CCD, size: 0x8, addend: 0x0, symName: __ZNK15PlayerCharacter13goToNextLevelERK9LevelGrid, symObjAddr: 0xDB0, symBinAddr: 0x100007C08, symSize: 0xD4 }
  - { offsetInCU: 0x7E23, offset: 0x21D03, size: 0x8, addend: 0x0, symName: __ZNK15PlayerCharacter9getHealthEv, symObjAddr: 0xE84, symBinAddr: 0x100007CDC, symSize: 0x18 }
  - { offsetInCU: 0x7E4B, offset: 0x21D2B, size: 0x8, addend: 0x0, symName: __ZN15PlayerCharacterD1Ev, symObjAddr: 0xE9C, symBinAddr: 0x100007CF4, symSize: 0x2C }
  - { offsetInCU: 0x7E77, offset: 0x21D57, size: 0x8, addend: 0x0, symName: __ZN15PlayerCharacterD0Ev, symObjAddr: 0xEC8, symBinAddr: 0x100007D20, symSize: 0x30 }
  - { offsetInCU: 0x7EA3, offset: 0x21D83, size: 0x8, addend: 0x0, symName: __ZN15PlayerCharacterD2Ev, symObjAddr: 0xEF8, symBinAddr: 0x100007D50, symSize: 0x2C }
  - { offsetInCU: 0x7ECF, offset: 0x21DAF, size: 0x8, addend: 0x0, symName: __ZN12LivingEntityD2Ev, symObjAddr: 0xF24, symBinAddr: 0x100007D7C, symSize: 0x48 }
  - { offsetInCU: 0x7EFB, offset: 0x21DDB, size: 0x8, addend: 0x0, symName: __ZNSt3__16vectorIbNS_9allocatorIbEEED1B7v160006Ev, symObjAddr: 0xF6C, symBinAddr: 0x100007DC4, symSize: 0x2C }
  - { offsetInCU: 0x7F25, offset: 0x21E05, size: 0x8, addend: 0x0, symName: __ZN12LivingEntityD1Ev, symObjAddr: 0xF98, symBinAddr: 0x100007DF0, symSize: 0x14 }
  - { offsetInCU: 0x7F51, offset: 0x21E31, size: 0x8, addend: 0x0, symName: __ZN12LivingEntityD0Ev, symObjAddr: 0xFAC, symBinAddr: 0x100007E04, symSize: 0xC }
  - { offsetInCU: 0x7F7D, offset: 0x21E5D, size: 0x8, addend: 0x0, symName: __ZNSt3__16vectorIbNS_9allocatorIbEEED2B7v160006Ev, symObjAddr: 0xFB8, symBinAddr: 0x100007E10, symSize: 0x44 }
  - { offsetInCU: 0x7FA7, offset: 0x21E87, size: 0x8, addend: 0x0, symName: __ZNSt3__16vectorIbNS_9allocatorIbEEE16__destroy_vectorC1ERS3_, symObjAddr: 0xFFC, symBinAddr: 0x100007E54, symSize: 0x34 }
  - { offsetInCU: 0x7FE0, offset: 0x21EC0, size: 0x8, addend: 0x0, symName: __ZNSt3__16vectorIbNS_9allocatorIbEEE16__destroy_vectorclB7v160006Ev, symObjAddr: 0x103C, symBinAddr: 0x100007E88, symSize: 0x84 }
  - { offsetInCU: 0x8006, offset: 0x21EE6, size: 0x8, addend: 0x0, symName: __ZNSt3__16vectorIbNS_9allocatorIbEEE16__destroy_vectorC2ERS3_, symObjAddr: 0x10C0, symBinAddr: 0x100007F0C, symSize: 0x20 }
  - { offsetInCU: 0x803F, offset: 0x21F1F, size: 0x8, addend: 0x0, symName: __ZNSt3__116allocator_traitsINS_9allocatorImEEE10deallocateB7v160006ERS2_Pmm, symObjAddr: 0x10E0, symBinAddr: 0x100007F2C, symSize: 0x34 }
  - { offsetInCU: 0x8081, offset: 0x21F61, size: 0x8, addend: 0x0, symName: __ZNSt3__16vectorIbNS_9allocatorIbEEE7__allocB7v160006Ev, symObjAddr: 0x1114, symBinAddr: 0x100007F60, symSize: 0x28 }
  - { offsetInCU: 0x80A7, offset: 0x21F87, size: 0x8, addend: 0x0, symName: __ZNSt3__16vectorIbNS_9allocatorIbEEE5__capB7v160006Ev, symObjAddr: 0x113C, symBinAddr: 0x100007F88, symSize: 0x28 }
  - { offsetInCU: 0x80CD, offset: 0x21FAD, size: 0x8, addend: 0x0, symName: __ZNSt3__19allocatorImE10deallocateB7v160006EPmm, symObjAddr: 0x1174, symBinAddr: 0x100007FC0, symSize: 0x40 }
  - { offsetInCU: 0x810F, offset: 0x21FEF, size: 0x8, addend: 0x0, symName: __ZNSt3__117__compressed_pairImNS_9allocatorImEEE6secondB7v160006Ev, symObjAddr: 0x12DC, symBinAddr: 0x100008000, symSize: 0x24 }
  - { offsetInCU: 0x8135, offset: 0x22015, size: 0x8, addend: 0x0, symName: __ZNSt3__122__compressed_pair_elemINS_9allocatorImEELi1ELb1EE5__getB7v160006Ev, symObjAddr: 0x1300, symBinAddr: 0x100008024, symSize: 0x14 }
  - { offsetInCU: 0x815B, offset: 0x2203B, size: 0x8, addend: 0x0, symName: __ZNSt3__117__compressed_pairImNS_9allocatorImEEE5firstB7v160006Ev, symObjAddr: 0x1314, symBinAddr: 0x100008038, symSize: 0x24 }
  - { offsetInCU: 0x8181, offset: 0x22061, size: 0x8, addend: 0x0, symName: __ZNSt3__16vectorIbNS_9allocatorIbEEE10__make_refB7v160006Em, symObjAddr: 0x134C, symBinAddr: 0x10000805C, symSize: 0x60 }
  - { offsetInCU: 0x81B6, offset: 0x22096, size: 0x8, addend: 0x0, symName: __ZNSt3__115__bit_referenceINS_6vectorIbNS_9allocatorIbEEEELb1EEC1B7v160006EPmm, symObjAddr: 0x13AC, symBinAddr: 0x1000080BC, symSize: 0x3C }
  - { offsetInCU: 0x81FC, offset: 0x220DC, size: 0x8, addend: 0x0, symName: __ZNSt3__115__bit_referenceINS_6vectorIbNS_9allocatorIbEEEELb1EEC2B7v160006EPmm, symObjAddr: 0x13E8, symBinAddr: 0x1000080F8, symSize: 0x2C }
  - { offsetInCU: 0x7A, offset: 0x221CE, size: 0x8, addend: 0x0, symName: __ZNSt3__16chronomlB7v160006IxNS_5ratioILl1ELl1000EEEiEENS_9enable_ifIXsr14is_convertibleIT1_NS_11common_typeIJT_S5_EE4typeEEE5valueENS0_8durationIS9_T0_EEE4typeERKNSA_IS7_SB_EERKS5_, symObjAddr: 0x1B28, symBinAddr: 0x1000095D4, symSize: 0x58 }
  - { offsetInCU: 0x135, offset: 0x22289, size: 0x8, addend: 0x0, symName: __ZNSt3__16chronomiB7v160006IxNS_5ratioILl1ELl1000000000EEExS3_EENS_11common_typeIJNS0_8durationIT_T0_EENS5_IT1_T2_EEEE4typeERKS8_RKSB_, symObjAddr: 0x1C48, symBinAddr: 0x100009678, symSize: 0x70 }
  - { offsetInCU: 0x29E, offset: 0x223F2, size: 0x8, addend: 0x0, symName: __ZNSt3__16chronogeB7v160006IxNS_5ratioILl1ELl1000EEExS3_EEbRKNS0_8durationIT_T0_EERKNS4_IT1_T2_EE, symObjAddr: 0x410, symBinAddr: 0x1000084B0, symSize: 0x34 }
  - { offsetInCU: 0x2FF, offset: 0x22453, size: 0x8, addend: 0x0, symName: __ZNSt3__16chronomlB7v160006IiNS_5ratioILl1ELl1000EEExEENS_9enable_ifIXsr14is_convertibleIT_NS_11common_typeIJS5_T1_EE4typeEEE5valueENS0_8durationIS9_T0_EEE4typeERKS5_RKNSA_IS7_SB_EE, symObjAddr: 0x444, symBinAddr: 0x1000084E4, symSize: 0x34 }
  - { offsetInCU: 0x357, offset: 0x224AB, size: 0x8, addend: 0x0, symName: __ZNSt3__16chrono13duration_castB7v160006INS0_8durationIxNS_5ratioILl1ELl1000EEEEExNS3_ILl1ELl1000000000EEEEENS_9enable_ifIXsr13__is_durationIT_EE5valueES8_E4typeERKNS2_IT0_T1_EE, symObjAddr: 0x478, symBinAddr: 0x100008518, symSize: 0x30 }
  - { offsetInCU: 0x39E, offset: 0x224F2, size: 0x8, addend: 0x0, symName: __ZNSt3__16chronomiB7v160006INS0_12steady_clockENS0_8durationIxNS_5ratioILl1ELl1000000000EEEEES6_EENS_11common_typeIJT0_T1_EE4typeERKNS0_10time_pointIT_S8_EERKNSC_ISD_S9_EE, symObjAddr: 0x4A8, symBinAddr: 0x100008548, symSize: 0x58 }
  - { offsetInCU: 0x55E0, offset: 0x27734, size: 0x8, addend: 0x0, symName: __ZNKSt3__16chrono15__duration_castINS0_8durationIxNS_5ratioILl1ELl1000000000EEEEENS2_IxNS3_ILl1ELl1000EEEEENS3_ILl1ELl1000000EEELb1ELb0EEclB7v160006ERKS5_, symObjAddr: 0x1BE4, symBinAddr: 0x10000962C, symSize: 0x4C }
  - { offsetInCU: 0x7CC7, offset: 0x29E1B, size: 0x8, addend: 0x0, symName: __ZN5EnemyC2E6mypairIiEiS1_iib, symObjAddr: 0x0, symBinAddr: 0x100008124, symSize: 0xEC }
  - { offsetInCU: 0x7D4C, offset: 0x29EA0, size: 0x8, addend: 0x0, symName: __ZN5EnemyC1E6mypairIiEiS1_iib, symObjAddr: 0x170, symBinAddr: 0x100008210, symSize: 0x68 }
  - { offsetInCU: 0x7DCC, offset: 0x29F20, size: 0x8, addend: 0x0, symName: __ZN5Enemy17displayAttributesEv, symObjAddr: 0x1D8, symBinAddr: 0x100008278, symSize: 0xB8 }
  - { offsetInCU: 0x7DF4, offset: 0x29F48, size: 0x8, addend: 0x0, symName: __ZNK5Enemy7displayEP7_win_st, symObjAddr: 0x290, symBinAddr: 0x100008330, symSize: 0xB0 }
  - { offsetInCU: 0x7E2A, offset: 0x29F7E, size: 0x8, addend: 0x0, symName: __ZN5Enemy11readyToMoveENSt3__16chrono10time_pointINS1_12steady_clockENS1_8durationIxNS0_5ratioILl1ELl1000000000EEEEEEE, symObjAddr: 0x350, symBinAddr: 0x1000083F0, symSize: 0xC0 }
  - { offsetInCU: 0x7E60, offset: 0x29FB4, size: 0x8, addend: 0x0, symName: __ZN5Enemy18updateWallsTouchedERK9LevelGrid, symObjAddr: 0x500, symBinAddr: 0x1000085A0, symSize: 0x2A4 }
  - { offsetInCU: 0x7E96, offset: 0x29FEA, size: 0x8, addend: 0x0, symName: __ZN5Enemy8movementERK15PlayerCharacterRK9LevelGrid, symObjAddr: 0x894, symBinAddr: 0x100008844, symSize: 0x74 }
  - { offsetInCU: 0x7EDA, offset: 0x2A02E, size: 0x8, addend: 0x0, symName: __ZN5Enemy11detectAggroERK15PlayerCharacterRK9LevelGrid, symObjAddr: 0x908, symBinAddr: 0x1000088B8, symSize: 0x758 }
  - { offsetInCU: 0x8011, offset: 0x2A165, size: 0x8, addend: 0x0, symName: __ZN5Enemy13aggroMovementERK15PlayerCharacterRK9LevelGrid, symObjAddr: 0x1070, symBinAddr: 0x100009020, symSize: 0x150 }
  - { offsetInCU: 0x8063, offset: 0x2A1B7, size: 0x8, addend: 0x0, symName: __ZN5Enemy16nonAggroMovementERK9LevelGrid, symObjAddr: 0x11C0, symBinAddr: 0x100009170, symSize: 0x74 }
  - { offsetInCU: 0x8099, offset: 0x2A1ED, size: 0x8, addend: 0x0, symName: __ZN5Enemy4moveEv, symObjAddr: 0x1234, symBinAddr: 0x1000091E4, symSize: 0x104 }
  - { offsetInCU: 0x80C1, offset: 0x2A215, size: 0x8, addend: 0x0, symName: __ZNKSt3__115__bit_referenceINS_6vectorIbNS_9allocatorIbEEEELb1EEcvbB7v160006Ev, symObjAddr: 0x1348, symBinAddr: 0x1000092F8, symSize: 0x2C }
  - { offsetInCU: 0x80E7, offset: 0x2A23B, size: 0x8, addend: 0x0, symName: __ZNK5Enemy9detectHitERK15PlayerCharacter, symObjAddr: 0x1374, symBinAddr: 0x100009324, symSize: 0x80 }
  - { offsetInCU: 0x811D, offset: 0x2A271, size: 0x8, addend: 0x0, symName: __ZNK6mypairIiEeqERKS0_, symObjAddr: 0x13F4, symBinAddr: 0x1000093A4, symSize: 0x88 }
  - { offsetInCU: 0x8151, offset: 0x2A2A5, size: 0x8, addend: 0x0, symName: __ZNK6mypairIiEmiERKS0_, symObjAddr: 0x147C, symBinAddr: 0x10000942C, symSize: 0x50 }
  - { offsetInCU: 0x8185, offset: 0x2A2D9, size: 0x8, addend: 0x0, symName: __ZN6mypairIiEC1Eii, symObjAddr: 0x14CC, symBinAddr: 0x10000947C, symSize: 0x3C }
  - { offsetInCU: 0x81CB, offset: 0x2A31F, size: 0x8, addend: 0x0, symName: __ZNK5Enemy9getDamageEv, symObjAddr: 0x1508, symBinAddr: 0x1000094B8, symSize: 0x18 }
  - { offsetInCU: 0x81F4, offset: 0x2A348, size: 0x8, addend: 0x0, symName: __ZNK5Enemy6getPosEv, symObjAddr: 0x1520, symBinAddr: 0x1000094D0, symSize: 0x20 }
  - { offsetInCU: 0x821D, offset: 0x2A371, size: 0x8, addend: 0x0, symName: __ZN5Enemy10resetEnemyENSt3__14pairI6mypairIiEiEE, symObjAddr: 0x1540, symBinAddr: 0x1000094F0, symSize: 0x88 }
  - { offsetInCU: 0x8255, offset: 0x2A3A9, size: 0x8, addend: 0x0, symName: __ZN5EnemyD1Ev, symObjAddr: 0x162C, symBinAddr: 0x100009578, symSize: 0x2C }
  - { offsetInCU: 0x8281, offset: 0x2A3D5, size: 0x8, addend: 0x0, symName: __ZN5EnemyD0Ev, symObjAddr: 0x1658, symBinAddr: 0x1000095A4, symSize: 0x30 }
  - { offsetInCU: 0x82AD, offset: 0x2A401, size: 0x8, addend: 0x0, symName: __ZNKSt3__16chrono10time_pointINS0_12steady_clockENS0_8durationIxNS_5ratioILl1ELl1000000000EEEEEE16time_since_epochB7v160006Ev, symObjAddr: 0x1CB8, symBinAddr: 0x1000096E8, symSize: 0x20 }
  - { offsetInCU: 0x82D3, offset: 0x2A427, size: 0x8, addend: 0x0, symName: __ZN5EnemyD2Ev, symObjAddr: 0x1D3C, symBinAddr: 0x100009708, symSize: 0x2C }
  - { offsetInCU: 0x82FF, offset: 0x2A453, size: 0x8, addend: 0x0, symName: __ZN6mypairIiEC2Eii, symObjAddr: 0x1E30, symBinAddr: 0x100009734, symSize: 0x2C }
  - { offsetInCU: 0x79DD, offset: 0x31E9E, size: 0x8, addend: 0x0, symName: __ZN4GameC2ENSt3__16vectorINS0_10shared_ptrI9LevelGridEENS0_9allocatorIS4_EEEER15PlayerCharacterP7_win_stbbi, symObjAddr: 0x0, symBinAddr: 0x100009760, symSize: 0x88 }
  - { offsetInCU: 0x7A5E, offset: 0x31F1F, size: 0x8, addend: 0x0, symName: __ZN4GameC1ENSt3__16vectorINS0_10shared_ptrI9LevelGridEENS0_9allocatorIS4_EEEER15PlayerCharacterP7_win_stbbi, symObjAddr: 0xBC, symBinAddr: 0x1000097E8, symSize: 0x70 }
  - { offsetInCU: 0x7ADF, offset: 0x31FA0, size: 0x8, addend: 0x0, symName: __ZN4Game10updateGameEv, symObjAddr: 0x12C, symBinAddr: 0x100009858, symSize: 0x198 }
  - { offsetInCU: 0x7B16, offset: 0x31FD7, size: 0x8, addend: 0x0, symName: __ZNSt3__16vectorINS_10shared_ptrI9LevelGridEENS_9allocatorIS3_EEEixB7v160006Em, symObjAddr: 0x2C4, symBinAddr: 0x1000099F0, symSize: 0x24 }
  - { offsetInCU: 0x7B4D, offset: 0x3200E, size: 0x8, addend: 0x0, symName: __ZNKSt3__110shared_ptrI9LevelGridEdeB7v160006Ev, symObjAddr: 0x2E8, symBinAddr: 0x100009A14, symSize: 0x18 }
  - { offsetInCU: 0x7B73, offset: 0x32034, size: 0x8, addend: 0x0, symName: __ZNKSt3__110shared_ptrI9LevelGridEptB7v160006Ev, symObjAddr: 0x300, symBinAddr: 0x100009A2C, symSize: 0x18 }
  - { offsetInCU: 0x7B98, offset: 0x32059, size: 0x8, addend: 0x0, symName: __ZN4Game10renderGameEv, symObjAddr: 0x318, symBinAddr: 0x100009A44, symSize: 0x124 }
  - { offsetInCU: 0x7BC0, offset: 0x32081, size: 0x8, addend: 0x0, symName: __ZN4Game11clearWindowEv, symObjAddr: 0x43C, symBinAddr: 0x100009B68, symSize: 0x38 }
  - { offsetInCU: 0x7BE8, offset: 0x320A9, size: 0x8, addend: 0x0, symName: __ZN4Game16initialisePlayerEv, symObjAddr: 0x474, symBinAddr: 0x100009BA0, symSize: 0x44 }
  - { offsetInCU: 0x82, offset: 0x32180, size: 0x8, addend: 0x0, symName: __ZNSt3__1L19piecewise_constructE, symObjAddr: 0x1BFED, symBinAddr: 0x100026747, symSize: 0x0 }
  - { offsetInCU: 0xD432, offset: 0x3F530, size: 0x8, addend: 0x0, symName: __ZNSt3__17advanceB7v160006INS_21__tree_const_iteratorINS_12__value_typeINS_10shared_ptrI6ButtonEENS3_I19HorizontalSlideDoorEEEEPNS_11__tree_nodeIS8_PvEElEEllvEEvRT_T0_, symObjAddr: 0x105E8, symBinAddr: 0x100018FB4, symSize: 0x50 }
  - { offsetInCU: 0x159F0, offset: 0x47AEE, size: 0x8, addend: 0x0, symName: __ZNSt3__111make_sharedB7v160006I5EnemyJS1_EvEENS_10shared_ptrIT_EEDpOT0_, symObjAddr: 0x2A3C, symBinAddr: 0x10000C5E4, symSize: 0x40 }
  - { offsetInCU: 0x15A33, offset: 0x47B31, size: 0x8, addend: 0x0, symName: __ZNSt3__111make_sharedB7v160006I6ButtonJ6mypairIiEbbEvEENS_10shared_ptrIT_EEDpOT0_, symObjAddr: 0x2B58, symBinAddr: 0x10000C6D4, symSize: 0x50 }
  - { offsetInCU: 0x15A9E, offset: 0x47B9C, size: 0x8, addend: 0x0, symName: __ZNSt3__111make_sharedB7v160006I19HorizontalSlideDoorJ6mypairIiES3_EvEENS_10shared_ptrIT_EEDpOT0_, symObjAddr: 0x2BA8, symBinAddr: 0x10000C724, symSize: 0x48 }
  - { offsetInCU: 0x15AF5, offset: 0x47BF3, size: 0x8, addend: 0x0, symName: __ZNSt3__111make_sharedB7v160006I9LevelGridJS1_EvEENS_10shared_ptrIT_EEDpOT0_, symObjAddr: 0x2D2C, symBinAddr: 0x10000C8A8, symSize: 0x40 }
  - { offsetInCU: 0x15B38, offset: 0x47C36, size: 0x8, addend: 0x0, symName: __ZNSt3__111make_sharedB7v160006I8MainMenuJS1_EvEENS_10shared_ptrIT_EEDpOT0_, symObjAddr: 0x30F4, symBinAddr: 0x10000CBA8, symSize: 0x40 }
  - { offsetInCU: 0x15B7B, offset: 0x47C79, size: 0x8, addend: 0x0, symName: __ZNSt3__111make_sharedB7v160006I9PauseMenuJS1_EvEENS_10shared_ptrIT_EEDpOT0_, symObjAddr: 0x3248, symBinAddr: 0x10000CCFC, symSize: 0x40 }
  - { offsetInCU: 0x15BBE, offset: 0x47CBC, size: 0x8, addend: 0x0, symName: __ZNSt3__111make_sharedB7v160006I8InfoMenuJS1_EvEENS_10shared_ptrIT_EEDpOT0_, symObjAddr: 0x32B4, symBinAddr: 0x10000CD68, symSize: 0x40 }
  - { offsetInCU: 0x15C01, offset: 0x47CFF, size: 0x8, addend: 0x0, symName: __ZNSt3__111make_sharedB7v160006I9DeathMenuJS1_EvEENS_10shared_ptrIT_EEDpOT0_, symObjAddr: 0x3320, symBinAddr: 0x10000CDD4, symSize: 0x40 }
  - { offsetInCU: 0x164B4, offset: 0x485B2, size: 0x8, addend: 0x0, symName: __ZNSt3__119__debug_db_insert_cB7v160006INS_6vectorINS_4pairI6mypairIiEiEENS_9allocatorIS5_EEEEEEvPT_, symObjAddr: 0x3F30, symBinAddr: 0x10000D41C, symSize: 0x10 }
  - { offsetInCU: 0x164E5, offset: 0x485E3, size: 0x8, addend: 0x0, symName: __ZNSt3__118__debug_db_erase_cB7v160006INS_6vectorINS_4pairI6mypairIiEiEENS_9allocatorIS5_EEEEEEvPT_, symObjAddr: 0x4210, symBinAddr: 0x10000D6FC, symSize: 0x10 }
  - { offsetInCU: 0x16516, offset: 0x48614, size: 0x8, addend: 0x0, symName: __ZNSt3__112__to_addressB7v160006INS_4pairI6mypairIiEiEEEEPT_S6_, symObjAddr: 0x4354, symBinAddr: 0x10000D840, symSize: 0x14 }
  - { offsetInCU: 0x1654B, offset: 0x48649, size: 0x8, addend: 0x0, symName: __ZNSt3__13maxB7v160006ImEERKT_S3_S3_, symObjAddr: 0x4AC8, symBinAddr: 0x10000DFB4, symSize: 0x2C }
  - { offsetInCU: 0x1658E, offset: 0x4868C, size: 0x8, addend: 0x0, symName: __ZNSt3__13maxB7v160006ImNS_6__lessImmEEEERKT_S5_S5_T0_, symObjAddr: 0x4D44, symBinAddr: 0x10000E07C, symSize: 0x54 }
  - { offsetInCU: 0x165E8, offset: 0x486E6, size: 0x8, addend: 0x0, symName: __ZNSt3__119__allocate_at_leastB7v160006INS_9allocatorINS_4pairI6mypairIiEiEEEEEENS_19__allocation_resultINS_16allocator_traitsIT_E7pointerEEERS9_m, symObjAddr: 0x4EB4, symBinAddr: 0x10000E1EC, symSize: 0x40 }
  - { offsetInCU: 0x1662B, offset: 0x48729, size: 0x8, addend: 0x0, symName: __ZNSt3__142__uninitialized_allocator_move_if_noexceptB7v160006INS_9allocatorINS_4pairI6mypairIiEiEEEENS_16reverse_iteratorIPS5_EES9_S9_EET2_RT_T0_T1_SA_, symObjAddr: 0x5150, symBinAddr: 0x10000E3A4, symSize: 0x12C }
  - { offsetInCU: 0x166CB, offset: 0x487C9, size: 0x8, addend: 0x0, symName: __ZNSt3__14swapB7v160006IPNS_4pairI6mypairIiEiEEEENS_9enable_ifIXaasr21is_move_constructibleIT_EE5valuesr18is_move_assignableIS7_EE5valueEvE4typeERS7_SA_, symObjAddr: 0x52C8, symBinAddr: 0x10000E51C, symSize: 0x3C }
  - { offsetInCU: 0x1671C, offset: 0x4881A, size: 0x8, addend: 0x0, symName: __ZNSt3__125__debug_db_invalidate_allB7v160006INS_6vectorINS_4pairI6mypairIiEiEENS_9allocatorIS5_EEEEEEvPT_, symObjAddr: 0x53CC, symBinAddr: 0x10000E620, symSize: 0x10 }
  - { offsetInCU: 0x1674D, offset: 0x4884B, size: 0x8, addend: 0x0, symName: __ZNSt3__122__make_exception_guardB7v160006INS_29_AllocatorDestroyRangeReverseINS_9allocatorINS_4pairI6mypairIiEiEEEENS_16reverse_iteratorIPS6_EEEEEENS_28__exception_guard_exceptionsIT_EESD_, symObjAddr: 0x53DC, symBinAddr: 0x10000E630, symSize: 0x4C }
  - { offsetInCU: 0x16783, offset: 0x48881, size: 0x8, addend: 0x0, symName: __ZNSt3__1neB7v160006IPNS_4pairI6mypairIiEiEES5_EEbRKNS_16reverse_iteratorIT_EERKNS6_IT0_EE, symObjAddr: 0x546C, symBinAddr: 0x10000E6C0, symSize: 0x48 }
  - { offsetInCU: 0x167CF, offset: 0x488CD, size: 0x8, addend: 0x0, symName: __ZNSt3__112__to_addressB7v160006INS_16reverse_iteratorIPNS_4pairI6mypairIiEiEEEEvEENS_5decayIDTclsr19__to_address_helperIT_EE6__callclsr3stdE7declvalIRKS9_EEEEE4typeESB_, symObjAddr: 0x54B4, symBinAddr: 0x10000E708, symSize: 0x24 }
  - { offsetInCU: 0x1682E, offset: 0x4892C, size: 0x8, addend: 0x0, symName: __ZNSt3__119__allocator_destroyB7v160006INS_9allocatorINS_4pairI6mypairIiEiEEEENS_16reverse_iteratorINS7_IPS5_EEEESA_EEvRT_T0_T1_, symObjAddr: 0x5764, symBinAddr: 0x10000E9B8, symSize: 0x70 }
  - { offsetInCU: 0x16893, offset: 0x48991, size: 0x8, addend: 0x0, symName: __ZNSt3__1neB7v160006INS_16reverse_iteratorIPNS_4pairI6mypairIiEiEEEES7_EEbRKNS1_IT_EERKNS1_IT0_EE, symObjAddr: 0x5810, symBinAddr: 0x10000EA64, symSize: 0x60 }
  - { offsetInCU: 0x168DF, offset: 0x489DD, size: 0x8, addend: 0x0, symName: __ZNSt3__112__to_addressB7v160006INS_16reverse_iteratorINS1_IPNS_4pairI6mypairIiEiEEEEEEvEENS_5decayIDTclsr19__to_address_helperIT_EE6__callclsr3stdE7declvalIRKSA_EEEEE4typeESC_, symObjAddr: 0x5870, symBinAddr: 0x10000EAC4, symSize: 0x24 }
  - { offsetInCU: 0x1693E, offset: 0x48A3C, size: 0x8, addend: 0x0, symName: __ZNSt3__119__debug_db_insert_cB7v160006INS_6vectorINS_10shared_ptrI5EnemyEENS_9allocatorIS4_EEEEEEvPT_, symObjAddr: 0x5C6C, symBinAddr: 0x10000EEC0, symSize: 0x10 }
  - { offsetInCU: 0x1696F, offset: 0x48A6D, size: 0x8, addend: 0x0, symName: __ZNSt3__118__debug_db_erase_cB7v160006INS_6vectorINS_10shared_ptrI5EnemyEENS_9allocatorIS4_EEEEEEvPT_, symObjAddr: 0x5F30, symBinAddr: 0x10000F184, symSize: 0x10 }
  - { offsetInCU: 0x169A0, offset: 0x48A9E, size: 0x8, addend: 0x0, symName: __ZNSt3__112__to_addressB7v160006INS_10shared_ptrI5EnemyEEEEPT_S5_, symObjAddr: 0x6074, symBinAddr: 0x10000F2C8, symSize: 0x14 }
  - { offsetInCU: 0x169D5, offset: 0x48AD3, size: 0x8, addend: 0x0, symName: __ZNSt3__115allocate_sharedB7v160006I5EnemyNS_9allocatorIS1_EEJS1_EvEENS_10shared_ptrIT_EERKT0_DpOT1_, symObjAddr: 0x6240, symBinAddr: 0x10000F494, symSize: 0x98 }
  - { offsetInCU: 0x16D16, offset: 0x48E14, size: 0x8, addend: 0x0, symName: __ZNSt3__119__allocate_at_leastB7v160006INS_9allocatorINS_10shared_ptrI5EnemyEEEEEENS_19__allocation_resultINS_16allocator_traitsIT_E7pointerEEERS8_m, symObjAddr: 0x7660, symBinAddr: 0x1000107CC, symSize: 0x40 }
  - { offsetInCU: 0x16D59, offset: 0x48E57, size: 0x8, addend: 0x0, symName: __ZNSt3__142__uninitialized_allocator_move_if_noexceptB7v160006INS_9allocatorINS_10shared_ptrI5EnemyEEEENS_16reverse_iteratorIPS4_EES8_S8_EET2_RT_T0_T1_S9_, symObjAddr: 0x7814, symBinAddr: 0x100010980, symSize: 0x12C }
  - { offsetInCU: 0x16DF9, offset: 0x48EF7, size: 0x8, addend: 0x0, symName: __ZNSt3__14swapB7v160006IPNS_10shared_ptrI5EnemyEEEENS_9enable_ifIXaasr21is_move_constructibleIT_EE5valuesr18is_move_assignableIS6_EE5valueEvE4typeERS6_S9_, symObjAddr: 0x798C, symBinAddr: 0x100010AF8, symSize: 0x3C }
  - { offsetInCU: 0x16E4A, offset: 0x48F48, size: 0x8, addend: 0x0, symName: __ZNSt3__125__debug_db_invalidate_allB7v160006INS_6vectorINS_10shared_ptrI5EnemyEENS_9allocatorIS4_EEEEEEvPT_, symObjAddr: 0x7A74, symBinAddr: 0x100010BE0, symSize: 0x10 }
  - { offsetInCU: 0x16E7B, offset: 0x48F79, size: 0x8, addend: 0x0, symName: __ZNSt3__122__make_exception_guardB7v160006INS_29_AllocatorDestroyRangeReverseINS_9allocatorINS_10shared_ptrI5EnemyEEEENS_16reverse_iteratorIPS5_EEEEEENS_28__exception_guard_exceptionsIT_EESC_, symObjAddr: 0x7A84, symBinAddr: 0x100010BF0, symSize: 0x4C }
  - { offsetInCU: 0x16EB1, offset: 0x48FAF, size: 0x8, addend: 0x0, symName: __ZNSt3__1neB7v160006IPNS_10shared_ptrI5EnemyEES4_EEbRKNS_16reverse_iteratorIT_EERKNS5_IT0_EE, symObjAddr: 0x7B14, symBinAddr: 0x100010C80, symSize: 0x48 }
  - { offsetInCU: 0x16EFD, offset: 0x48FFB, size: 0x8, addend: 0x0, symName: __ZNSt3__112__to_addressB7v160006INS_16reverse_iteratorIPNS_10shared_ptrI5EnemyEEEEvEENS_5decayIDTclsr19__to_address_helperIT_EE6__callclsr3stdE7declvalIRKS8_EEEEE4typeESA_, symObjAddr: 0x7B5C, symBinAddr: 0x100010CC8, symSize: 0x24 }
  - { offsetInCU: 0x16F5C, offset: 0x4905A, size: 0x8, addend: 0x0, symName: __ZNSt3__119__allocator_destroyB7v160006INS_9allocatorINS_10shared_ptrI5EnemyEEEENS_16reverse_iteratorINS6_IPS4_EEEES9_EEvRT_T0_T1_, symObjAddr: 0x7E0C, symBinAddr: 0x100010F78, symSize: 0x70 }
  - { offsetInCU: 0x16FC1, offset: 0x490BF, size: 0x8, addend: 0x0, symName: __ZNSt3__1neB7v160006INS_16reverse_iteratorIPNS_10shared_ptrI5EnemyEEEES6_EEbRKNS1_IT_EERKNS1_IT0_EE, symObjAddr: 0x7EB8, symBinAddr: 0x100011024, symSize: 0x60 }
  - { offsetInCU: 0x1700D, offset: 0x4910B, size: 0x8, addend: 0x0, symName: __ZNSt3__112__to_addressB7v160006INS_16reverse_iteratorINS1_IPNS_10shared_ptrI5EnemyEEEEEEvEENS_5decayIDTclsr19__to_address_helperIT_EE6__callclsr3stdE7declvalIRKS9_EEEEE4typeESB_, symObjAddr: 0x7F18, symBinAddr: 0x100011084, symSize: 0x24 }
  - { offsetInCU: 0x1706C, offset: 0x4916A, size: 0x8, addend: 0x0, symName: __ZNSt3__119__debug_db_insert_cB7v160006INS_6vectorINS_10shared_ptrI6ButtonEENS_9allocatorIS4_EEEEEEvPT_, symObjAddr: 0x8314, symBinAddr: 0x100011480, symSize: 0x10 }
  - { offsetInCU: 0x1709D, offset: 0x4919B, size: 0x8, addend: 0x0, symName: __ZNSt3__118__debug_db_erase_cB7v160006INS_6vectorINS_10shared_ptrI6ButtonEENS_9allocatorIS4_EEEEEEvPT_, symObjAddr: 0x85D8, symBinAddr: 0x100011744, symSize: 0x10 }
  - { offsetInCU: 0x170CE, offset: 0x491CC, size: 0x8, addend: 0x0, symName: __ZNSt3__112__to_addressB7v160006INS_10shared_ptrI6ButtonEEEEPT_S5_, symObjAddr: 0x871C, symBinAddr: 0x100011888, symSize: 0x14 }
  - { offsetInCU: 0x17103, offset: 0x49201, size: 0x8, addend: 0x0, symName: __ZNSt3__17launderB7v160006INS_4pairIKNS_10shared_ptrI6ButtonEENS2_I19HorizontalSlideDoorEEEEEEPT_SA_, symObjAddr: 0x8F68, symBinAddr: 0x100012044, symSize: 0x24 }
  - { offsetInCU: 0x1713A, offset: 0x49238, size: 0x8, addend: 0x0, symName: __ZNSt3__19__launderB7v160006INS_4pairIKNS_10shared_ptrI6ButtonEENS2_I19HorizontalSlideDoorEEEEEEPT_SA_, symObjAddr: 0x8F8C, symBinAddr: 0x100012068, symSize: 0x14 }
  - { offsetInCU: 0x17171, offset: 0x4926F, size: 0x8, addend: 0x0, symName: __ZNSt3__115allocate_sharedB7v160006I6ButtonNS_9allocatorIS1_EEJ6mypairIiEbbEvEENS_10shared_ptrIT_EERKT0_DpOT1_, symObjAddr: 0x9044, symBinAddr: 0x10001210C, symSize: 0xA8 }
  - { offsetInCU: 0x174DB, offset: 0x495D9, size: 0x8, addend: 0x0, symName: __ZNSt3__115allocate_sharedB7v160006I19HorizontalSlideDoorNS_9allocatorIS1_EEJ6mypairIiES5_EvEENS_10shared_ptrIT_EERKT0_DpOT1_, symObjAddr: 0x99B0, symBinAddr: 0x100012A78, symSize: 0xA0 }
  - { offsetInCU: 0x17830, offset: 0x4992E, size: 0x8, addend: 0x0, symName: __ZNSt3__119__allocate_at_leastB7v160006INS_9allocatorINS_10shared_ptrI6ButtonEEEEEENS_19__allocation_resultINS_16allocator_traitsIT_E7pointerEEERS8_m, symObjAddr: 0xAB78, symBinAddr: 0x100013BC4, symSize: 0x40 }
  - { offsetInCU: 0x17873, offset: 0x49971, size: 0x8, addend: 0x0, symName: __ZNSt3__142__uninitialized_allocator_move_if_noexceptB7v160006INS_9allocatorINS_10shared_ptrI6ButtonEEEENS_16reverse_iteratorIPS4_EES8_S8_EET2_RT_T0_T1_S9_, symObjAddr: 0xAD2C, symBinAddr: 0x100013D78, symSize: 0x12C }
  - { offsetInCU: 0x17913, offset: 0x49A11, size: 0x8, addend: 0x0, symName: __ZNSt3__14swapB7v160006IPNS_10shared_ptrI6ButtonEEEENS_9enable_ifIXaasr21is_move_constructibleIT_EE5valuesr18is_move_assignableIS6_EE5valueEvE4typeERS6_S9_, symObjAddr: 0xAEA4, symBinAddr: 0x100013EF0, symSize: 0x3C }
  - { offsetInCU: 0x17964, offset: 0x49A62, size: 0x8, addend: 0x0, symName: __ZNSt3__125__debug_db_invalidate_allB7v160006INS_6vectorINS_10shared_ptrI6ButtonEENS_9allocatorIS4_EEEEEEvPT_, symObjAddr: 0xAF8C, symBinAddr: 0x100013FD8, symSize: 0x10 }
  - { offsetInCU: 0x17995, offset: 0x49A93, size: 0x8, addend: 0x0, symName: __ZNSt3__122__make_exception_guardB7v160006INS_29_AllocatorDestroyRangeReverseINS_9allocatorINS_10shared_ptrI6ButtonEEEENS_16reverse_iteratorIPS5_EEEEEENS_28__exception_guard_exceptionsIT_EESC_, symObjAddr: 0xAF9C, symBinAddr: 0x100013FE8, symSize: 0x4C }
  - { offsetInCU: 0x179CB, offset: 0x49AC9, size: 0x8, addend: 0x0, symName: __ZNSt3__1neB7v160006IPNS_10shared_ptrI6ButtonEES4_EEbRKNS_16reverse_iteratorIT_EERKNS5_IT0_EE, symObjAddr: 0xB02C, symBinAddr: 0x100014078, symSize: 0x48 }
  - { offsetInCU: 0x17A17, offset: 0x49B15, size: 0x8, addend: 0x0, symName: __ZNSt3__112__to_addressB7v160006INS_16reverse_iteratorIPNS_10shared_ptrI6ButtonEEEEvEENS_5decayIDTclsr19__to_address_helperIT_EE6__callclsr3stdE7declvalIRKS8_EEEEE4typeESA_, symObjAddr: 0xB0A8, symBinAddr: 0x1000140F4, symSize: 0x24 }
  - { offsetInCU: 0x17A76, offset: 0x49B74, size: 0x8, addend: 0x0, symName: __ZNSt3__119__allocator_destroyB7v160006INS_9allocatorINS_10shared_ptrI6ButtonEEEENS_16reverse_iteratorINS6_IPS4_EEEES9_EEvRT_T0_T1_, symObjAddr: 0xB3FC, symBinAddr: 0x100014448, symSize: 0x70 }
  - { offsetInCU: 0x17ADB, offset: 0x49BD9, size: 0x8, addend: 0x0, symName: __ZNSt3__1neB7v160006INS_16reverse_iteratorIPNS_10shared_ptrI6ButtonEEEES6_EEbRKNS1_IT_EERKNS1_IT0_EE, symObjAddr: 0xB4A8, symBinAddr: 0x1000144F4, symSize: 0x60 }
  - { offsetInCU: 0x17B27, offset: 0x49C25, size: 0x8, addend: 0x0, symName: __ZNSt3__112__to_addressB7v160006INS_16reverse_iteratorINS1_IPNS_10shared_ptrI6ButtonEEEEEEvEENS_5decayIDTclsr19__to_address_helperIT_EE6__callclsr3stdE7declvalIRKS9_EEEEE4typeESB_, symObjAddr: 0xB508, symBinAddr: 0x100014554, symSize: 0x24 }
  - { offsetInCU: 0x17B86, offset: 0x49C84, size: 0x8, addend: 0x0, symName: __ZNSt3__116forward_as_tupleB7v160006IJRKNS_10shared_ptrI6ButtonEEEEENS_5tupleIJDpOT_EEES9_, symObjAddr: 0xB970, symBinAddr: 0x1000149BC, symSize: 0x2C }
  - { offsetInCU: 0x17BBF, offset: 0x49CBD, size: 0x8, addend: 0x0, symName: __ZNSt3__1ltB7v160006I6ButtonS1_EEbRKNS_10shared_ptrIT_EERKNS2_IT0_EE, symObjAddr: 0xBFB8, symBinAddr: 0x100015000, symSize: 0x54 }
  - { offsetInCU: 0x17C50, offset: 0x49D4E, size: 0x8, addend: 0x0, symName: __ZNSt3__17launderB7v160006IKNS_4pairIKNS_10shared_ptrI6ButtonEENS2_I19HorizontalSlideDoorEEEEEEPT_SB_, symObjAddr: 0xC058, symBinAddr: 0x1000150A0, symSize: 0x24 }
  - { offsetInCU: 0x17C87, offset: 0x49D85, size: 0x8, addend: 0x0, symName: __ZNSt3__19__launderB7v160006IKNS_4pairIKNS_10shared_ptrI6ButtonEENS2_I19HorizontalSlideDoorEEEEEEPT_SB_, symObjAddr: 0xC07C, symBinAddr: 0x1000150C4, symSize: 0x14 }
  - { offsetInCU: 0x17CDC, offset: 0x49DDA, size: 0x8, addend: 0x0, symName: __ZNSt3__13getB7v160006ILm0EJRKNS_10shared_ptrI6ButtonEEEEERNS_13tuple_elementIXT_ENS_5tupleIJDpT0_EEEE4typeERSA_, symObjAddr: 0xC4C0, symBinAddr: 0x100015508, symSize: 0x24 }
  - { offsetInCU: 0x17D67, offset: 0x49E65, size: 0x8, addend: 0x0, symName: __ZNSt3__14swapB7v160006IP19HorizontalSlideDoorEENS_9enable_ifIXaasr21is_move_constructibleIT_EE5valuesr18is_move_assignableIS4_EE5valueEvE4typeERS4_S7_, symObjAddr: 0xCEC0, symBinAddr: 0x1000159D4, symSize: 0x3C }
  - { offsetInCU: 0x17DB8, offset: 0x49EB6, size: 0x8, addend: 0x0, symName: __ZNSt3__14swapB7v160006IPNS_19__shared_weak_countEEENS_9enable_ifIXaasr21is_move_constructibleIT_EE5valuesr18is_move_assignableIS4_EE5valueEvE4typeERS4_S7_, symObjAddr: 0xCEFC, symBinAddr: 0x100015A10, symSize: 0x3C }
  - { offsetInCU: 0x17E09, offset: 0x49F07, size: 0x8, addend: 0x0, symName: __ZNSt3__122__make_exception_guardB7v160006INS_6vectorINS_10shared_ptrI6ButtonEENS_9allocatorIS4_EEE16__destroy_vectorEEENS_28__exception_guard_exceptionsIT_EESA_, symObjAddr: 0xD014, symBinAddr: 0x100015B28, symSize: 0x40 }
  - { offsetInCU: 0x17E3E, offset: 0x49F3C, size: 0x8, addend: 0x0, symName: __ZNSt3__122__make_exception_guardB7v160006INS_6vectorINS_4pairI6mypairIiEiEENS_9allocatorIS5_EEE16__destroy_vectorEEENS_28__exception_guard_exceptionsIT_EESB_, symObjAddr: 0xD468, symBinAddr: 0x100015F7C, symSize: 0x40 }
  - { offsetInCU: 0x17E73, offset: 0x49F71, size: 0x8, addend: 0x0, symName: __ZNSt3__130__uninitialized_allocator_copyB7v160006INS_9allocatorINS_4pairI6mypairIiEiEEEEPS5_S7_S7_EET2_RT_T0_T1_S8_, symObjAddr: 0xD6E4, symBinAddr: 0x1000161F8, symSize: 0xF4 }
  - { offsetInCU: 0x17F11, offset: 0x4A00F, size: 0x8, addend: 0x0, symName: __ZNSt3__122__make_exception_guardB7v160006INS_29_AllocatorDestroyRangeReverseINS_9allocatorINS_4pairI6mypairIiEiEEEEPS6_EEEENS_28__exception_guard_exceptionsIT_EESB_, symObjAddr: 0xD7D8, symBinAddr: 0x1000162EC, symSize: 0x4C }
  - { offsetInCU: 0x17F47, offset: 0x4A045, size: 0x8, addend: 0x0, symName: __ZNSt3__119__allocator_destroyB7v160006INS_9allocatorINS_4pairI6mypairIiEiEEEENS_16reverse_iteratorIPS5_EES9_EEvRT_T0_T1_, symObjAddr: 0xDA68, symBinAddr: 0x10001657C, symSize: 0x70 }
  - { offsetInCU: 0x17FAA, offset: 0x4A0A8, size: 0x8, addend: 0x0, symName: __ZNSt3__122__make_exception_guardB7v160006INS_6vectorINS_10shared_ptrI5EnemyEENS_9allocatorIS4_EEE16__destroy_vectorEEENS_28__exception_guard_exceptionsIT_EESA_, symObjAddr: 0xDC84, symBinAddr: 0x100016798, symSize: 0x40 }
  - { offsetInCU: 0x17FDF, offset: 0x4A0DD, size: 0x8, addend: 0x0, symName: __ZNSt3__130__uninitialized_allocator_copyB7v160006INS_9allocatorINS_10shared_ptrI5EnemyEEEEPS4_S6_S6_EET2_RT_T0_T1_S7_, symObjAddr: 0xDEF8, symBinAddr: 0x100016A0C, symSize: 0xF4 }
  - { offsetInCU: 0x1807D, offset: 0x4A17B, size: 0x8, addend: 0x0, symName: __ZNSt3__122__make_exception_guardB7v160006INS_29_AllocatorDestroyRangeReverseINS_9allocatorINS_10shared_ptrI5EnemyEEEEPS5_EEEENS_28__exception_guard_exceptionsIT_EESA_, symObjAddr: 0xDFEC, symBinAddr: 0x100016B00, symSize: 0x4C }
  - { offsetInCU: 0x180B3, offset: 0x4A1B1, size: 0x8, addend: 0x0, symName: __ZNSt3__119__allocator_destroyB7v160006INS_9allocatorINS_10shared_ptrI5EnemyEEEENS_16reverse_iteratorIPS4_EES8_EEvRT_T0_T1_, symObjAddr: 0xE320, symBinAddr: 0x100016E34, symSize: 0x70 }
  - { offsetInCU: 0x18116, offset: 0x4A214, size: 0x8, addend: 0x0, symName: __ZNSt3__115allocate_sharedB7v160006I9LevelGridNS_9allocatorIS1_EEJS1_EvEENS_10shared_ptrIT_EERKT0_DpOT1_, symObjAddr: 0xE3E0, symBinAddr: 0x100016EF4, symSize: 0x98 }
  - { offsetInCU: 0x18424, offset: 0x4A522, size: 0x8, addend: 0x0, symName: __ZNSt3__115__debug_db_swapB7v160006INS_6vectorINS_10shared_ptrI5EnemyEENS_9allocatorIS4_EEEEEEvPT_S9_, symObjAddr: 0xECAC, symBinAddr: 0x1000177C0, symSize: 0x14 }
  - { offsetInCU: 0x18463, offset: 0x4A561, size: 0x8, addend: 0x0, symName: __ZNSt3__115__debug_db_swapB7v160006INS_6vectorINS_10shared_ptrI6ButtonEENS_9allocatorIS4_EEEEEEvPT_S9_, symObjAddr: 0xEDD8, symBinAddr: 0x1000178EC, symSize: 0x14 }
  - { offsetInCU: 0x184D5, offset: 0x4A5D3, size: 0x8, addend: 0x0, symName: __ZNSt3__130__uninitialized_allocator_copyB7v160006INS_9allocatorINS_10shared_ptrI6ButtonEEEEPS4_S6_S6_EET2_RT_T0_T1_S7_, symObjAddr: 0xF414, symBinAddr: 0x100017ED4, symSize: 0xF4 }
  - { offsetInCU: 0x18573, offset: 0x4A671, size: 0x8, addend: 0x0, symName: __ZNSt3__122__make_exception_guardB7v160006INS_29_AllocatorDestroyRangeReverseINS_9allocatorINS_10shared_ptrI6ButtonEEEEPS5_EEEENS_28__exception_guard_exceptionsIT_EESA_, symObjAddr: 0xF508, symBinAddr: 0x100017FC8, symSize: 0x4C }
  - { offsetInCU: 0x185A9, offset: 0x4A6A7, size: 0x8, addend: 0x0, symName: __ZNSt3__119__allocator_destroyB7v160006INS_9allocatorINS_10shared_ptrI6ButtonEEEENS_16reverse_iteratorIPS4_EES8_EEvRT_T0_T1_, symObjAddr: 0xF798, symBinAddr: 0x100018258, symSize: 0x70 }
  - { offsetInCU: 0x1860C, offset: 0x4A70A, size: 0x8, addend: 0x0, symName: __ZNSt3__1neB7v160006ERKNS_20__map_const_iteratorINS_21__tree_const_iteratorINS_12__value_typeINS_10shared_ptrI6ButtonEENS3_I19HorizontalSlideDoorEEEEPNS_11__tree_nodeIS8_PvEElEEEESG_, symObjAddr: 0xFC18, symBinAddr: 0x1000186AC, symSize: 0x30 }
  - { offsetInCU: 0x18649, offset: 0x4A747, size: 0x8, addend: 0x0, symName: __ZNSt3__1neB7v160006ERKNS_21__tree_const_iteratorINS_12__value_typeINS_10shared_ptrI6ButtonEENS2_I19HorizontalSlideDoorEEEEPNS_11__tree_nodeIS7_PvEElEESE_, symObjAddr: 0xFD20, symBinAddr: 0x1000187B4, symSize: 0x34 }
  - { offsetInCU: 0x18686, offset: 0x4A784, size: 0x8, addend: 0x0, symName: __ZNSt3__1eqB7v160006ERKNS_21__tree_const_iteratorINS_12__value_typeINS_10shared_ptrI6ButtonEENS2_I19HorizontalSlideDoorEEEEPNS_11__tree_nodeIS7_PvEElEESE_, symObjAddr: 0xFD54, symBinAddr: 0x1000187E8, symSize: 0x30 }
  - { offsetInCU: 0x186E7, offset: 0x4A7E5, size: 0x8, addend: 0x0, symName: __ZNSt3__14nextB7v160006INS_21__tree_const_iteratorINS_12__value_typeINS_10shared_ptrI6ButtonEENS3_I19HorizontalSlideDoorEEEEPNS_11__tree_nodeIS8_PvEElEEEENS_9enable_ifIXsr25__is_cpp17_input_iteratorIT_EE5valueESF_E4typeESF_NS_15iterator_traitsISF_E15difference_typeE, symObjAddr: 0x10444, symBinAddr: 0x100018ED8, symSize: 0x50 }
  - { offsetInCU: 0x1872A, offset: 0x4A828, size: 0x8, addend: 0x0, symName: __ZNSt3__19__advanceB7v160006INS_21__tree_const_iteratorINS_12__value_typeINS_10shared_ptrI6ButtonEENS3_I19HorizontalSlideDoorEEEEPNS_11__tree_nodeIS8_PvEElEEEEvRT_NS_15iterator_traitsISE_E15difference_typeENS_26bidirectional_iterator_tagE, symObjAddr: 0x1064C, symBinAddr: 0x100019004, symSize: 0xA4 }
  - { offsetInCU: 0x187A6, offset: 0x4A8A4, size: 0x8, addend: 0x0, symName: __ZNSt3__130__uninitialized_allocator_copyB7v160006INS_9allocatorINS_10shared_ptrI9LevelGridEEEEPKS4_S7_PS4_EET2_RT_T0_T1_S9_, symObjAddr: 0x113CC, symBinAddr: 0x1000195F8, symSize: 0xF4 }
  - { offsetInCU: 0x18844, offset: 0x4A942, size: 0x8, addend: 0x0, symName: __ZNSt3__122__make_exception_guardB7v160006INS_6vectorINS_12basic_stringIcNS_11char_traitsIcEENS_9allocatorIcEEEENS5_IS7_EEE16__destroy_vectorEEENS_28__exception_guard_exceptionsIT_EESC_, symObjAddr: 0x1242C, symBinAddr: 0x1000198F4, symSize: 0x40 }
  - { offsetInCU: 0x18879, offset: 0x4A977, size: 0x8, addend: 0x0, symName: __ZNSt3__119__debug_db_insert_cB7v160006INS_6vectorINS_12basic_stringIcNS_11char_traitsIcEENS_9allocatorIcEEEENS5_IS7_EEEEEEvPT_, symObjAddr: 0x124A0, symBinAddr: 0x100019968, symSize: 0x10 }
  - { offsetInCU: 0x188AA, offset: 0x4A9A8, size: 0x8, addend: 0x0, symName: __ZNSt3__119__allocate_at_leastB7v160006INS_9allocatorINS_12basic_stringIcNS_11char_traitsIcEENS1_IcEEEEEEEENS_19__allocation_resultINS_16allocator_traitsIT_E7pointerEEERSA_m, symObjAddr: 0x1284C, symBinAddr: 0x100019D14, symSize: 0x40 }
  - { offsetInCU: 0x188ED, offset: 0x4A9EB, size: 0x8, addend: 0x0, symName: __ZNSt3__112__to_addressB7v160006INS_12basic_stringIcNS_11char_traitsIcEENS_9allocatorIcEEEEEEPT_S8_, symObjAddr: 0x12B94, symBinAddr: 0x10001A05C, symSize: 0x14 }
  - { offsetInCU: 0x18922, offset: 0x4AA20, size: 0x8, addend: 0x0, symName: __ZNSt3__130__uninitialized_allocator_copyB7v160006INS_9allocatorINS_12basic_stringIcNS_11char_traitsIcEENS1_IcEEEEEEPKS6_S9_PS6_EET2_RT_T0_T1_SB_, symObjAddr: 0x12C44, symBinAddr: 0x10001A10C, symSize: 0xF4 }
  - { offsetInCU: 0x189C0, offset: 0x4AABE, size: 0x8, addend: 0x0, symName: __ZNSt3__122__make_exception_guardB7v160006INS_29_AllocatorDestroyRangeReverseINS_9allocatorINS_12basic_stringIcNS_11char_traitsIcEENS2_IcEEEEEEPS7_EEEENS_28__exception_guard_exceptionsIT_EESC_, symObjAddr: 0x12DB0, symBinAddr: 0x10001A278, symSize: 0x4C }
  - { offsetInCU: 0x189F6, offset: 0x4AAF4, size: 0x8, addend: 0x0, symName: __ZNSt3__119__allocator_destroyB7v160006INS_9allocatorINS_12basic_stringIcNS_11char_traitsIcEENS1_IcEEEEEENS_16reverse_iteratorIPS6_EESA_EEvRT_T0_T1_, symObjAddr: 0x13040, symBinAddr: 0x10001A508, symSize: 0x70 }
  - { offsetInCU: 0x18A59, offset: 0x4AB57, size: 0x8, addend: 0x0, symName: __ZNSt3__1neB7v160006IPNS_12basic_stringIcNS_11char_traitsIcEENS_9allocatorIcEEEES7_EEbRKNS_16reverse_iteratorIT_EERKNS8_IT0_EE, symObjAddr: 0x130E4, symBinAddr: 0x10001A5AC, symSize: 0x48 }
  - { offsetInCU: 0x18AA5, offset: 0x4ABA3, size: 0x8, addend: 0x0, symName: __ZNSt3__112__to_addressB7v160006INS_16reverse_iteratorIPNS_12basic_stringIcNS_11char_traitsIcEENS_9allocatorIcEEEEEEvEENS_5decayIDTclsr19__to_address_helperIT_EE6__callclsr3stdE7declvalIRKSB_EEEEE4typeESD_, symObjAddr: 0x13158, symBinAddr: 0x10001A620, symSize: 0x24 }
  - { offsetInCU: 0x18B04, offset: 0x4AC02, size: 0x8, addend: 0x0, symName: __ZNSt3__118__debug_db_erase_cB7v160006INS_6vectorINS_12basic_stringIcNS_11char_traitsIcEENS_9allocatorIcEEEENS5_IS7_EEEEEEvPT_, symObjAddr: 0x13468, symBinAddr: 0x10001A930, symSize: 0x10 }
  - { offsetInCU: 0x18B35, offset: 0x4AC33, size: 0x8, addend: 0x0, symName: __ZNSt3__122__make_exception_guardB7v160006INS_6vectorIiNS_9allocatorIiEEE16__destroy_vectorEEENS_28__exception_guard_exceptionsIT_EES7_, symObjAddr: 0x13748, symBinAddr: 0x10001AC10, symSize: 0x40 }
  - { offsetInCU: 0x18B6A, offset: 0x4AC68, size: 0x8, addend: 0x0, symName: __ZNSt3__119__debug_db_insert_cB7v160006INS_6vectorIiNS_9allocatorIiEEEEEEvPT_, symObjAddr: 0x137BC, symBinAddr: 0x10001AC84, symSize: 0x10 }
  - { offsetInCU: 0x18B9B, offset: 0x4AC99, size: 0x8, addend: 0x0, symName: __ZNSt3__119__allocate_at_leastB7v160006INS_9allocatorIiEEEENS_19__allocation_resultINS_16allocator_traitsIT_E7pointerEEERS5_m, symObjAddr: 0x13B58, symBinAddr: 0x10001B020, symSize: 0x40 }
  - { offsetInCU: 0x18BDE, offset: 0x4ACDC, size: 0x8, addend: 0x0, symName: __ZNSt3__112__to_addressB7v160006IiEEPT_S2_, symObjAddr: 0x13E7C, symBinAddr: 0x10001B344, symSize: 0x14 }
  - { offsetInCU: 0x18C13, offset: 0x4AD11, size: 0x8, addend: 0x0, symName: __ZNSt3__130__uninitialized_allocator_copyB7v160006INS_9allocatorIiEEiiLPv0EEEPT0_RT_PKS4_S9_S5_, symObjAddr: 0x13F2C, symBinAddr: 0x10001B3F4, symSize: 0x38 }
  - { offsetInCU: 0x18C8C, offset: 0x4AD8A, size: 0x8, addend: 0x0, symName: __ZNSt3__14copyB7v160006IPKiPiEET0_T_S5_S4_, symObjAddr: 0x13FD4, symBinAddr: 0x10001B49C, symSize: 0x40 }
  - { offsetInCU: 0x18CE6, offset: 0x4ADE4, size: 0x8, addend: 0x0, symName: __ZNSt3__16__copyB7v160006INS_17_ClassicAlgPolicyEPKiS3_PiEENS_4pairIT0_T2_EES6_T1_S7_, symObjAddr: 0x14014, symBinAddr: 0x10001B4DC, symSize: 0x44 }
  - { offsetInCU: 0x18D52, offset: 0x4AE50, size: 0x8, addend: 0x0, symName: __ZNSt3__123__dispatch_copy_or_moveB7v160006INS_17_ClassicAlgPolicyENS_11__copy_loopIS1_EENS_14__copy_trivialEPKiS6_PiEENS_4pairIT2_T4_EES9_T3_SA_, symObjAddr: 0x14058, symBinAddr: 0x10001B520, symSize: 0x44 }
  - { offsetInCU: 0x18DD0, offset: 0x4AECE, size: 0x8, addend: 0x0, symName: __ZNSt3__121__unwrap_and_dispatchB7v160006INS_10__overloadINS_11__copy_loopINS_17_ClassicAlgPolicyEEENS_14__copy_trivialEEEPKiS8_PiLi0EEENS_4pairIT0_T2_EESB_T1_SC_, symObjAddr: 0x1409C, symBinAddr: 0x10001B564, symSize: 0xB4 }
  - { offsetInCU: 0x18E5E, offset: 0x4AF5C, size: 0x8, addend: 0x0, symName: __ZNSt3__114__unwrap_rangeB7v160006IPKiS2_EENS_4pairIT0_S4_EET_S6_, symObjAddr: 0x14150, symBinAddr: 0x10001B618, symSize: 0x60 }
  - { offsetInCU: 0x18FF3, offset: 0x4B0F1, size: 0x8, addend: 0x0, symName: __ZNSt3__113__unwrap_iterB7v160006IPiNS_18__unwrap_iter_implIS1_Lb1EEELi0EEEDTclsrT0_8__unwrapclsr3stdE7declvalIT_EEEES5_, symObjAddr: 0x141F8, symBinAddr: 0x10001B6C0, symSize: 0x24 }
  - { offsetInCU: 0x19037, offset: 0x4B135, size: 0x8, addend: 0x0, symName: __ZNSt3__19make_pairB7v160006IPKiPiEENS_4pairINS_18__unwrap_ref_decayIT_E4typeENS5_IT0_E4typeEEEOS6_OS9_, symObjAddr: 0x1421C, symBinAddr: 0x10001B6E4, symSize: 0x38 }
  - { offsetInCU: 0x19086, offset: 0x4B184, size: 0x8, addend: 0x0, symName: __ZNSt3__114__rewrap_rangeB7v160006IPKiS2_EET_S3_T0_, symObjAddr: 0x14254, symBinAddr: 0x10001B71C, symSize: 0x2C }
  - { offsetInCU: 0x190D2, offset: 0x4B1D0, size: 0x8, addend: 0x0, symName: __ZNSt3__113__rewrap_iterB7v160006IPiS1_NS_18__unwrap_iter_implIS1_Lb1EEEEET_S4_T0_, symObjAddr: 0x14280, symBinAddr: 0x10001B748, symSize: 0x3C }
  - { offsetInCU: 0x19127, offset: 0x4B225, size: 0x8, addend: 0x0, symName: __ZNSt3__19make_pairB7v160006IPKiS2_EENS_4pairINS_18__unwrap_ref_decayIT_E4typeENS4_IT0_E4typeEEEOS5_OS8_, symObjAddr: 0x142BC, symBinAddr: 0x10001B784, symSize: 0x38 }
  - { offsetInCU: 0x19176, offset: 0x4B274, size: 0x8, addend: 0x0, symName: __ZNSt3__113__unwrap_iterB7v160006IPKiNS_18__unwrap_iter_implIS2_Lb1EEELi0EEEDTclsrT0_8__unwrapclsr3stdE7declvalIT_EEEES6_, symObjAddr: 0x142F4, symBinAddr: 0x10001B7BC, symSize: 0x24 }
  - { offsetInCU: 0x192E1, offset: 0x4B3DF, size: 0x8, addend: 0x0, symName: __ZNSt3__112__to_addressB7v160006IKiEEPT_S3_, symObjAddr: 0x143AC, symBinAddr: 0x10001B874, symSize: 0x14 }
  - { offsetInCU: 0x19316, offset: 0x4B414, size: 0x8, addend: 0x0, symName: __ZNSt3__119__copy_trivial_implB7v160006IKiiEENS_4pairIPT_PT0_EES4_S4_S6_, symObjAddr: 0x143C0, symBinAddr: 0x10001B888, symSize: 0x84 }
  - { offsetInCU: 0x1937E, offset: 0x4B47C, size: 0x8, addend: 0x0, symName: __ZNSt3__19make_pairB7v160006IRPKiPiEENS_4pairINS_18__unwrap_ref_decayIT_E4typeENS6_IT0_E4typeEEEOS7_OSA_, symObjAddr: 0x14444, symBinAddr: 0x10001B90C, symSize: 0x38 }
  - { offsetInCU: 0x19420, offset: 0x4B51E, size: 0x8, addend: 0x0, symName: __ZNSt3__113__rewrap_iterB7v160006IPKiS2_NS_18__unwrap_iter_implIS2_Lb1EEEEET_S5_T0_, symObjAddr: 0x14580, symBinAddr: 0x10001BA48, symSize: 0x3C }
  - { offsetInCU: 0x19475, offset: 0x4B573, size: 0x8, addend: 0x0, symName: __ZNSt3__118__debug_db_erase_cB7v160006INS_6vectorIiNS_9allocatorIiEEEEEEvPT_, symObjAddr: 0x14820, symBinAddr: 0x10001BCE8, symSize: 0x10 }
  - { offsetInCU: 0x194A6, offset: 0x4B5A4, size: 0x8, addend: 0x0, symName: __ZNSt3__130__uninitialized_allocator_copyB7v160006INS_9allocatorINS_12basic_stringIcNS_11char_traitsIcEENS1_IcEEEEEEPS6_S8_S8_EET2_RT_T0_T1_S9_, symObjAddr: 0x14C48, symBinAddr: 0x10001C110, symSize: 0xF4 }
  - { offsetInCU: 0x19544, offset: 0x4B642, size: 0x8, addend: 0x0, symName: __ZNSt3__130__uninitialized_allocator_copyB7v160006INS_9allocatorIiEEPiS3_S3_EET2_RT_T0_T1_S4_, symObjAddr: 0x14FE4, symBinAddr: 0x10001C4AC, symSize: 0xF4 }
  - { offsetInCU: 0x195E2, offset: 0x4B6E0, size: 0x8, addend: 0x0, symName: __ZNSt3__122__make_exception_guardB7v160006INS_29_AllocatorDestroyRangeReverseINS_9allocatorIiEEPiEEEENS_28__exception_guard_exceptionsIT_EES7_, symObjAddr: 0x150D8, symBinAddr: 0x10001C5A0, symSize: 0x4C }
  - { offsetInCU: 0x19618, offset: 0x4B716, size: 0x8, addend: 0x0, symName: __ZNSt3__119__allocator_destroyB7v160006INS_9allocatorIiEENS_16reverse_iteratorIPiEES5_EEvRT_T0_T1_, symObjAddr: 0x15360, symBinAddr: 0x10001C828, symSize: 0x70 }
  - { offsetInCU: 0x1967B, offset: 0x4B779, size: 0x8, addend: 0x0, symName: __ZNSt3__1neB7v160006IPiS1_EEbRKNS_16reverse_iteratorIT_EERKNS2_IT0_EE, symObjAddr: 0x15404, symBinAddr: 0x10001C8CC, symSize: 0x48 }
  - { offsetInCU: 0x196C7, offset: 0x4B7C5, size: 0x8, addend: 0x0, symName: __ZNSt3__112__to_addressB7v160006INS_16reverse_iteratorIPiEEvEENS_5decayIDTclsr19__to_address_helperIT_EE6__callclsr3stdE7declvalIRKS5_EEEEE4typeES7_, symObjAddr: 0x1544C, symBinAddr: 0x10001C914, symSize: 0x24 }
  - { offsetInCU: 0x19726, offset: 0x4B824, size: 0x8, addend: 0x0, symName: __ZNSt3__115allocate_sharedB7v160006I8MainMenuNS_9allocatorIS1_EEJS1_EvEENS_10shared_ptrIT_EERKT0_DpOT1_, symObjAddr: 0x15554, symBinAddr: 0x10001CA1C, symSize: 0x98 }
  - { offsetInCU: 0x19A34, offset: 0x4BB32, size: 0x8, addend: 0x0, symName: __ZNSt3__115__debug_db_swapB7v160006INS_6vectorINS_12basic_stringIcNS_11char_traitsIcEENS_9allocatorIcEEEENS5_IS7_EEEEEEvPT_SB_, symObjAddr: 0x15DA4, symBinAddr: 0x10001D26C, symSize: 0x14 }
  - { offsetInCU: 0x19A73, offset: 0x4BB71, size: 0x8, addend: 0x0, symName: __ZNSt3__115__debug_db_swapB7v160006INS_6vectorIiNS_9allocatorIiEEEEEEvPT_S6_, symObjAddr: 0x15E94, symBinAddr: 0x10001D35C, symSize: 0x14 }
  - { offsetInCU: 0x19AE5, offset: 0x4BBE3, size: 0x8, addend: 0x0, symName: __ZNSt3__115allocate_sharedB7v160006I9PauseMenuNS_9allocatorIS1_EEJS1_EvEENS_10shared_ptrIT_EERKT0_DpOT1_, symObjAddr: 0x16190, symBinAddr: 0x10001D658, symSize: 0x98 }
  - { offsetInCU: 0x19E26, offset: 0x4BF24, size: 0x8, addend: 0x0, symName: __ZNSt3__115allocate_sharedB7v160006I8InfoMenuNS_9allocatorIS1_EEJS1_EvEENS_10shared_ptrIT_EERKT0_DpOT1_, symObjAddr: 0x16B0C, symBinAddr: 0x10001DFD4, symSize: 0x98 }
  - { offsetInCU: 0x1A167, offset: 0x4C265, size: 0x8, addend: 0x0, symName: __ZNSt3__115allocate_sharedB7v160006I9DeathMenuNS_9allocatorIS1_EEJS1_EvEENS_10shared_ptrIT_EERKT0_DpOT1_, symObjAddr: 0x17488, symBinAddr: 0x10001E950, symSize: 0x98 }
  - { offsetInCU: 0x1A4A8, offset: 0x4C5A6, size: 0x8, addend: 0x0, symName: __ZNSt3__116forward_as_tupleB7v160006IJNS_12basic_stringIcNS_11char_traitsIcEENS_9allocatorIcEEEEEEENS_5tupleIJDpOT_EEESA_, symObjAddr: 0x18614, symBinAddr: 0x10001F5C8, symSize: 0x2C }
  - { offsetInCU: 0x1A4E1, offset: 0x4C5DF, size: 0x8, addend: 0x0, symName: __ZNSt3__13getB7v160006ILm0EJONS_12basic_stringIcNS_11char_traitsIcEENS_9allocatorIcEEEEEEERNS_13tuple_elementIXT_ENS_5tupleIJDpT0_EEEE4typeERSC_, symObjAddr: 0x19640, symBinAddr: 0x10001F86C, symSize: 0x24 }
  - { offsetInCU: 0x1A524, offset: 0x4C622, size: 0x8, addend: 0x0, symName: __ZNSt3__115__debug_db_swapB7v160006INS_12basic_stringIcNS_11char_traitsIcEENS_9allocatorIcEEEEEEvPT_S8_, symObjAddr: 0x197A0, symBinAddr: 0x10001F9A0, symSize: 0x14 }
  - { offsetInCU: 0x1A578, offset: 0x4C676, size: 0x8, addend: 0x0, symName: __ZNSt3__14swapB7v160006IP4MenuEENS_9enable_ifIXaasr21is_move_constructibleIT_EE5valuesr18is_move_assignableIS4_EE5valueEvE4typeERS4_S7_, symObjAddr: 0x19C98, symBinAddr: 0x10001FBC4, symSize: 0x3C }
  - { offsetInCU: 0x1BCC9, offset: 0x4DDC7, size: 0x8, addend: 0x0, symName: __ZNSt3__16vectorINS_4pairI6mypairIiEiEENS_9allocatorIS4_EEE26__swap_out_circular_bufferERNS_14__split_bufferIS4_RS6_EE, symObjAddr: 0x4908, symBinAddr: 0x10000DDF4, symSize: 0x118 }
  - { offsetInCU: 0x1BDF9, offset: 0x4DEF7, size: 0x8, addend: 0x0, symName: __ZNSt3__16vectorINS_10shared_ptrI5EnemyEENS_9allocatorIS3_EEE26__swap_out_circular_bufferERNS_14__split_bufferIS3_RS5_EE, symObjAddr: 0x72F8, symBinAddr: 0x100010464, symSize: 0x118 }
  - { offsetInCU: 0x1BFBC, offset: 0x4E0BA, size: 0x8, addend: 0x0, symName: __ZNSt3__16vectorINS_10shared_ptrI6ButtonEENS_9allocatorIS3_EEE26__swap_out_circular_bufferERNS_14__split_bufferIS3_RS5_EE, symObjAddr: 0xA810, symBinAddr: 0x10001385C, symSize: 0x118 }
  - { offsetInCU: 0x1ED75, offset: 0x50E73, size: 0x8, addend: 0x0, symName: _main, symObjAddr: 0x0, symBinAddr: 0x100009BE4, symSize: 0x2894 }
  - { offsetInCU: 0x1F04A, offset: 0x51148, size: 0x8, addend: 0x0, symName: __ZNSt3__16vectorINS_4pairI6mypairIiEiEENS_9allocatorIS4_EEEC1B7v160006Ev, symObjAddr: 0x28D0, symBinAddr: 0x10000C478, symSize: 0x2C }
  - { offsetInCU: 0x1F074, offset: 0x51172, size: 0x8, addend: 0x0, symName: __ZNSt3__16vectorINS_4pairI6mypairIiEiEENS_9allocatorIS4_EEE9push_backB7v160006EOS4_, symObjAddr: 0x28FC, symBinAddr: 0x10000C4A4, symSize: 0x6C }
  - { offsetInCU: 0x1F0B5, offset: 0x511B3, size: 0x8, addend: 0x0, symName: __ZNSt3__14pairI6mypairIiEiEC1B7v160006IS2_iLPv0EEEOT_OT0_, symObjAddr: 0x2968, symBinAddr: 0x10000C510, symSize: 0x3C }
  - { offsetInCU: 0x1F113, offset: 0x51211, size: 0x8, addend: 0x0, symName: __ZNSt3__16vectorINS_10shared_ptrI5EnemyEENS_9allocatorIS3_EEEC1B7v160006Ev, symObjAddr: 0x29A4, symBinAddr: 0x10000C54C, symSize: 0x2C }
  - { offsetInCU: 0x1F13D, offset: 0x5123B, size: 0x8, addend: 0x0, symName: __ZNSt3__16vectorINS_10shared_ptrI5EnemyEENS_9allocatorIS3_EEE9push_backB7v160006EOS3_, symObjAddr: 0x29D0, symBinAddr: 0x10000C578, symSize: 0x6C }
  - { offsetInCU: 0x1F174, offset: 0x51272, size: 0x8, addend: 0x0, symName: __ZNSt3__16vectorINS_4pairI6mypairIiEiEENS_9allocatorIS4_EEEixB7v160006Em, symObjAddr: 0x2A7C, symBinAddr: 0x10000C624, symSize: 0x2C }
  - { offsetInCU: 0x1F1AB, offset: 0x512A9, size: 0x8, addend: 0x0, symName: __ZNSt3__110shared_ptrI5EnemyED1B7v160006Ev, symObjAddr: 0x2AA8, symBinAddr: 0x10000C650, symSize: 0x2C }
  - { offsetInCU: 0x1F1D5, offset: 0x512D3, size: 0x8, addend: 0x0, symName: __ZNSt3__16vectorINS_10shared_ptrI6ButtonEENS_9allocatorIS3_EEEC1B7v160006Ev, symObjAddr: 0x2B00, symBinAddr: 0x10000C67C, symSize: 0x2C }
  - { offsetInCU: 0x1F1FF, offset: 0x512FD, size: 0x8, addend: 0x0, symName: __ZNSt3__13mapINS_10shared_ptrI6ButtonEENS1_I19HorizontalSlideDoorEENS_4lessIS3_EENS_9allocatorINS_4pairIKS3_S5_EEEEEC1B7v160006Ev, symObjAddr: 0x2B2C, symBinAddr: 0x10000C6A8, symSize: 0x2C }
  - { offsetInCU: 0x1F229, offset: 0x51327, size: 0x8, addend: 0x0, symName: __ZNSt3__16vectorINS_10shared_ptrI6ButtonEENS_9allocatorIS3_EEE9push_backB7v160006ERKS3_, symObjAddr: 0x2BF0, symBinAddr: 0x10000C76C, symSize: 0x6C }
  - { offsetInCU: 0x1F260, offset: 0x5135E, size: 0x8, addend: 0x0, symName: __ZNSt3__13mapINS_10shared_ptrI6ButtonEENS1_I19HorizontalSlideDoorEENS_4lessIS3_EENS_9allocatorINS_4pairIKS3_S5_EEEEEixERSA_, symObjAddr: 0x2C5C, symBinAddr: 0x10000C7D8, symSize: 0x80 }
  - { offsetInCU: 0x1F297, offset: 0x51395, size: 0x8, addend: 0x0, symName: __ZNSt3__110shared_ptrI19HorizontalSlideDoorEaSB7v160006ERKS2_, symObjAddr: 0x2CDC, symBinAddr: 0x10000C858, symSize: 0x50 }
  - { offsetInCU: 0x1F2CC, offset: 0x513CA, size: 0x8, addend: 0x0, symName: __ZNSt3__16vectorINS_4pairI6mypairIiEiEENS_9allocatorIS4_EEEC1ERKS7_, symObjAddr: 0x2D6C, symBinAddr: 0x10000C8E8, symSize: 0x34 }
  - { offsetInCU: 0x1F307, offset: 0x51405, size: 0x8, addend: 0x0, symName: __ZNSt3__16vectorINS_10shared_ptrI5EnemyEENS_9allocatorIS3_EEEC1ERKS6_, symObjAddr: 0x2DA0, symBinAddr: 0x10000C91C, symSize: 0x34 }
  - { offsetInCU: 0x1F342, offset: 0x51440, size: 0x8, addend: 0x0, symName: __ZNSt3__16vectorINS_10shared_ptrI6ButtonEENS_9allocatorIS3_EEEC1Em, symObjAddr: 0x2DD4, symBinAddr: 0x10000C950, symSize: 0x34 }
  - { offsetInCU: 0x1F37D, offset: 0x5147B, size: 0x8, addend: 0x0, symName: __ZN9LevelGridD1Ev, symObjAddr: 0x2E08, symBinAddr: 0x10000C984, symSize: 0x2C }
  - { offsetInCU: 0x1F3A9, offset: 0x514A7, size: 0x8, addend: 0x0, symName: __ZNSt3__13mapINS_10shared_ptrI6ButtonEENS1_I19HorizontalSlideDoorEENS_4lessIS3_EENS_9allocatorINS_4pairIKS3_S5_EEEEED1B7v160006Ev, symObjAddr: 0x2E34, symBinAddr: 0x10000C9B0, symSize: 0x2C }
  - { offsetInCU: 0x1F3D3, offset: 0x514D1, size: 0x8, addend: 0x0, symName: __ZNSt3__16vectorINS_10shared_ptrI6ButtonEENS_9allocatorIS3_EEED1B7v160006Ev, symObjAddr: 0x2E60, symBinAddr: 0x10000C9DC, symSize: 0x2C }
  - { offsetInCU: 0x1F3FD, offset: 0x514FB, size: 0x8, addend: 0x0, symName: __ZNSt3__16vectorINS_10shared_ptrI5EnemyEENS_9allocatorIS3_EEED1B7v160006Ev, symObjAddr: 0x2E8C, symBinAddr: 0x10000CA08, symSize: 0x2C }
  - { offsetInCU: 0x1F427, offset: 0x51525, size: 0x8, addend: 0x0, symName: __ZNSt3__16vectorINS_4pairI6mypairIiEiEENS_9allocatorIS4_EEED1B7v160006Ev, symObjAddr: 0x2EB8, symBinAddr: 0x10000CA34, symSize: 0x2C }
  - { offsetInCU: 0x1F451, offset: 0x5154F, size: 0x8, addend: 0x0, symName: __ZNSt3__16vectorINS_10shared_ptrI6ButtonEENS_9allocatorIS3_EEEC1ERKS6_, symObjAddr: 0x2EE4, symBinAddr: 0x10000CA60, symSize: 0x34 }
  - { offsetInCU: 0x1F48C, offset: 0x5158A, size: 0x8, addend: 0x0, symName: __ZNSt3__13mapINS_10shared_ptrI6ButtonEENS1_I19HorizontalSlideDoorEENS_4lessIS3_EENS_9allocatorINS_4pairIKS3_S5_EEEEEC1B7v160006ERKSD_, symObjAddr: 0x2F18, symBinAddr: 0x10000CA94, symSize: 0x34 }
  - { offsetInCU: 0x1F4C5, offset: 0x515C3, size: 0x8, addend: 0x0, symName: __ZNSt3__16vectorINS_10shared_ptrI9LevelGridEENS_9allocatorIS3_EEEC1B7v160006ESt16initializer_listIS3_E, symObjAddr: 0x2F80, symBinAddr: 0x10000CAC8, symSize: 0x3C }
  - { offsetInCU: 0x1F500, offset: 0x515FE, size: 0x8, addend: 0x0, symName: __ZNSt3__16vectorINS_10shared_ptrI9LevelGridEENS_9allocatorIS3_EEED1B7v160006Ev, symObjAddr: 0x301C, symBinAddr: 0x10000CB04, symSize: 0x2C }
  - { offsetInCU: 0x1F52F, offset: 0x5162D, size: 0x8, addend: 0x0, symName: __ZNSt3__16vectorINS_12basic_stringIcNS_11char_traitsIcEENS_9allocatorIcEEEENS4_IS6_EEEC1B7v160006ESt16initializer_listIS6_E, symObjAddr: 0x307C, symBinAddr: 0x10000CB30, symSize: 0x3C }
  - { offsetInCU: 0x1F56A, offset: 0x51668, size: 0x8, addend: 0x0, symName: __ZNSt3__16vectorIiNS_9allocatorIiEEEC1B7v160006ESt16initializer_listIiE, symObjAddr: 0x30B8, symBinAddr: 0x10000CB6C, symSize: 0x3C }
  - { offsetInCU: 0x1F5A5, offset: 0x516A3, size: 0x8, addend: 0x0, symName: __ZNSt3__16vectorINS_12basic_stringIcNS_11char_traitsIcEENS_9allocatorIcEEEENS4_IS6_EEEC1ERKS8_, symObjAddr: 0x3134, symBinAddr: 0x10000CBE8, symSize: 0x34 }
  - { offsetInCU: 0x1F5E0, offset: 0x516DE, size: 0x8, addend: 0x0, symName: __ZNKSt3__16vectorINS_12basic_stringIcNS_11char_traitsIcEENS_9allocatorIcEEEENS4_IS6_EEE4sizeB7v160006Ev, symObjAddr: 0x3168, symBinAddr: 0x10000CC1C, symSize: 0x28 }
  - { offsetInCU: 0x1F606, offset: 0x51704, size: 0x8, addend: 0x0, symName: __ZNSt3__16vectorIiNS_9allocatorIiEEEC1ERKS3_, symObjAddr: 0x3190, symBinAddr: 0x10000CC44, symSize: 0x34 }
  - { offsetInCU: 0x1F641, offset: 0x5173F, size: 0x8, addend: 0x0, symName: __ZN8MainMenuD1Ev, symObjAddr: 0x31C4, symBinAddr: 0x10000CC78, symSize: 0x2C }
  - { offsetInCU: 0x1F66D, offset: 0x5176B, size: 0x8, addend: 0x0, symName: __ZNSt3__16vectorIiNS_9allocatorIiEEED1B7v160006Ev, symObjAddr: 0x31F0, symBinAddr: 0x10000CCA4, symSize: 0x2C }
  - { offsetInCU: 0x1F697, offset: 0x51795, size: 0x8, addend: 0x0, symName: __ZNSt3__16vectorINS_12basic_stringIcNS_11char_traitsIcEENS_9allocatorIcEEEENS4_IS6_EEED1B7v160006Ev, symObjAddr: 0x321C, symBinAddr: 0x10000CCD0, symSize: 0x2C }
  - { offsetInCU: 0x1F6C1, offset: 0x517BF, size: 0x8, addend: 0x0, symName: __ZN9PauseMenuD1Ev, symObjAddr: 0x3288, symBinAddr: 0x10000CD3C, symSize: 0x2C }
  - { offsetInCU: 0x1F6ED, offset: 0x517EB, size: 0x8, addend: 0x0, symName: __ZN8InfoMenuD1Ev, symObjAddr: 0x32F4, symBinAddr: 0x10000CDA8, symSize: 0x2C }
  - { offsetInCU: 0x1F719, offset: 0x51817, size: 0x8, addend: 0x0, symName: __ZN9DeathMenuD1Ev, symObjAddr: 0x3360, symBinAddr: 0x10000CE14, symSize: 0x2C }
  - { offsetInCU: 0x1F745, offset: 0x51843, size: 0x8, addend: 0x0, symName: __ZNSt3__13mapINS_12basic_stringIcNS_11char_traitsIcEENS_9allocatorIcEEEENS_10shared_ptrI4MenuEENS_4lessIS6_EENS4_INS_4pairIKS6_S9_EEEEEC1B7v160006Ev, symObjAddr: 0x338C, symBinAddr: 0x10000CE40, symSize: 0x2C }
  - { offsetInCU: 0x1F76F, offset: 0x5186D, size: 0x8, addend: 0x0, symName: __ZNSt3__13mapINS_12basic_stringIcNS_11char_traitsIcEENS_9allocatorIcEEEENS_10shared_ptrI4MenuEENS_4lessIS6_EENS4_INS_4pairIKS6_S9_EEEEEixEOS6_, symObjAddr: 0x33B8, symBinAddr: 0x10000CE6C, symSize: 0x80 }
  - { offsetInCU: 0x1F7C9, offset: 0x518C7, size: 0x8, addend: 0x0, symName: __ZNSt3__110shared_ptrI4MenuEaSB7v160006I8MainMenuvEERS2_RKNS0_IT_EE, symObjAddr: 0x3438, symBinAddr: 0x10000CEEC, symSize: 0x50 }
  - { offsetInCU: 0x1F82B, offset: 0x51929, size: 0x8, addend: 0x0, symName: __ZNSt3__110shared_ptrI4MenuEaSB7v160006I8InfoMenuvEERS2_RKNS0_IT_EE, symObjAddr: 0x3488, symBinAddr: 0x10000CF3C, symSize: 0x50 }
  - { offsetInCU: 0x1F88D, offset: 0x5198B, size: 0x8, addend: 0x0, symName: __ZNSt3__110shared_ptrI4MenuEaSB7v160006I9PauseMenuvEERS2_RKNS0_IT_EE, symObjAddr: 0x34D8, symBinAddr: 0x10000CF8C, symSize: 0x50 }
  - { offsetInCU: 0x1F8EF, offset: 0x519ED, size: 0x8, addend: 0x0, symName: __ZNSt3__110shared_ptrI4MenuEaSB7v160006I9DeathMenuvEERS2_RKNS0_IT_EE, symObjAddr: 0x3528, symBinAddr: 0x10000CFDC, symSize: 0x50 }
  - { offsetInCU: 0x1FA26, offset: 0x51B24, size: 0x8, addend: 0x0, symName: __ZN4GameD1Ev, symObjAddr: 0x360C, symBinAddr: 0x10000D02C, symSize: 0x2C }
  - { offsetInCU: 0x1FAFC, offset: 0x51BFA, size: 0x8, addend: 0x0, symName: __ZN11ApplicationD1Ev, symObjAddr: 0x3638, symBinAddr: 0x10000D058, symSize: 0x2C }
  - { offsetInCU: 0x1FB28, offset: 0x51C26, size: 0x8, addend: 0x0, symName: __ZNSt3__110shared_ptrI9DeathMenuED1B7v160006Ev, symObjAddr: 0x3664, symBinAddr: 0x10000D084, symSize: 0x2C }
  - { offsetInCU: 0x1FB52, offset: 0x51C50, size: 0x8, addend: 0x0, symName: __ZNSt3__110shared_ptrI8InfoMenuED1B7v160006Ev, symObjAddr: 0x3690, symBinAddr: 0x10000D0B0, symSize: 0x2C }
  - { offsetInCU: 0x1FB7C, offset: 0x51C7A, size: 0x8, addend: 0x0, symName: __ZNSt3__110shared_ptrI9PauseMenuED1B7v160006Ev, symObjAddr: 0x36BC, symBinAddr: 0x10000D0DC, symSize: 0x2C }
  - { offsetInCU: 0x1FBA6, offset: 0x51CA4, size: 0x8, addend: 0x0, symName: __ZNSt3__110shared_ptrI8MainMenuED1B7v160006Ev, symObjAddr: 0x36E8, symBinAddr: 0x10000D108, symSize: 0x2C }
  - { offsetInCU: 0x1FBD0, offset: 0x51CCE, size: 0x8, addend: 0x0, symName: __ZNSt3__110shared_ptrI19HorizontalSlideDoorED1B7v160006Ev, symObjAddr: 0x3714, symBinAddr: 0x10000D134, symSize: 0x2C }
  - { offsetInCU: 0x1FBFA, offset: 0x51CF8, size: 0x8, addend: 0x0, symName: __ZNSt3__110shared_ptrI6ButtonED1B7v160006Ev, symObjAddr: 0x3740, symBinAddr: 0x10000D160, symSize: 0x2C }
  - { offsetInCU: 0x1FC24, offset: 0x51D22, size: 0x8, addend: 0x0, symName: __ZNSt3__14pairI6mypairIiEiEC2B7v160006IS2_iLPv0EEEOT_OT0_, symObjAddr: 0x3798, symBinAddr: 0x10000D18C, symSize: 0x34 }
  - { offsetInCU: 0x1FC82, offset: 0x51D80, size: 0x8, addend: 0x0, symName: __ZN9LevelGridD2Ev, symObjAddr: 0x3C20, symBinAddr: 0x10000D1C0, symSize: 0x60 }
  - { offsetInCU: 0x1FCAE, offset: 0x51DAC, size: 0x8, addend: 0x0, symName: __ZN8MainMenuD2Ev, symObjAddr: 0x3C80, symBinAddr: 0x10000D220, symSize: 0x2C }
  - { offsetInCU: 0x1FCDA, offset: 0x51DD8, size: 0x8, addend: 0x0, symName: __ZN4MenuD2Ev, symObjAddr: 0x3CAC, symBinAddr: 0x10000D24C, symSize: 0x4C }
  - { offsetInCU: 0x1FD06, offset: 0x51E04, size: 0x8, addend: 0x0, symName: __ZN9PauseMenuD2Ev, symObjAddr: 0x3CF8, symBinAddr: 0x10000D298, symSize: 0x2C }
  - { offsetInCU: 0x1FD32, offset: 0x51E30, size: 0x8, addend: 0x0, symName: __ZN8InfoMenuD2Ev, symObjAddr: 0x3D24, symBinAddr: 0x10000D2C4, symSize: 0x2C }
  - { offsetInCU: 0x1FD5E, offset: 0x51E5C, size: 0x8, addend: 0x0, symName: __ZN9DeathMenuD2Ev, symObjAddr: 0x3D50, symBinAddr: 0x10000D2F0, symSize: 0x2C }
  - { offsetInCU: 0x1FD8A, offset: 0x51E88, size: 0x8, addend: 0x0, symName: __ZN4GameD2Ev, symObjAddr: 0x3DD8, symBinAddr: 0x10000D31C, symSize: 0x30 }
  - { offsetInCU: 0x1FDB6, offset: 0x51EB4, size: 0x8, addend: 0x0, symName: __ZN11ApplicationD2Ev, symObjAddr: 0x3E08, symBinAddr: 0x10000D34C, symSize: 0x3C }
  - { offsetInCU: 0x1FDE2, offset: 0x51EE0, size: 0x8, addend: 0x0, symName: __ZNSt3__16vectorINS_4pairI6mypairIiEiEENS_9allocatorIS4_EEEC2B7v160006Ev, symObjAddr: 0x3E9C, symBinAddr: 0x10000D388, symSize: 0x58 }
  - { offsetInCU: 0x1FE16, offset: 0x51F14, size: 0x8, addend: 0x0, symName: __ZNSt3__117__compressed_pairIPNS_4pairI6mypairIiEiEENS_9allocatorIS4_EEEC1B7v160006IDnNS_18__default_init_tagEEEOT_OT0_, symObjAddr: 0x3EF4, symBinAddr: 0x10000D3E0, symSize: 0x3C }
  - { offsetInCU: 0x1FE6E, offset: 0x51F6C, size: 0x8, addend: 0x0, symName: __ZNSt3__117__compressed_pairIPNS_4pairI6mypairIiEiEENS_9allocatorIS4_EEEC2B7v160006IDnNS_18__default_init_tagEEEOT_OT0_, symObjAddr: 0x3F40, symBinAddr: 0x10000D42C, symSize: 0x40 }
  - { offsetInCU: 0x1FEC6, offset: 0x51FC4, size: 0x8, addend: 0x0, symName: __ZNSt3__122__compressed_pair_elemIPNS_4pairI6mypairIiEiEELi0ELb0EEC2B7v160006IDnvEEOT_, symObjAddr: 0x3F80, symBinAddr: 0x10000D46C, symSize: 0x1C }
  - { offsetInCU: 0x1FF08, offset: 0x52006, size: 0x8, addend: 0x0, symName: __ZNSt3__122__compressed_pair_elemINS_9allocatorINS_4pairI6mypairIiEiEEEELi1ELb1EEC2B7v160006ENS_18__default_init_tagE, symObjAddr: 0x3F9C, symBinAddr: 0x10000D488, symSize: 0x2C }
  - { offsetInCU: 0x1FF3C, offset: 0x5203A, size: 0x8, addend: 0x0, symName: __ZNSt3__19allocatorINS_4pairI6mypairIiEiEEEC2B7v160006Ev, symObjAddr: 0x3FC8, symBinAddr: 0x10000D4B4, symSize: 0x2C }
  - { offsetInCU: 0x1FF66, offset: 0x52064, size: 0x8, addend: 0x0, symName: __ZNSt3__116__non_trivial_ifILb1ENS_9allocatorINS_4pairI6mypairIiEiEEEEEC2B7v160006Ev, symObjAddr: 0x3FF4, symBinAddr: 0x10000D4E0, symSize: 0x14 }
  - { offsetInCU: 0x1FF90, offset: 0x5208E, size: 0x8, addend: 0x0, symName: __ZNSt3__16vectorINS_4pairI6mypairIiEiEENS_9allocatorIS4_EEED2B7v160006Ev, symObjAddr: 0x4008, symBinAddr: 0x10000D4F4, symSize: 0x44 }
  - { offsetInCU: 0x1FFBA, offset: 0x520B8, size: 0x8, addend: 0x0, symName: __ZNSt3__16vectorINS_4pairI6mypairIiEiEENS_9allocatorIS4_EEE16__destroy_vectorC1ERS7_, symObjAddr: 0x404C, symBinAddr: 0x10000D538, symSize: 0x34 }
  - { offsetInCU: 0x1FFF3, offset: 0x520F1, size: 0x8, addend: 0x0, symName: __ZNSt3__16vectorINS_4pairI6mypairIiEiEENS_9allocatorIS4_EEE16__destroy_vectorclB7v160006Ev, symObjAddr: 0x4080, symBinAddr: 0x10000D56C, symSize: 0x9C }
  - { offsetInCU: 0x20019, offset: 0x52117, size: 0x8, addend: 0x0, symName: __ZNSt3__16vectorINS_4pairI6mypairIiEiEENS_9allocatorIS4_EEE16__destroy_vectorC2ERS7_, symObjAddr: 0x411C, symBinAddr: 0x10000D608, symSize: 0x20 }
  - { offsetInCU: 0x20052, offset: 0x52150, size: 0x8, addend: 0x0, symName: __ZNKSt3__16vectorINS_4pairI6mypairIiEiEENS_9allocatorIS4_EEE17__annotate_deleteB7v160006Ev, symObjAddr: 0x413C, symBinAddr: 0x10000D628, symSize: 0xD4 }
  - { offsetInCU: 0x20078, offset: 0x52176, size: 0x8, addend: 0x0, symName: __ZNSt3__16vectorINS_4pairI6mypairIiEiEENS_9allocatorIS4_EEE7__clearB7v160006Ev, symObjAddr: 0x4220, symBinAddr: 0x10000D70C, symSize: 0x28 }
  - { offsetInCU: 0x2009E, offset: 0x5219C, size: 0x8, addend: 0x0, symName: __ZNSt3__116allocator_traitsINS_9allocatorINS_4pairI6mypairIiEiEEEEE10deallocateB7v160006ERS6_PS5_m, symObjAddr: 0x4248, symBinAddr: 0x10000D734, symSize: 0x34 }
  - { offsetInCU: 0x200E0, offset: 0x521DE, size: 0x8, addend: 0x0, symName: __ZNSt3__16vectorINS_4pairI6mypairIiEiEENS_9allocatorIS4_EEE7__allocB7v160006Ev, symObjAddr: 0x427C, symBinAddr: 0x10000D768, symSize: 0x28 }
  - { offsetInCU: 0x20106, offset: 0x52204, size: 0x8, addend: 0x0, symName: __ZNKSt3__16vectorINS_4pairI6mypairIiEiEENS_9allocatorIS4_EEE8capacityB7v160006Ev, symObjAddr: 0x42A4, symBinAddr: 0x10000D790, symSize: 0x40 }
  - { offsetInCU: 0x2012C, offset: 0x5222A, size: 0x8, addend: 0x0, symName: __ZNKSt3__16vectorINS_4pairI6mypairIiEiEENS_9allocatorIS4_EEE31__annotate_contiguous_containerB7v160006EPKvS9_S9_S9_, symObjAddr: 0x42E4, symBinAddr: 0x10000D7D0, symSize: 0x20 }
  - { offsetInCU: 0x20182, offset: 0x52280, size: 0x8, addend: 0x0, symName: __ZNKSt3__16vectorINS_4pairI6mypairIiEiEENS_9allocatorIS4_EEE4dataB7v160006Ev, symObjAddr: 0x4304, symBinAddr: 0x10000D7F0, symSize: 0x28 }
  - { offsetInCU: 0x201A8, offset: 0x522A6, size: 0x8, addend: 0x0, symName: __ZNKSt3__16vectorINS_4pairI6mypairIiEiEENS_9allocatorIS4_EEE4sizeB7v160006Ev, symObjAddr: 0x432C, symBinAddr: 0x10000D818, symSize: 0x28 }
  - { offsetInCU: 0x201CE, offset: 0x522CC, size: 0x8, addend: 0x0, symName: __ZNSt3__16vectorINS_4pairI6mypairIiEiEENS_9allocatorIS4_EEE22__base_destruct_at_endB7v160006EPS4_, symObjAddr: 0x4368, symBinAddr: 0x10000D854, symSize: 0x8C }
  - { offsetInCU: 0x20212, offset: 0x52310, size: 0x8, addend: 0x0, symName: __ZNSt3__116allocator_traitsINS_9allocatorINS_4pairI6mypairIiEiEEEEE7destroyB7v160006IS5_vEEvRS6_PT_, symObjAddr: 0x43F4, symBinAddr: 0x10000D8E0, symSize: 0x2C }
  - { offsetInCU: 0x2024F, offset: 0x5234D, size: 0x8, addend: 0x0, symName: __ZNSt3__19allocatorINS_4pairI6mypairIiEiEEE7destroyB7v160006EPS4_, symObjAddr: 0x4420, symBinAddr: 0x10000D90C, symSize: 0x14 }
  - { offsetInCU: 0x20283, offset: 0x52381, size: 0x8, addend: 0x0, symName: __ZNSt3__19allocatorINS_4pairI6mypairIiEiEEE10deallocateB7v160006EPS4_m, symObjAddr: 0x4434, symBinAddr: 0x10000D920, symSize: 0x44 }
  - { offsetInCU: 0x202C5, offset: 0x523C3, size: 0x8, addend: 0x0, symName: __ZNSt3__117__compressed_pairIPNS_4pairI6mypairIiEiEENS_9allocatorIS4_EEE6secondB7v160006Ev, symObjAddr: 0x4478, symBinAddr: 0x10000D964, symSize: 0x24 }
  - { offsetInCU: 0x202EB, offset: 0x523E9, size: 0x8, addend: 0x0, symName: __ZNSt3__122__compressed_pair_elemINS_9allocatorINS_4pairI6mypairIiEiEEEELi1ELb1EE5__getB7v160006Ev, symObjAddr: 0x449C, symBinAddr: 0x10000D988, symSize: 0x14 }
  - { offsetInCU: 0x20311, offset: 0x5240F, size: 0x8, addend: 0x0, symName: __ZNKSt3__16vectorINS_4pairI6mypairIiEiEENS_9allocatorIS4_EEE9__end_capB7v160006Ev, symObjAddr: 0x44B0, symBinAddr: 0x10000D99C, symSize: 0x28 }
  - { offsetInCU: 0x20337, offset: 0x52435, size: 0x8, addend: 0x0, symName: __ZNKSt3__117__compressed_pairIPNS_4pairI6mypairIiEiEENS_9allocatorIS4_EEE5firstB7v160006Ev, symObjAddr: 0x44D8, symBinAddr: 0x10000D9C4, symSize: 0x24 }
  - { offsetInCU: 0x2035D, offset: 0x5245B, size: 0x8, addend: 0x0, symName: __ZNKSt3__122__compressed_pair_elemIPNS_4pairI6mypairIiEiEELi0ELb0EE5__getB7v160006Ev, symObjAddr: 0x44FC, symBinAddr: 0x10000D9E8, symSize: 0x14 }
  - { offsetInCU: 0x20383, offset: 0x52481, size: 0x8, addend: 0x0, symName: __ZNSt3__16vectorINS_4pairI6mypairIiEiEENS_9allocatorIS4_EEE9__end_capB7v160006Ev, symObjAddr: 0x4510, symBinAddr: 0x10000D9FC, symSize: 0x28 }
  - { offsetInCU: 0x203A9, offset: 0x524A7, size: 0x8, addend: 0x0, symName: __ZNSt3__16vectorINS_4pairI6mypairIiEiEENS_9allocatorIS4_EEE22__construct_one_at_endB7v160006IJS4_EEEvDpOT_, symObjAddr: 0x4538, symBinAddr: 0x10000DA24, symSize: 0x90 }
  - { offsetInCU: 0x203F8, offset: 0x524F6, size: 0x8, addend: 0x0, symName: __ZNSt3__16vectorINS_4pairI6mypairIiEiEENS_9allocatorIS4_EEE21__push_back_slow_pathIS4_EEvOT_, symObjAddr: 0x45C8, symBinAddr: 0x10000DAB4, symSize: 0xD8 }
  - { offsetInCU: 0x20456, offset: 0x52554, size: 0x8, addend: 0x0, symName: __ZNSt3__117__compressed_pairIPNS_4pairI6mypairIiEiEENS_9allocatorIS4_EEE5firstB7v160006Ev, symObjAddr: 0x46A0, symBinAddr: 0x10000DB8C, symSize: 0x24 }
  - { offsetInCU: 0x2047C, offset: 0x5257A, size: 0x8, addend: 0x0, symName: __ZNSt3__122__compressed_pair_elemIPNS_4pairI6mypairIiEiEELi0ELb0EE5__getB7v160006Ev, symObjAddr: 0x46C4, symBinAddr: 0x10000DBB0, symSize: 0x14 }
  - { offsetInCU: 0x204BB, offset: 0x525B9, size: 0x8, addend: 0x0, symName: __ZNSt3__16vectorINS_4pairI6mypairIiEiEENS_9allocatorIS4_EEE21_ConstructTransactionC1B7v160006ERS7_m, symObjAddr: 0x46D8, symBinAddr: 0x10000DBC4, symSize: 0x3C }
  - { offsetInCU: 0x20503, offset: 0x52601, size: 0x8, addend: 0x0, symName: __ZNSt3__116allocator_traitsINS_9allocatorINS_4pairI6mypairIiEiEEEEE9constructB7v160006IS5_JS5_EvEEvRS6_PT_DpOT0_, symObjAddr: 0x4714, symBinAddr: 0x10000DC00, symSize: 0x34 }
  - { offsetInCU: 0x2055A, offset: 0x52658, size: 0x8, addend: 0x0, symName: __ZNSt3__16vectorINS_4pairI6mypairIiEiEENS_9allocatorIS4_EEE21_ConstructTransactionD1B7v160006Ev, symObjAddr: 0x4748, symBinAddr: 0x10000DC34, symSize: 0x2C }
  - { offsetInCU: 0x20584, offset: 0x52682, size: 0x8, addend: 0x0, symName: __ZNSt3__16vectorINS_4pairI6mypairIiEiEENS_9allocatorIS4_EEE21_ConstructTransactionC2B7v160006ERS7_m, symObjAddr: 0x4774, symBinAddr: 0x10000DC60, symSize: 0x4C }
  - { offsetInCU: 0x205CC, offset: 0x526CA, size: 0x8, addend: 0x0, symName: __ZNSt3__19allocatorINS_4pairI6mypairIiEiEEE9constructB7v160006IS4_JS4_EEEvPT_DpOT0_, symObjAddr: 0x47C0, symBinAddr: 0x10000DCAC, symSize: 0x30 }
  - { offsetInCU: 0x20622, offset: 0x52720, size: 0x8, addend: 0x0, symName: __ZNSt3__16vectorINS_4pairI6mypairIiEiEENS_9allocatorIS4_EEE21_ConstructTransactionD2B7v160006Ev, symObjAddr: 0x47F0, symBinAddr: 0x10000DCDC, symSize: 0x20 }
  - { offsetInCU: 0x2064C, offset: 0x5274A, size: 0x8, addend: 0x0, symName: __ZNKSt3__16vectorINS_4pairI6mypairIiEiEENS_9allocatorIS4_EEE11__recommendB7v160006Em, symObjAddr: 0x4810, symBinAddr: 0x10000DCFC, symSize: 0xB4 }
  - { offsetInCU: 0x206A1, offset: 0x5279F, size: 0x8, addend: 0x0, symName: __ZNSt3__114__split_bufferINS_4pairI6mypairIiEiEERNS_9allocatorIS4_EEEC1EmmS7_, symObjAddr: 0x48C4, symBinAddr: 0x10000DDB0, symSize: 0x44 }
  - { offsetInCU: 0x206F7, offset: 0x527F5, size: 0x8, addend: 0x0, symName: __ZNSt3__114__split_bufferINS_4pairI6mypairIiEiEERNS_9allocatorIS4_EEED1Ev, symObjAddr: 0x4A20, symBinAddr: 0x10000DF0C, symSize: 0x2C }
  - { offsetInCU: 0x20723, offset: 0x52821, size: 0x8, addend: 0x0, symName: __ZNKSt3__16vectorINS_4pairI6mypairIiEiEENS_9allocatorIS4_EEE8max_sizeEv, symObjAddr: 0x4A4C, symBinAddr: 0x10000DF38, symSize: 0x60 }
  - { offsetInCU: 0x2074B, offset: 0x52849, size: 0x8, addend: 0x0, symName: __ZNKSt3__16vectorINS_4pairI6mypairIiEiEENS_9allocatorIS4_EEE20__throw_length_errorB7v160006Ev, symObjAddr: 0x4AAC, symBinAddr: 0x10000DF98, symSize: 0x1C }
  - { offsetInCU: 0x2077B, offset: 0x52879, size: 0x8, addend: 0x0, symName: __ZNSt3__116allocator_traitsINS_9allocatorINS_4pairI6mypairIiEiEEEEE8max_sizeB7v160006IS6_vEEmRKS6_, symObjAddr: 0x4B20, symBinAddr: 0x10000DFE0, symSize: 0x24 }
  - { offsetInCU: 0x207A9, offset: 0x528A7, size: 0x8, addend: 0x0, symName: __ZNKSt3__16vectorINS_4pairI6mypairIiEiEENS_9allocatorIS4_EEE7__allocB7v160006Ev, symObjAddr: 0x4B44, symBinAddr: 0x10000E004, symSize: 0x28 }
  - { offsetInCU: 0x207CF, offset: 0x528CD, size: 0x8, addend: 0x0, symName: __ZNKSt3__19allocatorINS_4pairI6mypairIiEiEEE8max_sizeB7v160006Ev, symObjAddr: 0x4C08, symBinAddr: 0x10000E02C, symSize: 0x18 }
  - { offsetInCU: 0x207F5, offset: 0x528F3, size: 0x8, addend: 0x0, symName: __ZNKSt3__117__compressed_pairIPNS_4pairI6mypairIiEiEENS_9allocatorIS4_EEE6secondB7v160006Ev, symObjAddr: 0x4C20, symBinAddr: 0x10000E044, symSize: 0x24 }
  - { offsetInCU: 0x2081B, offset: 0x52919, size: 0x8, addend: 0x0, symName: __ZNKSt3__122__compressed_pair_elemINS_9allocatorINS_4pairI6mypairIiEiEEEELi1ELb1EE5__getB7v160006Ev, symObjAddr: 0x4C44, symBinAddr: 0x10000E068, symSize: 0x14 }
  - { offsetInCU: 0x20841, offset: 0x5293F, size: 0x8, addend: 0x0, symName: __ZNSt3__114__split_bufferINS_4pairI6mypairIiEiEERNS_9allocatorIS4_EEEC2EmmS7_, symObjAddr: 0x4D98, symBinAddr: 0x10000E0D0, symSize: 0xE0 }
  - { offsetInCU: 0x208B4, offset: 0x529B2, size: 0x8, addend: 0x0, symName: __ZNSt3__117__compressed_pairIPNS_4pairI6mypairIiEiEERNS_9allocatorIS4_EEEC1B7v160006IDnS8_EEOT_OT0_, symObjAddr: 0x4E78, symBinAddr: 0x10000E1B0, symSize: 0x3C }
  - { offsetInCU: 0x2090C, offset: 0x52A0A, size: 0x8, addend: 0x0, symName: __ZNSt3__114__split_bufferINS_4pairI6mypairIiEiEERNS_9allocatorIS4_EEE7__allocB7v160006Ev, symObjAddr: 0x4EF4, symBinAddr: 0x10000E22C, symSize: 0x28 }
  - { offsetInCU: 0x20932, offset: 0x52A30, size: 0x8, addend: 0x0, symName: __ZNSt3__114__split_bufferINS_4pairI6mypairIiEiEERNS_9allocatorIS4_EEE9__end_capB7v160006Ev, symObjAddr: 0x4F1C, symBinAddr: 0x10000E254, symSize: 0x28 }
  - { offsetInCU: 0x20958, offset: 0x52A56, size: 0x8, addend: 0x0, symName: __ZNSt3__117__compressed_pairIPNS_4pairI6mypairIiEiEERNS_9allocatorIS4_EEEC2B7v160006IDnS8_EEOT_OT0_, symObjAddr: 0x4F44, symBinAddr: 0x10000E27C, symSize: 0x48 }
  - { offsetInCU: 0x209B0, offset: 0x52AAE, size: 0x8, addend: 0x0, symName: __ZNSt3__122__compressed_pair_elemIRNS_9allocatorINS_4pairI6mypairIiEiEEEELi1ELb0EEC2B7v160006IS7_vEEOT_, symObjAddr: 0x4F8C, symBinAddr: 0x10000E2C4, symSize: 0x20 }
  - { offsetInCU: 0x209F2, offset: 0x52AF0, size: 0x8, addend: 0x0, symName: __ZNSt3__19allocatorINS_4pairI6mypairIiEiEEE8allocateB7v160006Em, symObjAddr: 0x4FAC, symBinAddr: 0x10000E2E4, symSize: 0x5C }
  - { offsetInCU: 0x20A26, offset: 0x52B24, size: 0x8, addend: 0x0, symName: __ZNSt3__117__compressed_pairIPNS_4pairI6mypairIiEiEERNS_9allocatorIS4_EEE6secondB7v160006Ev, symObjAddr: 0x50EC, symBinAddr: 0x10000E340, symSize: 0x28 }
  - { offsetInCU: 0x20A4C, offset: 0x52B4A, size: 0x8, addend: 0x0, symName: __ZNSt3__122__compressed_pair_elemIRNS_9allocatorINS_4pairI6mypairIiEiEEEELi1ELb0EE5__getB7v160006Ev, symObjAddr: 0x5114, symBinAddr: 0x10000E368, symSize: 0x18 }
  - { offsetInCU: 0x20A72, offset: 0x52B70, size: 0x8, addend: 0x0, symName: __ZNSt3__117__compressed_pairIPNS_4pairI6mypairIiEiEERNS_9allocatorIS4_EEE5firstB7v160006Ev, symObjAddr: 0x512C, symBinAddr: 0x10000E380, symSize: 0x24 }
  - { offsetInCU: 0x20A98, offset: 0x52B96, size: 0x8, addend: 0x0, symName: __ZNSt3__116reverse_iteratorIPNS_4pairI6mypairIiEiEEEC1B7v160006ES5_, symObjAddr: 0x527C, symBinAddr: 0x10000E4D0, symSize: 0x34 }
  - { offsetInCU: 0x20AD0, offset: 0x52BCE, size: 0x8, addend: 0x0, symName: __ZNKSt3__116reverse_iteratorIPNS_4pairI6mypairIiEiEEE4baseB7v160006Ev, symObjAddr: 0x52B0, symBinAddr: 0x10000E504, symSize: 0x18 }
  - { offsetInCU: 0x20AF6, offset: 0x52BF4, size: 0x8, addend: 0x0, symName: __ZNKSt3__16vectorINS_4pairI6mypairIiEiEENS_9allocatorIS4_EEE14__annotate_newB7v160006Em, symObjAddr: 0x5304, symBinAddr: 0x10000E558, symSize: 0xC8 }
  - { offsetInCU: 0x20B2B, offset: 0x52C29, size: 0x8, addend: 0x0, symName: __ZNSt3__129_AllocatorDestroyRangeReverseINS_9allocatorINS_4pairI6mypairIiEiEEEENS_16reverse_iteratorIPS5_EEEC1B7v160006ERS6_RS9_SC_, symObjAddr: 0x5428, symBinAddr: 0x10000E67C, symSize: 0x44 }
  - { offsetInCU: 0x20B82, offset: 0x52C80, size: 0x8, addend: 0x0, symName: __ZNKSt3__116reverse_iteratorIPNS_4pairI6mypairIiEiEEEdeB7v160006Ev, symObjAddr: 0x54D8, symBinAddr: 0x10000E72C, symSize: 0x28 }
  - { offsetInCU: 0x20BB6, offset: 0x52CB4, size: 0x8, addend: 0x0, symName: __ZNSt3__116reverse_iteratorIPNS_4pairI6mypairIiEiEEEppB7v160006Ev, symObjAddr: 0x5500, symBinAddr: 0x10000E754, symSize: 0x20 }
  - { offsetInCU: 0x20BDC, offset: 0x52CDA, size: 0x8, addend: 0x0, symName: __ZNSt3__128__exception_guard_exceptionsINS_29_AllocatorDestroyRangeReverseINS_9allocatorINS_4pairI6mypairIiEiEEEENS_16reverse_iteratorIPS6_EEEEE10__completeB7v160006Ev, symObjAddr: 0x5520, symBinAddr: 0x10000E774, symSize: 0x1C }
  - { offsetInCU: 0x20C02, offset: 0x52D00, size: 0x8, addend: 0x0, symName: __ZNSt3__128__exception_guard_exceptionsINS_29_AllocatorDestroyRangeReverseINS_9allocatorINS_4pairI6mypairIiEiEEEENS_16reverse_iteratorIPS6_EEEEED1B7v160006Ev, symObjAddr: 0x553C, symBinAddr: 0x10000E790, symSize: 0x2C }
  - { offsetInCU: 0x20C2C, offset: 0x52D2A, size: 0x8, addend: 0x0, symName: __ZNSt3__128__exception_guard_exceptionsINS_29_AllocatorDestroyRangeReverseINS_9allocatorINS_4pairI6mypairIiEiEEEENS_16reverse_iteratorIPS6_EEEEEC1B7v160006ESB_, symObjAddr: 0x5568, symBinAddr: 0x10000E7BC, symSize: 0x34 }
  - { offsetInCU: 0x20C65, offset: 0x52D63, size: 0x8, addend: 0x0, symName: __ZNSt3__128__exception_guard_exceptionsINS_29_AllocatorDestroyRangeReverseINS_9allocatorINS_4pairI6mypairIiEiEEEENS_16reverse_iteratorIPS6_EEEEEC2B7v160006ESB_, symObjAddr: 0x559C, symBinAddr: 0x10000E7F0, symSize: 0x30 }
  - { offsetInCU: 0x20C9E, offset: 0x52D9C, size: 0x8, addend: 0x0, symName: __ZNSt3__129_AllocatorDestroyRangeReverseINS_9allocatorINS_4pairI6mypairIiEiEEEENS_16reverse_iteratorIPS5_EEEC2B7v160006ERS6_RS9_SC_, symObjAddr: 0x55CC, symBinAddr: 0x10000E820, symSize: 0x38 }
  - { offsetInCU: 0x20CFA, offset: 0x52DF8, size: 0x8, addend: 0x0, symName: __ZNSt3__119__to_address_helperINS_16reverse_iteratorIPNS_4pairI6mypairIiEiEEEEvE6__callB7v160006ERKS7_, symObjAddr: 0x5604, symBinAddr: 0x10000E858, symSize: 0x38 }
  - { offsetInCU: 0x20D1D, offset: 0x52E1B, size: 0x8, addend: 0x0, symName: __ZNKSt3__116reverse_iteratorIPNS_4pairI6mypairIiEiEEEptB7v160006Ev, symObjAddr: 0x563C, symBinAddr: 0x10000E890, symSize: 0x24 }
  - { offsetInCU: 0x20D43, offset: 0x52E41, size: 0x8, addend: 0x0, symName: __ZNSt3__128__exception_guard_exceptionsINS_29_AllocatorDestroyRangeReverseINS_9allocatorINS_4pairI6mypairIiEiEEEENS_16reverse_iteratorIPS6_EEEEED2B7v160006Ev, symObjAddr: 0x5660, symBinAddr: 0x10000E8B4, symSize: 0x50 }
  - { offsetInCU: 0x20D6D, offset: 0x52E6B, size: 0x8, addend: 0x0, symName: __ZNKSt3__129_AllocatorDestroyRangeReverseINS_9allocatorINS_4pairI6mypairIiEiEEEENS_16reverse_iteratorIPS5_EEEclB7v160006Ev, symObjAddr: 0x56B0, symBinAddr: 0x10000E904, symSize: 0xB4 }
  - { offsetInCU: 0x20D94, offset: 0x52E92, size: 0x8, addend: 0x0, symName: __ZNSt3__116reverse_iteratorINS0_IPNS_4pairI6mypairIiEiEEEEEC1B7v160006ES6_, symObjAddr: 0x57D4, symBinAddr: 0x10000EA28, symSize: 0x3C }
  - { offsetInCU: 0x20DCC, offset: 0x52ECA, size: 0x8, addend: 0x0, symName: __ZNSt3__116reverse_iteratorINS0_IPNS_4pairI6mypairIiEiEEEEEppB7v160006Ev, symObjAddr: 0x5894, symBinAddr: 0x10000EAE8, symSize: 0x30 }
  - { offsetInCU: 0x20DF2, offset: 0x52EF0, size: 0x8, addend: 0x0, symName: __ZNKSt3__116reverse_iteratorINS0_IPNS_4pairI6mypairIiEiEEEEE4baseB7v160006Ev, symObjAddr: 0x58C4, symBinAddr: 0x10000EB18, symSize: 0x24 }
  - { offsetInCU: 0x20E1D, offset: 0x52F1B, size: 0x8, addend: 0x0, symName: __ZNSt3__119__to_address_helperINS_16reverse_iteratorINS1_IPNS_4pairI6mypairIiEiEEEEEEvE6__callB7v160006ERKS8_, symObjAddr: 0x58E8, symBinAddr: 0x10000EB3C, symSize: 0x38 }
  - { offsetInCU: 0x20E40, offset: 0x52F3E, size: 0x8, addend: 0x0, symName: __ZNKSt3__116reverse_iteratorINS0_IPNS_4pairI6mypairIiEiEEEEEptB7v160006Ev, symObjAddr: 0x5920, symBinAddr: 0x10000EB74, symSize: 0x24 }
  - { offsetInCU: 0x20E66, offset: 0x52F64, size: 0x8, addend: 0x0, symName: __ZNKSt3__116reverse_iteratorINS0_IPNS_4pairI6mypairIiEiEEEEEdeB7v160006Ev, symObjAddr: 0x5944, symBinAddr: 0x10000EB98, symSize: 0x34 }
  - { offsetInCU: 0x20E9A, offset: 0x52F98, size: 0x8, addend: 0x0, symName: __ZNSt3__116reverse_iteratorIPNS_4pairI6mypairIiEiEEEmmB7v160006Ev, symObjAddr: 0x5978, symBinAddr: 0x10000EBCC, symSize: 0x20 }
  - { offsetInCU: 0x20EC0, offset: 0x52FBE, size: 0x8, addend: 0x0, symName: __ZNSt3__116reverse_iteratorINS0_IPNS_4pairI6mypairIiEiEEEEEC2B7v160006ES6_, symObjAddr: 0x5998, symBinAddr: 0x10000EBEC, symSize: 0x2C }
  - { offsetInCU: 0x20EF8, offset: 0x52FF6, size: 0x8, addend: 0x0, symName: __ZNSt3__116reverse_iteratorIPNS_4pairI6mypairIiEiEEEC2B7v160006ES5_, symObjAddr: 0x59C4, symBinAddr: 0x10000EC18, symSize: 0x28 }
  - { offsetInCU: 0x20F30, offset: 0x5302E, size: 0x8, addend: 0x0, symName: __ZNSt3__114__split_bufferINS_4pairI6mypairIiEiEERNS_9allocatorIS4_EEED2Ev, symObjAddr: 0x59EC, symBinAddr: 0x10000EC40, symSize: 0x8C }
  - { offsetInCU: 0x20F5C, offset: 0x5305A, size: 0x8, addend: 0x0, symName: __ZNSt3__114__split_bufferINS_4pairI6mypairIiEiEERNS_9allocatorIS4_EEE5clearB7v160006Ev, symObjAddr: 0x5A78, symBinAddr: 0x10000ECCC, symSize: 0x28 }
  - { offsetInCU: 0x20F82, offset: 0x53080, size: 0x8, addend: 0x0, symName: __ZNKSt3__114__split_bufferINS_4pairI6mypairIiEiEERNS_9allocatorIS4_EEE8capacityB7v160006Ev, symObjAddr: 0x5AA0, symBinAddr: 0x10000ECF4, symSize: 0x40 }
  - { offsetInCU: 0x20FA8, offset: 0x530A6, size: 0x8, addend: 0x0, symName: __ZNSt3__114__split_bufferINS_4pairI6mypairIiEiEERNS_9allocatorIS4_EEE17__destruct_at_endB7v160006EPS4_, symObjAddr: 0x5AE0, symBinAddr: 0x10000ED34, symSize: 0x2C }
  - { offsetInCU: 0x20FDC, offset: 0x530DA, size: 0x8, addend: 0x0, symName: __ZNSt3__114__split_bufferINS_4pairI6mypairIiEiEERNS_9allocatorIS4_EEE17__destruct_at_endB7v160006EPS4_NS_17integral_constantIbLb0EEE, symObjAddr: 0x5B0C, symBinAddr: 0x10000ED60, symSize: 0x80 }
  - { offsetInCU: 0x2101C, offset: 0x5311A, size: 0x8, addend: 0x0, symName: __ZNKSt3__114__split_bufferINS_4pairI6mypairIiEiEERNS_9allocatorIS4_EEE9__end_capB7v160006Ev, symObjAddr: 0x5B8C, symBinAddr: 0x10000EDE0, symSize: 0x28 }
  - { offsetInCU: 0x21042, offset: 0x53140, size: 0x8, addend: 0x0, symName: __ZNKSt3__117__compressed_pairIPNS_4pairI6mypairIiEiEERNS_9allocatorIS4_EEE5firstB7v160006Ev, symObjAddr: 0x5BB4, symBinAddr: 0x10000EE08, symSize: 0x24 }
  - { offsetInCU: 0x21068, offset: 0x53166, size: 0x8, addend: 0x0, symName: __ZNSt3__16vectorINS_10shared_ptrI5EnemyEENS_9allocatorIS3_EEEC2B7v160006Ev, symObjAddr: 0x5BD8, symBinAddr: 0x10000EE2C, symSize: 0x58 }
  - { offsetInCU: 0x21092, offset: 0x53190, size: 0x8, addend: 0x0, symName: __ZNSt3__117__compressed_pairIPNS_10shared_ptrI5EnemyEENS_9allocatorIS3_EEEC1B7v160006IDnNS_18__default_init_tagEEEOT_OT0_, symObjAddr: 0x5C30, symBinAddr: 0x10000EE84, symSize: 0x3C }
  - { offsetInCU: 0x210EA, offset: 0x531E8, size: 0x8, addend: 0x0, symName: __ZNSt3__117__compressed_pairIPNS_10shared_ptrI5EnemyEENS_9allocatorIS3_EEEC2B7v160006IDnNS_18__default_init_tagEEEOT_OT0_, symObjAddr: 0x5C7C, symBinAddr: 0x10000EED0, symSize: 0x40 }
  - { offsetInCU: 0x21142, offset: 0x53240, size: 0x8, addend: 0x0, symName: __ZNSt3__122__compressed_pair_elemIPNS_10shared_ptrI5EnemyEELi0ELb0EEC2B7v160006IDnvEEOT_, symObjAddr: 0x5CBC, symBinAddr: 0x10000EF10, symSize: 0x1C }
  - { offsetInCU: 0x21184, offset: 0x53282, size: 0x8, addend: 0x0, symName: __ZNSt3__122__compressed_pair_elemINS_9allocatorINS_10shared_ptrI5EnemyEEEELi1ELb1EEC2B7v160006ENS_18__default_init_tagE, symObjAddr: 0x5CD8, symBinAddr: 0x10000EF2C, symSize: 0x2C }
  - { offsetInCU: 0x211B8, offset: 0x532B6, size: 0x8, addend: 0x0, symName: __ZNSt3__19allocatorINS_10shared_ptrI5EnemyEEEC2B7v160006Ev, symObjAddr: 0x5D04, symBinAddr: 0x10000EF58, symSize: 0x2C }
  - { offsetInCU: 0x211E2, offset: 0x532E0, size: 0x8, addend: 0x0, symName: __ZNSt3__116__non_trivial_ifILb1ENS_9allocatorINS_10shared_ptrI5EnemyEEEEEC2B7v160006Ev, symObjAddr: 0x5D30, symBinAddr: 0x10000EF84, symSize: 0x14 }
  - { offsetInCU: 0x2120C, offset: 0x5330A, size: 0x8, addend: 0x0, symName: __ZNSt3__16vectorINS_10shared_ptrI5EnemyEENS_9allocatorIS3_EEED2B7v160006Ev, symObjAddr: 0x5D44, symBinAddr: 0x10000EF98, symSize: 0x44 }
  - { offsetInCU: 0x21236, offset: 0x53334, size: 0x8, addend: 0x0, symName: __ZNSt3__16vectorINS_10shared_ptrI5EnemyEENS_9allocatorIS3_EEE16__destroy_vectorC1ERS6_, symObjAddr: 0x5D88, symBinAddr: 0x10000EFDC, symSize: 0x34 }
  - { offsetInCU: 0x2126F, offset: 0x5336D, size: 0x8, addend: 0x0, symName: __ZNSt3__16vectorINS_10shared_ptrI5EnemyEENS_9allocatorIS3_EEE16__destroy_vectorclB7v160006Ev, symObjAddr: 0x5DBC, symBinAddr: 0x10000F010, symSize: 0x9C }
  - { offsetInCU: 0x21295, offset: 0x53393, size: 0x8, addend: 0x0, symName: __ZNSt3__16vectorINS_10shared_ptrI5EnemyEENS_9allocatorIS3_EEE16__destroy_vectorC2ERS6_, symObjAddr: 0x5E58, symBinAddr: 0x10000F0AC, symSize: 0x20 }
  - { offsetInCU: 0x212CE, offset: 0x533CC, size: 0x8, addend: 0x0, symName: __ZNKSt3__16vectorINS_10shared_ptrI5EnemyEENS_9allocatorIS3_EEE17__annotate_deleteB7v160006Ev, symObjAddr: 0x5E78, symBinAddr: 0x10000F0CC, symSize: 0xB8 }
  - { offsetInCU: 0x212F4, offset: 0x533F2, size: 0x8, addend: 0x0, symName: __ZNSt3__16vectorINS_10shared_ptrI5EnemyEENS_9allocatorIS3_EEE7__clearB7v160006Ev, symObjAddr: 0x5F40, symBinAddr: 0x10000F194, symSize: 0x28 }
  - { offsetInCU: 0x2131A, offset: 0x53418, size: 0x8, addend: 0x0, symName: __ZNSt3__116allocator_traitsINS_9allocatorINS_10shared_ptrI5EnemyEEEEE10deallocateB7v160006ERS5_PS4_m, symObjAddr: 0x5F68, symBinAddr: 0x10000F1BC, symSize: 0x34 }
  - { offsetInCU: 0x2135C, offset: 0x5345A, size: 0x8, addend: 0x0, symName: __ZNSt3__16vectorINS_10shared_ptrI5EnemyEENS_9allocatorIS3_EEE7__allocB7v160006Ev, symObjAddr: 0x5F9C, symBinAddr: 0x10000F1F0, symSize: 0x28 }
  - { offsetInCU: 0x21382, offset: 0x53480, size: 0x8, addend: 0x0, symName: __ZNKSt3__16vectorINS_10shared_ptrI5EnemyEENS_9allocatorIS3_EEE8capacityB7v160006Ev, symObjAddr: 0x5FC4, symBinAddr: 0x10000F218, symSize: 0x40 }
  - { offsetInCU: 0x213A8, offset: 0x534A6, size: 0x8, addend: 0x0, symName: __ZNKSt3__16vectorINS_10shared_ptrI5EnemyEENS_9allocatorIS3_EEE31__annotate_contiguous_containerB7v160006EPKvS8_S8_S8_, symObjAddr: 0x6004, symBinAddr: 0x10000F258, symSize: 0x20 }
  - { offsetInCU: 0x213FE, offset: 0x534FC, size: 0x8, addend: 0x0, symName: __ZNKSt3__16vectorINS_10shared_ptrI5EnemyEENS_9allocatorIS3_EEE4dataB7v160006Ev, symObjAddr: 0x6024, symBinAddr: 0x10000F278, symSize: 0x28 }
  - { offsetInCU: 0x21424, offset: 0x53522, size: 0x8, addend: 0x0, symName: __ZNKSt3__16vectorINS_10shared_ptrI5EnemyEENS_9allocatorIS3_EEE4sizeB7v160006Ev, symObjAddr: 0x604C, symBinAddr: 0x10000F2A0, symSize: 0x28 }
  - { offsetInCU: 0x2144A, offset: 0x53548, size: 0x8, addend: 0x0, symName: __ZNSt3__16vectorINS_10shared_ptrI5EnemyEENS_9allocatorIS3_EEE22__base_destruct_at_endB7v160006EPS3_, symObjAddr: 0x6088, symBinAddr: 0x10000F2DC, symSize: 0x8C }
  - { offsetInCU: 0x2148E, offset: 0x5358C, size: 0x8, addend: 0x0, symName: __ZNSt3__116allocator_traitsINS_9allocatorINS_10shared_ptrI5EnemyEEEEE7destroyB7v160006IS4_vEEvRS5_PT_, symObjAddr: 0x6114, symBinAddr: 0x10000F368, symSize: 0x2C }
  - { offsetInCU: 0x214CB, offset: 0x535C9, size: 0x8, addend: 0x0, symName: __ZNSt3__19allocatorINS_10shared_ptrI5EnemyEEE7destroyB7v160006EPS3_, symObjAddr: 0x6140, symBinAddr: 0x10000F394, symSize: 0x28 }
  - { offsetInCU: 0x214FF, offset: 0x535FD, size: 0x8, addend: 0x0, symName: __ZNSt3__19allocatorINS_10shared_ptrI5EnemyEEE10deallocateB7v160006EPS3_m, symObjAddr: 0x6168, symBinAddr: 0x10000F3BC, symSize: 0x40 }
  - { offsetInCU: 0x21541, offset: 0x5363F, size: 0x8, addend: 0x0, symName: __ZNSt3__117__compressed_pairIPNS_10shared_ptrI5EnemyEENS_9allocatorIS3_EEE6secondB7v160006Ev, symObjAddr: 0x61A8, symBinAddr: 0x10000F3FC, symSize: 0x24 }
  - { offsetInCU: 0x21567, offset: 0x53665, size: 0x8, addend: 0x0, symName: __ZNSt3__122__compressed_pair_elemINS_9allocatorINS_10shared_ptrI5EnemyEEEELi1ELb1EE5__getB7v160006Ev, symObjAddr: 0x61CC, symBinAddr: 0x10000F420, symSize: 0x14 }
  - { offsetInCU: 0x2158D, offset: 0x5368B, size: 0x8, addend: 0x0, symName: __ZNKSt3__16vectorINS_10shared_ptrI5EnemyEENS_9allocatorIS3_EEE9__end_capB7v160006Ev, symObjAddr: 0x61E0, symBinAddr: 0x10000F434, symSize: 0x28 }
  - { offsetInCU: 0x215B3, offset: 0x536B1, size: 0x8, addend: 0x0, symName: __ZNKSt3__117__compressed_pairIPNS_10shared_ptrI5EnemyEENS_9allocatorIS3_EEE5firstB7v160006Ev, symObjAddr: 0x6208, symBinAddr: 0x10000F45C, symSize: 0x24 }
  - { offsetInCU: 0x215D9, offset: 0x536D7, size: 0x8, addend: 0x0, symName: __ZNKSt3__122__compressed_pair_elemIPNS_10shared_ptrI5EnemyEELi0ELb0EE5__getB7v160006Ev, symObjAddr: 0x622C, symBinAddr: 0x10000F480, symSize: 0x14 }
  - { offsetInCU: 0x215FF, offset: 0x536FD, size: 0x8, addend: 0x0, symName: __ZNSt3__19allocatorI5EnemyEC1B7v160006Ev, symObjAddr: 0x62D8, symBinAddr: 0x10000F52C, symSize: 0x2C }
  - { offsetInCU: 0x21665, offset: 0x53763, size: 0x8, addend: 0x0, symName: __ZNSt3__118__allocation_guardINS_9allocatorINS_20__shared_ptr_emplaceI5EnemyNS1_IS3_EEEEEEEC1B7v160006IS4_EET_m, symObjAddr: 0x6304, symBinAddr: 0x10000F558, symSize: 0x34 }
  - { offsetInCU: 0x216B4, offset: 0x537B2, size: 0x8, addend: 0x0, symName: __ZNKSt3__118__allocation_guardINS_9allocatorINS_20__shared_ptr_emplaceI5EnemyNS1_IS3_EEEEEEE5__getB7v160006Ev, symObjAddr: 0x6338, symBinAddr: 0x10000F58C, symSize: 0x18 }
  - { offsetInCU: 0x216DF, offset: 0x537DD, size: 0x8, addend: 0x0, symName: __ZNSt3__120__shared_ptr_emplaceI5EnemyNS_9allocatorIS1_EEEC1B7v160006IJS1_EEES3_DpOT_, symObjAddr: 0x6350, symBinAddr: 0x10000F5A4, symSize: 0x34 }
  - { offsetInCU: 0x21732, offset: 0x53830, size: 0x8, addend: 0x0, symName: __ZNSt3__118__allocation_guardINS_9allocatorINS_20__shared_ptr_emplaceI5EnemyNS1_IS3_EEEEEEE13__release_ptrB7v160006Ev, symObjAddr: 0x6384, symBinAddr: 0x10000F5D8, symSize: 0x24 }
  - { offsetInCU: 0x21766, offset: 0x53864, size: 0x8, addend: 0x0, symName: __ZNSt3__110shared_ptrI5EnemyE27__create_with_control_blockB7v160006IS1_NS_20__shared_ptr_emplaceIS1_NS_9allocatorIS1_EEEEEES2_PT_PT0_, symObjAddr: 0x63A8, symBinAddr: 0x10000F5FC, symSize: 0xA4 }
  - { offsetInCU: 0x217BB, offset: 0x538B9, size: 0x8, addend: 0x0, symName: __ZNSt3__120__shared_ptr_emplaceI5EnemyNS_9allocatorIS1_EEE10__get_elemB7v160006Ev, symObjAddr: 0x644C, symBinAddr: 0x10000F6A0, symSize: 0x28 }
  - { offsetInCU: 0x217E1, offset: 0x538DF, size: 0x8, addend: 0x0, symName: __ZNSt3__118__allocation_guardINS_9allocatorINS_20__shared_ptr_emplaceI5EnemyNS1_IS3_EEEEEEED1B7v160006Ev, symObjAddr: 0x6474, symBinAddr: 0x10000F6C8, symSize: 0x2C }
  - { offsetInCU: 0x2180B, offset: 0x53909, size: 0x8, addend: 0x0, symName: __ZNSt3__118__allocation_guardINS_9allocatorINS_20__shared_ptr_emplaceI5EnemyNS1_IS3_EEEEEEEC2B7v160006IS4_EET_m, symObjAddr: 0x64A0, symBinAddr: 0x10000F6F4, symSize: 0x50 }
  - { offsetInCU: 0x2185A, offset: 0x53958, size: 0x8, addend: 0x0, symName: __ZNSt3__19allocatorINS_20__shared_ptr_emplaceI5EnemyNS0_IS2_EEEEEC1B7v160006IS2_EERKNS0_IT_EE, symObjAddr: 0x64F0, symBinAddr: 0x10000F744, symSize: 0x34 }
  - { offsetInCU: 0x21897, offset: 0x53995, size: 0x8, addend: 0x0, symName: __ZNSt3__116allocator_traitsINS_9allocatorINS_20__shared_ptr_emplaceI5EnemyNS1_IS3_EEEEEEE8allocateB7v160006ERS6_m, symObjAddr: 0x6524, symBinAddr: 0x10000F778, symSize: 0x2C }
  - { offsetInCU: 0x218CA, offset: 0x539C8, size: 0x8, addend: 0x0, symName: __ZNSt3__19allocatorINS_20__shared_ptr_emplaceI5EnemyNS0_IS2_EEEEEC2B7v160006IS2_EERKNS0_IT_EE, symObjAddr: 0x6550, symBinAddr: 0x10000F7A4, symSize: 0x30 }
  - { offsetInCU: 0x21907, offset: 0x53A05, size: 0x8, addend: 0x0, symName: __ZNSt3__116__non_trivial_ifILb1ENS_9allocatorINS_20__shared_ptr_emplaceI5EnemyNS1_IS3_EEEEEEEC2B7v160006Ev, symObjAddr: 0x6580, symBinAddr: 0x10000F7D4, symSize: 0x14 }
  - { offsetInCU: 0x21931, offset: 0x53A2F, size: 0x8, addend: 0x0, symName: __ZNSt3__19allocatorINS_20__shared_ptr_emplaceI5EnemyNS0_IS2_EEEEE8allocateB7v160006Em, symObjAddr: 0x6594, symBinAddr: 0x10000F7E8, symSize: 0x5C }
  - { offsetInCU: 0x2196F, offset: 0x53A6D, size: 0x8, addend: 0x0, symName: __ZNSt3__116allocator_traitsINS_9allocatorINS_20__shared_ptr_emplaceI5EnemyNS1_IS3_EEEEEEE8max_sizeB7v160006IS6_vEEmRKS6_, symObjAddr: 0x65F0, symBinAddr: 0x10000F844, symSize: 0x24 }
  - { offsetInCU: 0x2199D, offset: 0x53A9B, size: 0x8, addend: 0x0, symName: __ZNKSt3__19allocatorINS_20__shared_ptr_emplaceI5EnemyNS0_IS2_EEEEE8max_sizeB7v160006Ev, symObjAddr: 0x6614, symBinAddr: 0x10000F868, symSize: 0x20 }
  - { offsetInCU: 0x219C3, offset: 0x53AC1, size: 0x8, addend: 0x0, symName: __ZNSt3__120__shared_ptr_emplaceI5EnemyNS_9allocatorIS1_EEEC2B7v160006IJS1_EEES3_DpOT_, symObjAddr: 0x6634, symBinAddr: 0x10000F888, symSize: 0x94 }
  - { offsetInCU: 0x21A16, offset: 0x53B14, size: 0x8, addend: 0x0, symName: __ZNSt3__119__shared_weak_countC2B7v160006El, symObjAddr: 0x66C8, symBinAddr: 0x10000F91C, symSize: 0x54 }
  - { offsetInCU: 0x21A4E, offset: 0x53B4C, size: 0x8, addend: 0x0, symName: __ZNSt3__120__shared_ptr_emplaceI5EnemyNS_9allocatorIS1_EEE8_StorageC1B7v160006EOS3_, symObjAddr: 0x671C, symBinAddr: 0x10000F970, symSize: 0x34 }
  - { offsetInCU: 0x21A87, offset: 0x53B85, size: 0x8, addend: 0x0, symName: __ZN5EnemyC1EOS_, symObjAddr: 0x6750, symBinAddr: 0x10000F9A4, symSize: 0x34 }
  - { offsetInCU: 0x21ABC, offset: 0x53BBA, size: 0x8, addend: 0x0, symName: __ZNSt3__120__shared_ptr_emplaceI5EnemyNS_9allocatorIS1_EEED1Ev, symObjAddr: 0x6784, symBinAddr: 0x10000F9D8, symSize: 0x2C }
  - { offsetInCU: 0x21AE9, offset: 0x53BE7, size: 0x8, addend: 0x0, symName: __ZNSt3__120__shared_ptr_emplaceI5EnemyNS_9allocatorIS1_EEED0Ev, symObjAddr: 0x67B0, symBinAddr: 0x10000FA04, symSize: 0x30 }
  - { offsetInCU: 0x21B16, offset: 0x53C14, size: 0x8, addend: 0x0, symName: __ZNSt3__120__shared_ptr_emplaceI5EnemyNS_9allocatorIS1_EEE16__on_zero_sharedEv, symObjAddr: 0x67E0, symBinAddr: 0x10000FA34, symSize: 0x30 }
  - { offsetInCU: 0x21B3C, offset: 0x53C3A, size: 0x8, addend: 0x0, symName: __ZNSt3__120__shared_ptr_emplaceI5EnemyNS_9allocatorIS1_EEE21__on_zero_shared_weakEv, symObjAddr: 0x6810, symBinAddr: 0x10000FA64, symSize: 0x5C }
  - { offsetInCU: 0x21B7D, offset: 0x53C7B, size: 0x8, addend: 0x0, symName: __ZNSt3__114__shared_countC2B7v160006El, symObjAddr: 0x686C, symBinAddr: 0x10000FAC0, symSize: 0x30 }
  - { offsetInCU: 0x21BB5, offset: 0x53CB3, size: 0x8, addend: 0x0, symName: __ZNSt3__120__shared_ptr_emplaceI5EnemyNS_9allocatorIS1_EEE8_StorageC2B7v160006EOS3_, symObjAddr: 0x689C, symBinAddr: 0x10000FAF0, symSize: 0x30 }
  - { offsetInCU: 0x21BEE, offset: 0x53CEC, size: 0x8, addend: 0x0, symName: __ZNSt3__120__shared_ptr_emplaceI5EnemyNS_9allocatorIS1_EEE8_Storage11__get_allocEv, symObjAddr: 0x68CC, symBinAddr: 0x10000FB20, symSize: 0x3C }
  - { offsetInCU: 0x21C41, offset: 0x53D3F, size: 0x8, addend: 0x0, symName: __ZNSt3__117__compressed_pairINS_9allocatorI5EnemyEES2_E16__get_first_baseB7v160006EPS4_, symObjAddr: 0x6908, symBinAddr: 0x10000FB5C, symSize: 0x14 }
  - { offsetInCU: 0x21C64, offset: 0x53D62, size: 0x8, addend: 0x0, symName: __ZN5EnemyC2EOS_, symObjAddr: 0x691C, symBinAddr: 0x10000FB70, symSize: 0x64 }
  - { offsetInCU: 0x21C9E, offset: 0x53D9C, size: 0x8, addend: 0x0, symName: __ZN12LivingEntityC2EOS_, symObjAddr: 0x6980, symBinAddr: 0x10000FBD4, symSize: 0x6C }
  - { offsetInCU: 0x21CD8, offset: 0x53DD6, size: 0x8, addend: 0x0, symName: __ZN6EntityC2ERKS_, symObjAddr: 0x69EC, symBinAddr: 0x10000FC40, symSize: 0x34 }
  - { offsetInCU: 0x21D0D, offset: 0x53E0B, size: 0x8, addend: 0x0, symName: __ZNSt3__16vectorIbNS_9allocatorIbEEEC1B7v160006EOS3_, symObjAddr: 0x6A20, symBinAddr: 0x10000FC74, symSize: 0x34 }
  - { offsetInCU: 0x21D48, offset: 0x53E46, size: 0x8, addend: 0x0, symName: __ZNSt3__16vectorIbNS_9allocatorIbEEEC2B7v160006EOS3_, symObjAddr: 0x6A54, symBinAddr: 0x10000FCA8, symSize: 0x70 }
  - { offsetInCU: 0x21D83, offset: 0x53E81, size: 0x8, addend: 0x0, symName: __ZNSt3__120__shared_ptr_emplaceI5EnemyNS_9allocatorIS1_EEED2Ev, symObjAddr: 0x6AC4, symBinAddr: 0x10000FD18, symSize: 0x48 }
  - { offsetInCU: 0x21DB0, offset: 0x53EAE, size: 0x8, addend: 0x0, symName: __ZNSt3__120__shared_ptr_emplaceI5EnemyNS_9allocatorIS1_EEE8_StorageD1B7v160006Ev, symObjAddr: 0x6B0C, symBinAddr: 0x10000FD60, symSize: 0x2C }
  - { offsetInCU: 0x21DDA, offset: 0x53ED8, size: 0x8, addend: 0x0, symName: __ZNSt3__120__shared_ptr_emplaceI5EnemyNS_9allocatorIS1_EEE8_StorageD2B7v160006Ev, symObjAddr: 0x6B38, symBinAddr: 0x10000FD8C, symSize: 0x2C }
  - { offsetInCU: 0x21E04, offset: 0x53F02, size: 0x8, addend: 0x0, symName: __ZNSt3__120__shared_ptr_emplaceI5EnemyNS_9allocatorIS1_EEE11__get_allocB7v160006Ev, symObjAddr: 0x6B64, symBinAddr: 0x10000FDB8, symSize: 0x28 }
  - { offsetInCU: 0x21E2A, offset: 0x53F28, size: 0x8, addend: 0x0, symName: __ZNSt3__116allocator_traitsINS_9allocatorINS_20__shared_ptr_emplaceI5EnemyNS1_IS3_EEEEEEE10deallocateB7v160006ERS6_PS5_m, symObjAddr: 0x6B8C, symBinAddr: 0x10000FDE0, symSize: 0x34 }
  - { offsetInCU: 0x21E6C, offset: 0x53F6A, size: 0x8, addend: 0x0, symName: __ZNSt3__114pointer_traitsIPNS_20__shared_ptr_emplaceI5EnemyNS_9allocatorIS2_EEEEE10pointer_toB7v160006ERS5_, symObjAddr: 0x6BC0, symBinAddr: 0x10000FE14, symSize: 0x14 }
  - { offsetInCU: 0x21E8F, offset: 0x53F8D, size: 0x8, addend: 0x0, symName: __ZNSt3__19allocatorINS_20__shared_ptr_emplaceI5EnemyNS0_IS2_EEEEE10deallocateB7v160006EPS4_m, symObjAddr: 0x6BD4, symBinAddr: 0x10000FE28, symSize: 0x44 }
  - { offsetInCU: 0x21ED1, offset: 0x53FCF, size: 0x8, addend: 0x0, symName: __ZNSt3__110shared_ptrI5EnemyEC1B7v160006Ev, symObjAddr: 0x6C18, symBinAddr: 0x10000FE6C, symSize: 0x2C }
  - { offsetInCU: 0x21EFB, offset: 0x53FF9, size: 0x8, addend: 0x0, symName: __ZNSt3__110shared_ptrI5EnemyE18__enable_weak_thisB7v160006Ez, symObjAddr: 0x6C44, symBinAddr: 0x10000FE98, symSize: 0x10 }
  - { offsetInCU: 0x21F22, offset: 0x54020, size: 0x8, addend: 0x0, symName: __ZNSt3__110shared_ptrI5EnemyEC2B7v160006Ev, symObjAddr: 0x6C54, symBinAddr: 0x10000FEA8, symSize: 0x1C }
  - { offsetInCU: 0x21F4C, offset: 0x5404A, size: 0x8, addend: 0x0, symName: __ZNSt3__120__shared_ptr_emplaceI5EnemyNS_9allocatorIS1_EEE8_Storage10__get_elemEv, symObjAddr: 0x6C70, symBinAddr: 0x10000FEC4, symSize: 0x3C }
  - { offsetInCU: 0x21F9F, offset: 0x5409D, size: 0x8, addend: 0x0, symName: __ZNSt3__117__compressed_pairINS_9allocatorI5EnemyEES2_E17__get_second_baseB7v160006EPS4_, symObjAddr: 0x6CAC, symBinAddr: 0x10000FF00, symSize: 0x14 }
  - { offsetInCU: 0x21FC2, offset: 0x540C0, size: 0x8, addend: 0x0, symName: __ZNSt3__118__allocation_guardINS_9allocatorINS_20__shared_ptr_emplaceI5EnemyNS1_IS3_EEEEEEED2B7v160006Ev, symObjAddr: 0x6CC0, symBinAddr: 0x10000FF14, symSize: 0x58 }
  - { offsetInCU: 0x21FEC, offset: 0x540EA, size: 0x8, addend: 0x0, symName: __ZNSt3__19allocatorI5EnemyEC2B7v160006Ev, symObjAddr: 0x6D18, symBinAddr: 0x10000FF6C, symSize: 0x2C }
  - { offsetInCU: 0x22016, offset: 0x54114, size: 0x8, addend: 0x0, symName: __ZNSt3__116__non_trivial_ifILb1ENS_9allocatorI5EnemyEEEC2B7v160006Ev, symObjAddr: 0x6D44, symBinAddr: 0x10000FF98, symSize: 0x14 }
  - { offsetInCU: 0x22040, offset: 0x5413E, size: 0x8, addend: 0x0, symName: __ZNSt3__110shared_ptrI5EnemyED2B7v160006Ev, symObjAddr: 0x6D58, symBinAddr: 0x10000FFAC, symSize: 0x54 }
  - { offsetInCU: 0x2206A, offset: 0x54168, size: 0x8, addend: 0x0, symName: __ZNSt3__16vectorINS_10shared_ptrI5EnemyEENS_9allocatorIS3_EEE9__end_capB7v160006Ev, symObjAddr: 0x6E94, symBinAddr: 0x100010000, symSize: 0x28 }
  - { offsetInCU: 0x22090, offset: 0x5418E, size: 0x8, addend: 0x0, symName: __ZNSt3__16vectorINS_10shared_ptrI5EnemyEENS_9allocatorIS3_EEE22__construct_one_at_endB7v160006IJS3_EEEvDpOT_, symObjAddr: 0x6EBC, symBinAddr: 0x100010028, symSize: 0x90 }
  - { offsetInCU: 0x220DF, offset: 0x541DD, size: 0x8, addend: 0x0, symName: __ZNSt3__16vectorINS_10shared_ptrI5EnemyEENS_9allocatorIS3_EEE21__push_back_slow_pathIS3_EEvOT_, symObjAddr: 0x6F4C, symBinAddr: 0x1000100B8, symSize: 0xD8 }
  - { offsetInCU: 0x2213D, offset: 0x5423B, size: 0x8, addend: 0x0, symName: __ZNSt3__117__compressed_pairIPNS_10shared_ptrI5EnemyEENS_9allocatorIS3_EEE5firstB7v160006Ev, symObjAddr: 0x7024, symBinAddr: 0x100010190, symSize: 0x24 }
  - { offsetInCU: 0x22163, offset: 0x54261, size: 0x8, addend: 0x0, symName: __ZNSt3__122__compressed_pair_elemIPNS_10shared_ptrI5EnemyEELi0ELb0EE5__getB7v160006Ev, symObjAddr: 0x7048, symBinAddr: 0x1000101B4, symSize: 0x14 }
  - { offsetInCU: 0x221A2, offset: 0x542A0, size: 0x8, addend: 0x0, symName: __ZNSt3__16vectorINS_10shared_ptrI5EnemyEENS_9allocatorIS3_EEE21_ConstructTransactionC1B7v160006ERS6_m, symObjAddr: 0x705C, symBinAddr: 0x1000101C8, symSize: 0x3C }
  - { offsetInCU: 0x221EA, offset: 0x542E8, size: 0x8, addend: 0x0, symName: __ZNSt3__116allocator_traitsINS_9allocatorINS_10shared_ptrI5EnemyEEEEE9constructB7v160006IS4_JS4_EvEEvRS5_PT_DpOT0_, symObjAddr: 0x7098, symBinAddr: 0x100010204, symSize: 0x34 }
  - { offsetInCU: 0x22241, offset: 0x5433F, size: 0x8, addend: 0x0, symName: __ZNSt3__16vectorINS_10shared_ptrI5EnemyEENS_9allocatorIS3_EEE21_ConstructTransactionD1B7v160006Ev, symObjAddr: 0x70CC, symBinAddr: 0x100010238, symSize: 0x2C }
  - { offsetInCU: 0x2226B, offset: 0x54369, size: 0x8, addend: 0x0, symName: __ZNSt3__16vectorINS_10shared_ptrI5EnemyEENS_9allocatorIS3_EEE21_ConstructTransactionC2B7v160006ERS6_m, symObjAddr: 0x70F8, symBinAddr: 0x100010264, symSize: 0x44 }
  - { offsetInCU: 0x222B3, offset: 0x543B1, size: 0x8, addend: 0x0, symName: __ZNSt3__19allocatorINS_10shared_ptrI5EnemyEEE9constructB7v160006IS3_JS3_EEEvPT_DpOT0_, symObjAddr: 0x713C, symBinAddr: 0x1000102A8, symSize: 0x30 }
  - { offsetInCU: 0x22309, offset: 0x54407, size: 0x8, addend: 0x0, symName: __ZNSt3__110shared_ptrI5EnemyEC1B7v160006EOS2_, symObjAddr: 0x716C, symBinAddr: 0x1000102D8, symSize: 0x34 }
  - { offsetInCU: 0x22342, offset: 0x54440, size: 0x8, addend: 0x0, symName: __ZNSt3__110shared_ptrI5EnemyEC2B7v160006EOS2_, symObjAddr: 0x71A0, symBinAddr: 0x10001030C, symSize: 0x40 }
  - { offsetInCU: 0x2237B, offset: 0x54479, size: 0x8, addend: 0x0, symName: __ZNSt3__16vectorINS_10shared_ptrI5EnemyEENS_9allocatorIS3_EEE21_ConstructTransactionD2B7v160006Ev, symObjAddr: 0x71E0, symBinAddr: 0x10001034C, symSize: 0x20 }
  - { offsetInCU: 0x223A5, offset: 0x544A3, size: 0x8, addend: 0x0, symName: __ZNKSt3__16vectorINS_10shared_ptrI5EnemyEENS_9allocatorIS3_EEE11__recommendB7v160006Em, symObjAddr: 0x7200, symBinAddr: 0x10001036C, symSize: 0xB4 }
  - { offsetInCU: 0x223FA, offset: 0x544F8, size: 0x8, addend: 0x0, symName: __ZNSt3__114__split_bufferINS_10shared_ptrI5EnemyEERNS_9allocatorIS3_EEEC1EmmS6_, symObjAddr: 0x72B4, symBinAddr: 0x100010420, symSize: 0x44 }
  - { offsetInCU: 0x22450, offset: 0x5454E, size: 0x8, addend: 0x0, symName: __ZNSt3__114__split_bufferINS_10shared_ptrI5EnemyEERNS_9allocatorIS3_EEED1Ev, symObjAddr: 0x7410, symBinAddr: 0x10001057C, symSize: 0x2C }
  - { offsetInCU: 0x2247C, offset: 0x5457A, size: 0x8, addend: 0x0, symName: __ZNKSt3__16vectorINS_10shared_ptrI5EnemyEENS_9allocatorIS3_EEE8max_sizeEv, symObjAddr: 0x743C, symBinAddr: 0x1000105A8, symSize: 0x60 }
  - { offsetInCU: 0x224A4, offset: 0x545A2, size: 0x8, addend: 0x0, symName: __ZNKSt3__16vectorINS_10shared_ptrI5EnemyEENS_9allocatorIS3_EEE20__throw_length_errorB7v160006Ev, symObjAddr: 0x749C, symBinAddr: 0x100010608, symSize: 0x1C }
  - { offsetInCU: 0x224D4, offset: 0x545D2, size: 0x8, addend: 0x0, symName: __ZNSt3__116allocator_traitsINS_9allocatorINS_10shared_ptrI5EnemyEEEEE8max_sizeB7v160006IS5_vEEmRKS5_, symObjAddr: 0x74B8, symBinAddr: 0x100010624, symSize: 0x24 }
  - { offsetInCU: 0x22502, offset: 0x54600, size: 0x8, addend: 0x0, symName: __ZNKSt3__16vectorINS_10shared_ptrI5EnemyEENS_9allocatorIS3_EEE7__allocB7v160006Ev, symObjAddr: 0x74DC, symBinAddr: 0x100010648, symSize: 0x28 }
  - { offsetInCU: 0x22528, offset: 0x54626, size: 0x8, addend: 0x0, symName: __ZNKSt3__19allocatorINS_10shared_ptrI5EnemyEEE8max_sizeB7v160006Ev, symObjAddr: 0x7504, symBinAddr: 0x100010670, symSize: 0x14 }
  - { offsetInCU: 0x2254E, offset: 0x5464C, size: 0x8, addend: 0x0, symName: __ZNKSt3__117__compressed_pairIPNS_10shared_ptrI5EnemyEENS_9allocatorIS3_EEE6secondB7v160006Ev, symObjAddr: 0x7518, symBinAddr: 0x100010684, symSize: 0x24 }
  - { offsetInCU: 0x22574, offset: 0x54672, size: 0x8, addend: 0x0, symName: __ZNKSt3__122__compressed_pair_elemINS_9allocatorINS_10shared_ptrI5EnemyEEEELi1ELb1EE5__getB7v160006Ev, symObjAddr: 0x753C, symBinAddr: 0x1000106A8, symSize: 0x14 }
  - { offsetInCU: 0x2259A, offset: 0x54698, size: 0x8, addend: 0x0, symName: __ZNSt3__114__split_bufferINS_10shared_ptrI5EnemyEERNS_9allocatorIS3_EEEC2EmmS6_, symObjAddr: 0x7550, symBinAddr: 0x1000106BC, symSize: 0xD4 }
  - { offsetInCU: 0x2260D, offset: 0x5470B, size: 0x8, addend: 0x0, symName: __ZNSt3__117__compressed_pairIPNS_10shared_ptrI5EnemyEERNS_9allocatorIS3_EEEC1B7v160006IDnS7_EEOT_OT0_, symObjAddr: 0x7624, symBinAddr: 0x100010790, symSize: 0x3C }
  - { offsetInCU: 0x22665, offset: 0x54763, size: 0x8, addend: 0x0, symName: __ZNSt3__114__split_bufferINS_10shared_ptrI5EnemyEERNS_9allocatorIS3_EEE7__allocB7v160006Ev, symObjAddr: 0x76A0, symBinAddr: 0x10001080C, symSize: 0x28 }
  - { offsetInCU: 0x2268B, offset: 0x54789, size: 0x8, addend: 0x0, symName: __ZNSt3__114__split_bufferINS_10shared_ptrI5EnemyEERNS_9allocatorIS3_EEE9__end_capB7v160006Ev, symObjAddr: 0x76C8, symBinAddr: 0x100010834, symSize: 0x28 }
  - { offsetInCU: 0x226B1, offset: 0x547AF, size: 0x8, addend: 0x0, symName: __ZNSt3__117__compressed_pairIPNS_10shared_ptrI5EnemyEERNS_9allocatorIS3_EEEC2B7v160006IDnS7_EEOT_OT0_, symObjAddr: 0x76F0, symBinAddr: 0x10001085C, symSize: 0x48 }
  - { offsetInCU: 0x22709, offset: 0x54807, size: 0x8, addend: 0x0, symName: __ZNSt3__122__compressed_pair_elemIRNS_9allocatorINS_10shared_ptrI5EnemyEEEELi1ELb0EEC2B7v160006IS6_vEEOT_, symObjAddr: 0x7738, symBinAddr: 0x1000108A4, symSize: 0x20 }
  - { offsetInCU: 0x2274B, offset: 0x54849, size: 0x8, addend: 0x0, symName: __ZNSt3__19allocatorINS_10shared_ptrI5EnemyEEE8allocateB7v160006Em, symObjAddr: 0x7758, symBinAddr: 0x1000108C4, symSize: 0x58 }
  - { offsetInCU: 0x2277F, offset: 0x5487D, size: 0x8, addend: 0x0, symName: __ZNSt3__117__compressed_pairIPNS_10shared_ptrI5EnemyEERNS_9allocatorIS3_EEE6secondB7v160006Ev, symObjAddr: 0x77B0, symBinAddr: 0x10001091C, symSize: 0x28 }
  - { offsetInCU: 0x227A5, offset: 0x548A3, size: 0x8, addend: 0x0, symName: __ZNSt3__122__compressed_pair_elemIRNS_9allocatorINS_10shared_ptrI5EnemyEEEELi1ELb0EE5__getB7v160006Ev, symObjAddr: 0x77D8, symBinAddr: 0x100010944, symSize: 0x18 }
  - { offsetInCU: 0x227CB, offset: 0x548C9, size: 0x8, addend: 0x0, symName: __ZNSt3__117__compressed_pairIPNS_10shared_ptrI5EnemyEERNS_9allocatorIS3_EEE5firstB7v160006Ev, symObjAddr: 0x77F0, symBinAddr: 0x10001095C, symSize: 0x24 }
  - { offsetInCU: 0x227F1, offset: 0x548EF, size: 0x8, addend: 0x0, symName: __ZNSt3__116reverse_iteratorIPNS_10shared_ptrI5EnemyEEEC1B7v160006ES4_, symObjAddr: 0x7940, symBinAddr: 0x100010AAC, symSize: 0x34 }
  - { offsetInCU: 0x22829, offset: 0x54927, size: 0x8, addend: 0x0, symName: __ZNKSt3__116reverse_iteratorIPNS_10shared_ptrI5EnemyEEE4baseB7v160006Ev, symObjAddr: 0x7974, symBinAddr: 0x100010AE0, symSize: 0x18 }
  - { offsetInCU: 0x2284F, offset: 0x5494D, size: 0x8, addend: 0x0, symName: __ZNKSt3__16vectorINS_10shared_ptrI5EnemyEENS_9allocatorIS3_EEE14__annotate_newB7v160006Em, symObjAddr: 0x79C8, symBinAddr: 0x100010B34, symSize: 0xAC }
  - { offsetInCU: 0x22884, offset: 0x54982, size: 0x8, addend: 0x0, symName: __ZNSt3__129_AllocatorDestroyRangeReverseINS_9allocatorINS_10shared_ptrI5EnemyEEEENS_16reverse_iteratorIPS4_EEEC1B7v160006ERS5_RS8_SB_, symObjAddr: 0x7AD0, symBinAddr: 0x100010C3C, symSize: 0x44 }
  - { offsetInCU: 0x228DB, offset: 0x549D9, size: 0x8, addend: 0x0, symName: __ZNKSt3__116reverse_iteratorIPNS_10shared_ptrI5EnemyEEEdeB7v160006Ev, symObjAddr: 0x7B80, symBinAddr: 0x100010CEC, symSize: 0x28 }
  - { offsetInCU: 0x2290F, offset: 0x54A0D, size: 0x8, addend: 0x0, symName: __ZNSt3__116reverse_iteratorIPNS_10shared_ptrI5EnemyEEEppB7v160006Ev, symObjAddr: 0x7BA8, symBinAddr: 0x100010D14, symSize: 0x20 }
  - { offsetInCU: 0x22935, offset: 0x54A33, size: 0x8, addend: 0x0, symName: __ZNSt3__128__exception_guard_exceptionsINS_29_AllocatorDestroyRangeReverseINS_9allocatorINS_10shared_ptrI5EnemyEEEENS_16reverse_iteratorIPS5_EEEEE10__completeB7v160006Ev, symObjAddr: 0x7BC8, symBinAddr: 0x100010D34, symSize: 0x1C }
  - { offsetInCU: 0x2295B, offset: 0x54A59, size: 0x8, addend: 0x0, symName: __ZNSt3__128__exception_guard_exceptionsINS_29_AllocatorDestroyRangeReverseINS_9allocatorINS_10shared_ptrI5EnemyEEEENS_16reverse_iteratorIPS5_EEEEED1B7v160006Ev, symObjAddr: 0x7BE4, symBinAddr: 0x100010D50, symSize: 0x2C }
  - { offsetInCU: 0x22985, offset: 0x54A83, size: 0x8, addend: 0x0, symName: __ZNSt3__128__exception_guard_exceptionsINS_29_AllocatorDestroyRangeReverseINS_9allocatorINS_10shared_ptrI5EnemyEEEENS_16reverse_iteratorIPS5_EEEEEC1B7v160006ESA_, symObjAddr: 0x7C10, symBinAddr: 0x100010D7C, symSize: 0x34 }
  - { offsetInCU: 0x229BE, offset: 0x54ABC, size: 0x8, addend: 0x0, symName: __ZNSt3__128__exception_guard_exceptionsINS_29_AllocatorDestroyRangeReverseINS_9allocatorINS_10shared_ptrI5EnemyEEEENS_16reverse_iteratorIPS5_EEEEEC2B7v160006ESA_, symObjAddr: 0x7C44, symBinAddr: 0x100010DB0, symSize: 0x30 }
  - { offsetInCU: 0x229F7, offset: 0x54AF5, size: 0x8, addend: 0x0, symName: __ZNSt3__129_AllocatorDestroyRangeReverseINS_9allocatorINS_10shared_ptrI5EnemyEEEENS_16reverse_iteratorIPS4_EEEC2B7v160006ERS5_RS8_SB_, symObjAddr: 0x7C74, symBinAddr: 0x100010DE0, symSize: 0x38 }
  - { offsetInCU: 0x22A53, offset: 0x54B51, size: 0x8, addend: 0x0, symName: __ZNSt3__119__to_address_helperINS_16reverse_iteratorIPNS_10shared_ptrI5EnemyEEEEvE6__callB7v160006ERKS6_, symObjAddr: 0x7CAC, symBinAddr: 0x100010E18, symSize: 0x38 }
  - { offsetInCU: 0x22A76, offset: 0x54B74, size: 0x8, addend: 0x0, symName: __ZNKSt3__116reverse_iteratorIPNS_10shared_ptrI5EnemyEEEptB7v160006Ev, symObjAddr: 0x7CE4, symBinAddr: 0x100010E50, symSize: 0x24 }
  - { offsetInCU: 0x22A9C, offset: 0x54B9A, size: 0x8, addend: 0x0, symName: __ZNSt3__128__exception_guard_exceptionsINS_29_AllocatorDestroyRangeReverseINS_9allocatorINS_10shared_ptrI5EnemyEEEENS_16reverse_iteratorIPS5_EEEEED2B7v160006Ev, symObjAddr: 0x7D08, symBinAddr: 0x100010E74, symSize: 0x50 }
  - { offsetInCU: 0x22AC6, offset: 0x54BC4, size: 0x8, addend: 0x0, symName: __ZNKSt3__129_AllocatorDestroyRangeReverseINS_9allocatorINS_10shared_ptrI5EnemyEEEENS_16reverse_iteratorIPS4_EEEclB7v160006Ev, symObjAddr: 0x7D58, symBinAddr: 0x100010EC4, symSize: 0xB4 }
  - { offsetInCU: 0x22AED, offset: 0x54BEB, size: 0x8, addend: 0x0, symName: __ZNSt3__116reverse_iteratorINS0_IPNS_10shared_ptrI5EnemyEEEEEC1B7v160006ES5_, symObjAddr: 0x7E7C, symBinAddr: 0x100010FE8, symSize: 0x3C }
  - { offsetInCU: 0x22B25, offset: 0x54C23, size: 0x8, addend: 0x0, symName: __ZNSt3__116reverse_iteratorINS0_IPNS_10shared_ptrI5EnemyEEEEEppB7v160006Ev, symObjAddr: 0x7F3C, symBinAddr: 0x1000110A8, symSize: 0x30 }
  - { offsetInCU: 0x22B4B, offset: 0x54C49, size: 0x8, addend: 0x0, symName: __ZNKSt3__116reverse_iteratorINS0_IPNS_10shared_ptrI5EnemyEEEEE4baseB7v160006Ev, symObjAddr: 0x7F6C, symBinAddr: 0x1000110D8, symSize: 0x24 }
  - { offsetInCU: 0x22B76, offset: 0x54C74, size: 0x8, addend: 0x0, symName: __ZNSt3__119__to_address_helperINS_16reverse_iteratorINS1_IPNS_10shared_ptrI5EnemyEEEEEEvE6__callB7v160006ERKS7_, symObjAddr: 0x7F90, symBinAddr: 0x1000110FC, symSize: 0x38 }
  - { offsetInCU: 0x22B99, offset: 0x54C97, size: 0x8, addend: 0x0, symName: __ZNKSt3__116reverse_iteratorINS0_IPNS_10shared_ptrI5EnemyEEEEEptB7v160006Ev, symObjAddr: 0x7FC8, symBinAddr: 0x100011134, symSize: 0x24 }
  - { offsetInCU: 0x22BBF, offset: 0x54CBD, size: 0x8, addend: 0x0, symName: __ZNKSt3__116reverse_iteratorINS0_IPNS_10shared_ptrI5EnemyEEEEEdeB7v160006Ev, symObjAddr: 0x7FEC, symBinAddr: 0x100011158, symSize: 0x34 }
  - { offsetInCU: 0x22BF3, offset: 0x54CF1, size: 0x8, addend: 0x0, symName: __ZNSt3__116reverse_iteratorIPNS_10shared_ptrI5EnemyEEEmmB7v160006Ev, symObjAddr: 0x8020, symBinAddr: 0x10001118C, symSize: 0x20 }
  - { offsetInCU: 0x22C19, offset: 0x54D17, size: 0x8, addend: 0x0, symName: __ZNSt3__116reverse_iteratorINS0_IPNS_10shared_ptrI5EnemyEEEEEC2B7v160006ES5_, symObjAddr: 0x8040, symBinAddr: 0x1000111AC, symSize: 0x2C }
  - { offsetInCU: 0x22C51, offset: 0x54D4F, size: 0x8, addend: 0x0, symName: __ZNSt3__116reverse_iteratorIPNS_10shared_ptrI5EnemyEEEC2B7v160006ES4_, symObjAddr: 0x806C, symBinAddr: 0x1000111D8, symSize: 0x28 }
  - { offsetInCU: 0x22C89, offset: 0x54D87, size: 0x8, addend: 0x0, symName: __ZNSt3__114__split_bufferINS_10shared_ptrI5EnemyEERNS_9allocatorIS3_EEED2Ev, symObjAddr: 0x8094, symBinAddr: 0x100011200, symSize: 0x8C }
  - { offsetInCU: 0x22CB5, offset: 0x54DB3, size: 0x8, addend: 0x0, symName: __ZNSt3__114__split_bufferINS_10shared_ptrI5EnemyEERNS_9allocatorIS3_EEE5clearB7v160006Ev, symObjAddr: 0x8120, symBinAddr: 0x10001128C, symSize: 0x28 }
  - { offsetInCU: 0x22CDB, offset: 0x54DD9, size: 0x8, addend: 0x0, symName: __ZNKSt3__114__split_bufferINS_10shared_ptrI5EnemyEERNS_9allocatorIS3_EEE8capacityB7v160006Ev, symObjAddr: 0x8148, symBinAddr: 0x1000112B4, symSize: 0x40 }
  - { offsetInCU: 0x22D01, offset: 0x54DFF, size: 0x8, addend: 0x0, symName: __ZNSt3__114__split_bufferINS_10shared_ptrI5EnemyEERNS_9allocatorIS3_EEE17__destruct_at_endB7v160006EPS3_, symObjAddr: 0x8188, symBinAddr: 0x1000112F4, symSize: 0x2C }
  - { offsetInCU: 0x22D35, offset: 0x54E33, size: 0x8, addend: 0x0, symName: __ZNSt3__114__split_bufferINS_10shared_ptrI5EnemyEERNS_9allocatorIS3_EEE17__destruct_at_endB7v160006EPS3_NS_17integral_constantIbLb0EEE, symObjAddr: 0x81B4, symBinAddr: 0x100011320, symSize: 0x80 }
  - { offsetInCU: 0x22D75, offset: 0x54E73, size: 0x8, addend: 0x0, symName: __ZNKSt3__114__split_bufferINS_10shared_ptrI5EnemyEERNS_9allocatorIS3_EEE9__end_capB7v160006Ev, symObjAddr: 0x8234, symBinAddr: 0x1000113A0, symSize: 0x28 }
  - { offsetInCU: 0x22D9B, offset: 0x54E99, size: 0x8, addend: 0x0, symName: __ZNKSt3__117__compressed_pairIPNS_10shared_ptrI5EnemyEERNS_9allocatorIS3_EEE5firstB7v160006Ev, symObjAddr: 0x825C, symBinAddr: 0x1000113C8, symSize: 0x24 }
  - { offsetInCU: 0x22DC1, offset: 0x54EBF, size: 0x8, addend: 0x0, symName: __ZNSt3__16vectorINS_10shared_ptrI6ButtonEENS_9allocatorIS3_EEEC2B7v160006Ev, symObjAddr: 0x8280, symBinAddr: 0x1000113EC, symSize: 0x58 }
  - { offsetInCU: 0x22DEB, offset: 0x54EE9, size: 0x8, addend: 0x0, symName: __ZNSt3__117__compressed_pairIPNS_10shared_ptrI6ButtonEENS_9allocatorIS3_EEEC1B7v160006IDnNS_18__default_init_tagEEEOT_OT0_, symObjAddr: 0x82D8, symBinAddr: 0x100011444, symSize: 0x3C }
  - { offsetInCU: 0x22E43, offset: 0x54F41, size: 0x8, addend: 0x0, symName: __ZNSt3__117__compressed_pairIPNS_10shared_ptrI6ButtonEENS_9allocatorIS3_EEEC2B7v160006IDnNS_18__default_init_tagEEEOT_OT0_, symObjAddr: 0x8324, symBinAddr: 0x100011490, symSize: 0x40 }
  - { offsetInCU: 0x22E9B, offset: 0x54F99, size: 0x8, addend: 0x0, symName: __ZNSt3__122__compressed_pair_elemIPNS_10shared_ptrI6ButtonEELi0ELb0EEC2B7v160006IDnvEEOT_, symObjAddr: 0x8364, symBinAddr: 0x1000114D0, symSize: 0x1C }
  - { offsetInCU: 0x22EDD, offset: 0x54FDB, size: 0x8, addend: 0x0, symName: __ZNSt3__122__compressed_pair_elemINS_9allocatorINS_10shared_ptrI6ButtonEEEELi1ELb1EEC2B7v160006ENS_18__default_init_tagE, symObjAddr: 0x8380, symBinAddr: 0x1000114EC, symSize: 0x2C }
  - { offsetInCU: 0x22F11, offset: 0x5500F, size: 0x8, addend: 0x0, symName: __ZNSt3__19allocatorINS_10shared_ptrI6ButtonEEEC2B7v160006Ev, symObjAddr: 0x83AC, symBinAddr: 0x100011518, symSize: 0x2C }
  - { offsetInCU: 0x22F3B, offset: 0x55039, size: 0x8, addend: 0x0, symName: __ZNSt3__116__non_trivial_ifILb1ENS_9allocatorINS_10shared_ptrI6ButtonEEEEEC2B7v160006Ev, symObjAddr: 0x83D8, symBinAddr: 0x100011544, symSize: 0x14 }
  - { offsetInCU: 0x22F65, offset: 0x55063, size: 0x8, addend: 0x0, symName: __ZNSt3__16vectorINS_10shared_ptrI6ButtonEENS_9allocatorIS3_EEED2B7v160006Ev, symObjAddr: 0x83EC, symBinAddr: 0x100011558, symSize: 0x44 }
  - { offsetInCU: 0x22F8F, offset: 0x5508D, size: 0x8, addend: 0x0, symName: __ZNSt3__16vectorINS_10shared_ptrI6ButtonEENS_9allocatorIS3_EEE16__destroy_vectorC1ERS6_, symObjAddr: 0x8430, symBinAddr: 0x10001159C, symSize: 0x34 }
  - { offsetInCU: 0x22FC8, offset: 0x550C6, size: 0x8, addend: 0x0, symName: __ZNSt3__16vectorINS_10shared_ptrI6ButtonEENS_9allocatorIS3_EEE16__destroy_vectorclB7v160006Ev, symObjAddr: 0x8464, symBinAddr: 0x1000115D0, symSize: 0x9C }
  - { offsetInCU: 0x22FEE, offset: 0x550EC, size: 0x8, addend: 0x0, symName: __ZNSt3__16vectorINS_10shared_ptrI6ButtonEENS_9allocatorIS3_EEE16__destroy_vectorC2ERS6_, symObjAddr: 0x8500, symBinAddr: 0x10001166C, symSize: 0x20 }
  - { offsetInCU: 0x23027, offset: 0x55125, size: 0x8, addend: 0x0, symName: __ZNKSt3__16vectorINS_10shared_ptrI6ButtonEENS_9allocatorIS3_EEE17__annotate_deleteB7v160006Ev, symObjAddr: 0x8520, symBinAddr: 0x10001168C, symSize: 0xB8 }
  - { offsetInCU: 0x2304D, offset: 0x5514B, size: 0x8, addend: 0x0, symName: __ZNSt3__16vectorINS_10shared_ptrI6ButtonEENS_9allocatorIS3_EEE7__clearB7v160006Ev, symObjAddr: 0x85E8, symBinAddr: 0x100011754, symSize: 0x28 }
  - { offsetInCU: 0x23073, offset: 0x55171, size: 0x8, addend: 0x0, symName: __ZNSt3__116allocator_traitsINS_9allocatorINS_10shared_ptrI6ButtonEEEEE10deallocateB7v160006ERS5_PS4_m, symObjAddr: 0x8610, symBinAddr: 0x10001177C, symSize: 0x34 }
  - { offsetInCU: 0x230B5, offset: 0x551B3, size: 0x8, addend: 0x0, symName: __ZNSt3__16vectorINS_10shared_ptrI6ButtonEENS_9allocatorIS3_EEE7__allocB7v160006Ev, symObjAddr: 0x8644, symBinAddr: 0x1000117B0, symSize: 0x28 }
  - { offsetInCU: 0x230DB, offset: 0x551D9, size: 0x8, addend: 0x0, symName: __ZNKSt3__16vectorINS_10shared_ptrI6ButtonEENS_9allocatorIS3_EEE8capacityB7v160006Ev, symObjAddr: 0x866C, symBinAddr: 0x1000117D8, symSize: 0x40 }
  - { offsetInCU: 0x23101, offset: 0x551FF, size: 0x8, addend: 0x0, symName: __ZNKSt3__16vectorINS_10shared_ptrI6ButtonEENS_9allocatorIS3_EEE31__annotate_contiguous_containerB7v160006EPKvS8_S8_S8_, symObjAddr: 0x86AC, symBinAddr: 0x100011818, symSize: 0x20 }
  - { offsetInCU: 0x23157, offset: 0x55255, size: 0x8, addend: 0x0, symName: __ZNKSt3__16vectorINS_10shared_ptrI6ButtonEENS_9allocatorIS3_EEE4dataB7v160006Ev, symObjAddr: 0x86CC, symBinAddr: 0x100011838, symSize: 0x28 }
  - { offsetInCU: 0x2317D, offset: 0x5527B, size: 0x8, addend: 0x0, symName: __ZNKSt3__16vectorINS_10shared_ptrI6ButtonEENS_9allocatorIS3_EEE4sizeB7v160006Ev, symObjAddr: 0x86F4, symBinAddr: 0x100011860, symSize: 0x28 }
  - { offsetInCU: 0x231A3, offset: 0x552A1, size: 0x8, addend: 0x0, symName: __ZNSt3__16vectorINS_10shared_ptrI6ButtonEENS_9allocatorIS3_EEE22__base_destruct_at_endB7v160006EPS3_, symObjAddr: 0x8730, symBinAddr: 0x10001189C, symSize: 0x8C }
  - { offsetInCU: 0x231E7, offset: 0x552E5, size: 0x8, addend: 0x0, symName: __ZNSt3__116allocator_traitsINS_9allocatorINS_10shared_ptrI6ButtonEEEEE7destroyB7v160006IS4_vEEvRS5_PT_, symObjAddr: 0x87BC, symBinAddr: 0x100011928, symSize: 0x2C }
  - { offsetInCU: 0x23224, offset: 0x55322, size: 0x8, addend: 0x0, symName: __ZNSt3__19allocatorINS_10shared_ptrI6ButtonEEE7destroyB7v160006EPS3_, symObjAddr: 0x87E8, symBinAddr: 0x100011954, symSize: 0x28 }
  - { offsetInCU: 0x23258, offset: 0x55356, size: 0x8, addend: 0x0, symName: __ZNSt3__19allocatorINS_10shared_ptrI6ButtonEEE10deallocateB7v160006EPS3_m, symObjAddr: 0x8810, symBinAddr: 0x10001197C, symSize: 0x40 }
  - { offsetInCU: 0x2329A, offset: 0x55398, size: 0x8, addend: 0x0, symName: __ZNSt3__117__compressed_pairIPNS_10shared_ptrI6ButtonEENS_9allocatorIS3_EEE6secondB7v160006Ev, symObjAddr: 0x8850, symBinAddr: 0x1000119BC, symSize: 0x24 }
  - { offsetInCU: 0x232C0, offset: 0x553BE, size: 0x8, addend: 0x0, symName: __ZNSt3__122__compressed_pair_elemINS_9allocatorINS_10shared_ptrI6ButtonEEEELi1ELb1EE5__getB7v160006Ev, symObjAddr: 0x8874, symBinAddr: 0x1000119E0, symSize: 0x14 }
  - { offsetInCU: 0x232E6, offset: 0x553E4, size: 0x8, addend: 0x0, symName: __ZNKSt3__16vectorINS_10shared_ptrI6ButtonEENS_9allocatorIS3_EEE9__end_capB7v160006Ev, symObjAddr: 0x8888, symBinAddr: 0x1000119F4, symSize: 0x28 }
  - { offsetInCU: 0x2330C, offset: 0x5540A, size: 0x8, addend: 0x0, symName: __ZNKSt3__117__compressed_pairIPNS_10shared_ptrI6ButtonEENS_9allocatorIS3_EEE5firstB7v160006Ev, symObjAddr: 0x88B0, symBinAddr: 0x100011A1C, symSize: 0x24 }
  - { offsetInCU: 0x23332, offset: 0x55430, size: 0x8, addend: 0x0, symName: __ZNKSt3__122__compressed_pair_elemIPNS_10shared_ptrI6ButtonEELi0ELb0EE5__getB7v160006Ev, symObjAddr: 0x88D4, symBinAddr: 0x100011A40, symSize: 0x14 }
  - { offsetInCU: 0x23358, offset: 0x55456, size: 0x8, addend: 0x0, symName: __ZNSt3__13mapINS_10shared_ptrI6ButtonEENS1_I19HorizontalSlideDoorEENS_4lessIS3_EENS_9allocatorINS_4pairIKS3_S5_EEEEEC2B7v160006Ev, symObjAddr: 0x88E8, symBinAddr: 0x100011A54, symSize: 0x40 }
  - { offsetInCU: 0x23382, offset: 0x55480, size: 0x8, addend: 0x0, symName: __ZNSt3__119__map_value_compareINS_10shared_ptrI6ButtonEENS_12__value_typeIS3_NS1_I19HorizontalSlideDoorEEEENS_4lessIS3_EELb1EEC1B7v160006ES9_, symObjAddr: 0x8928, symBinAddr: 0x100011A94, symSize: 0x2C }
  - { offsetInCU: 0x233BB, offset: 0x554B9, size: 0x8, addend: 0x0, symName: __ZNSt3__16__treeINS_12__value_typeINS_10shared_ptrI6ButtonEENS2_I19HorizontalSlideDoorEEEENS_19__map_value_compareIS4_S7_NS_4lessIS4_EELb1EEENS_9allocatorIS7_EEEC1ERKSB_, symObjAddr: 0x8954, symBinAddr: 0x100011AC0, symSize: 0x34 }
  - { offsetInCU: 0x233F6, offset: 0x554F4, size: 0x8, addend: 0x0, symName: __ZNSt3__119__map_value_compareINS_10shared_ptrI6ButtonEENS_12__value_typeIS3_NS1_I19HorizontalSlideDoorEEEENS_4lessIS3_EELb1EEC2B7v160006ES9_, symObjAddr: 0x8988, symBinAddr: 0x100011AF4, symSize: 0x14 }
  - { offsetInCU: 0x2342F, offset: 0x5552D, size: 0x8, addend: 0x0, symName: __ZNSt3__16__treeINS_12__value_typeINS_10shared_ptrI6ButtonEENS2_I19HorizontalSlideDoorEEEENS_19__map_value_compareIS4_S7_NS_4lessIS4_EELb1EEENS_9allocatorIS7_EEEC2ERKSB_, symObjAddr: 0x899C, symBinAddr: 0x100011B08, symSize: 0x7C }
  - { offsetInCU: 0x2346A, offset: 0x55568, size: 0x8, addend: 0x0, symName: __ZNSt3__117__compressed_pairINS_15__tree_end_nodeIPNS_16__tree_node_baseIPvEEEENS_9allocatorINS_11__tree_nodeINS_12__value_typeINS_10shared_ptrI6ButtonEENSA_I19HorizontalSlideDoorEEEES3_EEEEEC1B7v160006ILb1EvEEv, symObjAddr: 0x8A18, symBinAddr: 0x100011B84, symSize: 0x2C }
  - { offsetInCU: 0x2349F, offset: 0x5559D, size: 0x8, addend: 0x0, symName: __ZNSt3__117__compressed_pairImNS_19__map_value_compareINS_10shared_ptrI6ButtonEENS_12__value_typeIS4_NS2_I19HorizontalSlideDoorEEEENS_4lessIS4_EELb1EEEEC1B7v160006IiRKSB_EEOT_OT0_, symObjAddr: 0x8A44, symBinAddr: 0x100011BB0, symSize: 0x3C }
  - { offsetInCU: 0x234F7, offset: 0x555F5, size: 0x8, addend: 0x0, symName: __ZNSt3__16__treeINS_12__value_typeINS_10shared_ptrI6ButtonEENS2_I19HorizontalSlideDoorEEEENS_19__map_value_compareIS4_S7_NS_4lessIS4_EELb1EEENS_9allocatorIS7_EEE10__end_nodeB7v160006Ev, symObjAddr: 0x8A80, symBinAddr: 0x100011BEC, symSize: 0x2C }
  - { offsetInCU: 0x2351D, offset: 0x5561B, size: 0x8, addend: 0x0, symName: __ZNSt3__16__treeINS_12__value_typeINS_10shared_ptrI6ButtonEENS2_I19HorizontalSlideDoorEEEENS_19__map_value_compareIS4_S7_NS_4lessIS4_EELb1EEENS_9allocatorIS7_EEE12__begin_nodeB7v160006Ev, symObjAddr: 0x8AAC, symBinAddr: 0x100011C18, symSize: 0x14 }
  - { offsetInCU: 0x23543, offset: 0x55641, size: 0x8, addend: 0x0, symName: __ZNSt3__117__compressed_pairINS_15__tree_end_nodeIPNS_16__tree_node_baseIPvEEEENS_9allocatorINS_11__tree_nodeINS_12__value_typeINS_10shared_ptrI6ButtonEENSA_I19HorizontalSlideDoorEEEES3_EEEEEC2B7v160006ILb1EvEEv, symObjAddr: 0x8AC0, symBinAddr: 0x100011C2C, symSize: 0x34 }
  - { offsetInCU: 0x23578, offset: 0x55676, size: 0x8, addend: 0x0, symName: __ZNSt3__122__compressed_pair_elemINS_15__tree_end_nodeIPNS_16__tree_node_baseIPvEEEELi0ELb0EEC2B7v160006ENS_16__value_init_tagE, symObjAddr: 0x8AF4, symBinAddr: 0x100011C60, symSize: 0x2C }
  - { offsetInCU: 0x235AC, offset: 0x556AA, size: 0x8, addend: 0x0, symName: __ZNSt3__122__compressed_pair_elemINS_9allocatorINS_11__tree_nodeINS_12__value_typeINS_10shared_ptrI6ButtonEENS4_I19HorizontalSlideDoorEEEEPvEEEELi1ELb1EEC2B7v160006ENS_16__value_init_tagE, symObjAddr: 0x8B20, symBinAddr: 0x100011C8C, symSize: 0x2C }
  - { offsetInCU: 0x235E0, offset: 0x556DE, size: 0x8, addend: 0x0, symName: __ZNSt3__19allocatorINS_11__tree_nodeINS_12__value_typeINS_10shared_ptrI6ButtonEENS3_I19HorizontalSlideDoorEEEEPvEEEC2B7v160006Ev, symObjAddr: 0x8B90, symBinAddr: 0x100011CB8, symSize: 0x2C }
  - { offsetInCU: 0x2360A, offset: 0x55708, size: 0x8, addend: 0x0, symName: __ZNSt3__116__non_trivial_ifILb1ENS_9allocatorINS_11__tree_nodeINS_12__value_typeINS_10shared_ptrI6ButtonEENS4_I19HorizontalSlideDoorEEEEPvEEEEEC2B7v160006Ev, symObjAddr: 0x8BBC, symBinAddr: 0x100011CE4, symSize: 0x14 }
  - { offsetInCU: 0x23634, offset: 0x55732, size: 0x8, addend: 0x0, symName: __ZNSt3__117__compressed_pairImNS_19__map_value_compareINS_10shared_ptrI6ButtonEENS_12__value_typeIS4_NS2_I19HorizontalSlideDoorEEEENS_4lessIS4_EELb1EEEEC2B7v160006IiRKSB_EEOT_OT0_, symObjAddr: 0x8BD0, symBinAddr: 0x100011CF8, symSize: 0x44 }
  - { offsetInCU: 0x2368C, offset: 0x5578A, size: 0x8, addend: 0x0, symName: __ZNSt3__122__compressed_pair_elemINS_19__map_value_compareINS_10shared_ptrI6ButtonEENS_12__value_typeIS4_NS2_I19HorizontalSlideDoorEEEENS_4lessIS4_EELb1EEELi1ELb1EEC2B7v160006IRKSB_vEEOT_, symObjAddr: 0x8C38, symBinAddr: 0x100011D3C, symSize: 0x18 }
  - { offsetInCU: 0x236CE, offset: 0x557CC, size: 0x8, addend: 0x0, symName: __ZNSt3__117__compressed_pairINS_15__tree_end_nodeIPNS_16__tree_node_baseIPvEEEENS_9allocatorINS_11__tree_nodeINS_12__value_typeINS_10shared_ptrI6ButtonEENSA_I19HorizontalSlideDoorEEEES3_EEEEE5firstB7v160006Ev, symObjAddr: 0x8C64, symBinAddr: 0x100011D54, symSize: 0x24 }
  - { offsetInCU: 0x236F4, offset: 0x557F2, size: 0x8, addend: 0x0, symName: __ZNSt3__13mapINS_10shared_ptrI6ButtonEENS1_I19HorizontalSlideDoorEENS_4lessIS3_EENS_9allocatorINS_4pairIKS3_S5_EEEEED2B7v160006Ev, symObjAddr: 0x8C9C, symBinAddr: 0x100011D78, symSize: 0x2C }
  - { offsetInCU: 0x2371E, offset: 0x5581C, size: 0x8, addend: 0x0, symName: __ZNSt3__16__treeINS_12__value_typeINS_10shared_ptrI6ButtonEENS2_I19HorizontalSlideDoorEEEENS_19__map_value_compareIS4_S7_NS_4lessIS4_EELb1EEENS_9allocatorIS7_EEED1Ev, symObjAddr: 0x8CC8, symBinAddr: 0x100011DA4, symSize: 0x2C }
  - { offsetInCU: 0x2374A, offset: 0x55848, size: 0x8, addend: 0x0, symName: __ZNSt3__16__treeINS_12__value_typeINS_10shared_ptrI6ButtonEENS2_I19HorizontalSlideDoorEEEENS_19__map_value_compareIS4_S7_NS_4lessIS4_EELb1EEENS_9allocatorIS7_EEED2Ev, symObjAddr: 0x8CF4, symBinAddr: 0x100011DD0, symSize: 0x38 }
  - { offsetInCU: 0x23776, offset: 0x55874, size: 0x8, addend: 0x0, symName: __ZNSt3__16__treeINS_12__value_typeINS_10shared_ptrI6ButtonEENS2_I19HorizontalSlideDoorEEEENS_19__map_value_compareIS4_S7_NS_4lessIS4_EELb1EEENS_9allocatorIS7_EEE7destroyEPNS_11__tree_nodeIS7_PvEE, symObjAddr: 0x8D2C, symBinAddr: 0x100011E08, symSize: 0xAC }
  - { offsetInCU: 0x237C3, offset: 0x558C1, size: 0x8, addend: 0x0, symName: __ZNKSt3__16__treeINS_12__value_typeINS_10shared_ptrI6ButtonEENS2_I19HorizontalSlideDoorEEEENS_19__map_value_compareIS4_S7_NS_4lessIS4_EELb1EEENS_9allocatorIS7_EEE6__rootB7v160006Ev, symObjAddr: 0x8DD8, symBinAddr: 0x100011EB4, symSize: 0x28 }
  - { offsetInCU: 0x237E9, offset: 0x558E7, size: 0x8, addend: 0x0, symName: __ZNSt3__16__treeINS_12__value_typeINS_10shared_ptrI6ButtonEENS2_I19HorizontalSlideDoorEEEENS_19__map_value_compareIS4_S7_NS_4lessIS4_EELb1EEENS_9allocatorIS7_EEE12__node_allocB7v160006Ev, symObjAddr: 0x8E00, symBinAddr: 0x100011EDC, symSize: 0x28 }
  - { offsetInCU: 0x2380F, offset: 0x5590D, size: 0x8, addend: 0x0, symName: __ZNSt3__116allocator_traitsINS_9allocatorINS_11__tree_nodeINS_12__value_typeINS_10shared_ptrI6ButtonEENS4_I19HorizontalSlideDoorEEEEPvEEEEE7destroyB7v160006INS_4pairIKS6_S8_EEvvEEvRSC_PT_, symObjAddr: 0x8E28, symBinAddr: 0x100011F04, symSize: 0x28 }
  - { offsetInCU: 0x2384A, offset: 0x55948, size: 0x8, addend: 0x0, symName: __ZNSt3__122__tree_key_value_typesINS_12__value_typeINS_10shared_ptrI6ButtonEENS2_I19HorizontalSlideDoorEEEEE9__get_ptrB7v160006ERS7_, symObjAddr: 0x8E50, symBinAddr: 0x100011F2C, symSize: 0x24 }
  - { offsetInCU: 0x2386E, offset: 0x5596C, size: 0x8, addend: 0x0, symName: __ZNSt3__116allocator_traitsINS_9allocatorINS_11__tree_nodeINS_12__value_typeINS_10shared_ptrI6ButtonEENS4_I19HorizontalSlideDoorEEEEPvEEEEE10deallocateB7v160006ERSC_PSB_m, symObjAddr: 0x8E74, symBinAddr: 0x100011F50, symSize: 0x34 }
  - { offsetInCU: 0x238B0, offset: 0x559AE, size: 0x8, addend: 0x0, symName: __ZNSt3__117__compressed_pairINS_15__tree_end_nodeIPNS_16__tree_node_baseIPvEEEENS_9allocatorINS_11__tree_nodeINS_12__value_typeINS_10shared_ptrI6ButtonEENSA_I19HorizontalSlideDoorEEEES3_EEEEE6secondB7v160006Ev, symObjAddr: 0x8EA8, symBinAddr: 0x100011F84, symSize: 0x24 }
  - { offsetInCU: 0x238D6, offset: 0x559D4, size: 0x8, addend: 0x0, symName: __ZNSt3__122__compressed_pair_elemINS_9allocatorINS_11__tree_nodeINS_12__value_typeINS_10shared_ptrI6ButtonEENS4_I19HorizontalSlideDoorEEEEPvEEEELi1ELb1EE5__getB7v160006Ev, symObjAddr: 0x8ECC, symBinAddr: 0x100011FA8, symSize: 0x14 }
  - { offsetInCU: 0x238FC, offset: 0x559FA, size: 0x8, addend: 0x0, symName: __ZNSt3__14pairIKNS_10shared_ptrI6ButtonEENS1_I19HorizontalSlideDoorEEED1Ev, symObjAddr: 0x8EE0, symBinAddr: 0x100011FBC, symSize: 0x2C }
  - { offsetInCU: 0x23928, offset: 0x55A26, size: 0x8, addend: 0x0, symName: __ZNSt3__14pairIKNS_10shared_ptrI6ButtonEENS1_I19HorizontalSlideDoorEEED2Ev, symObjAddr: 0x8F0C, symBinAddr: 0x100011FE8, symSize: 0x38 }
  - { offsetInCU: 0x23954, offset: 0x55A52, size: 0x8, addend: 0x0, symName: __ZNSt3__112__value_typeINS_10shared_ptrI6ButtonEENS1_I19HorizontalSlideDoorEEE11__get_valueB7v160006Ev, symObjAddr: 0x8F44, symBinAddr: 0x100012020, symSize: 0x24 }
  - { offsetInCU: 0x2397A, offset: 0x55A78, size: 0x8, addend: 0x0, symName: __ZNSt3__19allocatorINS_11__tree_nodeINS_12__value_typeINS_10shared_ptrI6ButtonEENS3_I19HorizontalSlideDoorEEEEPvEEE10deallocateB7v160006EPSA_m, symObjAddr: 0x8FA0, symBinAddr: 0x10001207C, symSize: 0x40 }
  - { offsetInCU: 0x239BC, offset: 0x55ABA, size: 0x8, addend: 0x0, symName: __ZNKSt3__16__treeINS_12__value_typeINS_10shared_ptrI6ButtonEENS2_I19HorizontalSlideDoorEEEENS_19__map_value_compareIS4_S7_NS_4lessIS4_EELb1EEENS_9allocatorIS7_EEE10__end_nodeB7v160006Ev, symObjAddr: 0x8FE0, symBinAddr: 0x1000120BC, symSize: 0x2C }
  - { offsetInCU: 0x239E2, offset: 0x55AE0, size: 0x8, addend: 0x0, symName: __ZNKSt3__117__compressed_pairINS_15__tree_end_nodeIPNS_16__tree_node_baseIPvEEEENS_9allocatorINS_11__tree_nodeINS_12__value_typeINS_10shared_ptrI6ButtonEENSA_I19HorizontalSlideDoorEEEES3_EEEEE5firstB7v160006Ev, symObjAddr: 0x900C, symBinAddr: 0x1000120E8, symSize: 0x24 }
  - { offsetInCU: 0x23A08, offset: 0x55B06, size: 0x8, addend: 0x0, symName: __ZNSt3__19allocatorI6ButtonEC1B7v160006Ev, symObjAddr: 0x90EC, symBinAddr: 0x1000121B4, symSize: 0x2C }
  - { offsetInCU: 0x23A6E, offset: 0x55B6C, size: 0x8, addend: 0x0, symName: __ZNSt3__118__allocation_guardINS_9allocatorINS_20__shared_ptr_emplaceI6ButtonNS1_IS3_EEEEEEEC1B7v160006IS4_EET_m, symObjAddr: 0x9118, symBinAddr: 0x1000121E0, symSize: 0x34 }
  - { offsetInCU: 0x23ABD, offset: 0x55BBB, size: 0x8, addend: 0x0, symName: __ZNKSt3__118__allocation_guardINS_9allocatorINS_20__shared_ptr_emplaceI6ButtonNS1_IS3_EEEEEEE5__getB7v160006Ev, symObjAddr: 0x914C, symBinAddr: 0x100012214, symSize: 0x18 }
  - { offsetInCU: 0x23AE8, offset: 0x55BE6, size: 0x8, addend: 0x0, symName: __ZNSt3__120__shared_ptr_emplaceI6ButtonNS_9allocatorIS1_EEEC1B7v160006IJ6mypairIiEbbEEES3_DpOT_, symObjAddr: 0x9164, symBinAddr: 0x10001222C, symSize: 0x44 }
  - { offsetInCU: 0x23B63, offset: 0x55C61, size: 0x8, addend: 0x0, symName: __ZNSt3__118__allocation_guardINS_9allocatorINS_20__shared_ptr_emplaceI6ButtonNS1_IS3_EEEEEEE13__release_ptrB7v160006Ev, symObjAddr: 0x91A8, symBinAddr: 0x100012270, symSize: 0x24 }
  - { offsetInCU: 0x23B97, offset: 0x55C95, size: 0x8, addend: 0x0, symName: __ZNSt3__110shared_ptrI6ButtonE27__create_with_control_blockB7v160006IS1_NS_20__shared_ptr_emplaceIS1_NS_9allocatorIS1_EEEEEES2_PT_PT0_, symObjAddr: 0x91CC, symBinAddr: 0x100012294, symSize: 0xA4 }
  - { offsetInCU: 0x23BEC, offset: 0x55CEA, size: 0x8, addend: 0x0, symName: __ZNSt3__120__shared_ptr_emplaceI6ButtonNS_9allocatorIS1_EEE10__get_elemB7v160006Ev, symObjAddr: 0x9270, symBinAddr: 0x100012338, symSize: 0x28 }
  - { offsetInCU: 0x23C12, offset: 0x55D10, size: 0x8, addend: 0x0, symName: __ZNSt3__118__allocation_guardINS_9allocatorINS_20__shared_ptr_emplaceI6ButtonNS1_IS3_EEEEEEED1B7v160006Ev, symObjAddr: 0x9298, symBinAddr: 0x100012360, symSize: 0x2C }
  - { offsetInCU: 0x23C3C, offset: 0x55D3A, size: 0x8, addend: 0x0, symName: __ZNSt3__118__allocation_guardINS_9allocatorINS_20__shared_ptr_emplaceI6ButtonNS1_IS3_EEEEEEEC2B7v160006IS4_EET_m, symObjAddr: 0x92C4, symBinAddr: 0x10001238C, symSize: 0x50 }
  - { offsetInCU: 0x23C8B, offset: 0x55D89, size: 0x8, addend: 0x0, symName: __ZNSt3__19allocatorINS_20__shared_ptr_emplaceI6ButtonNS0_IS2_EEEEEC1B7v160006IS2_EERKNS0_IT_EE, symObjAddr: 0x9314, symBinAddr: 0x1000123DC, symSize: 0x34 }
  - { offsetInCU: 0x23CC8, offset: 0x55DC6, size: 0x8, addend: 0x0, symName: __ZNSt3__116allocator_traitsINS_9allocatorINS_20__shared_ptr_emplaceI6ButtonNS1_IS3_EEEEEEE8allocateB7v160006ERS6_m, symObjAddr: 0x9348, symBinAddr: 0x100012410, symSize: 0x2C }
  - { offsetInCU: 0x23CFB, offset: 0x55DF9, size: 0x8, addend: 0x0, symName: __ZNSt3__19allocatorINS_20__shared_ptr_emplaceI6ButtonNS0_IS2_EEEEEC2B7v160006IS2_EERKNS0_IT_EE, symObjAddr: 0x9374, symBinAddr: 0x10001243C, symSize: 0x30 }
  - { offsetInCU: 0x23D38, offset: 0x55E36, size: 0x8, addend: 0x0, symName: __ZNSt3__116__non_trivial_ifILb1ENS_9allocatorINS_20__shared_ptr_emplaceI6ButtonNS1_IS3_EEEEEEEC2B7v160006Ev, symObjAddr: 0x93A4, symBinAddr: 0x10001246C, symSize: 0x14 }
  - { offsetInCU: 0x23D62, offset: 0x55E60, size: 0x8, addend: 0x0, symName: __ZNSt3__19allocatorINS_20__shared_ptr_emplaceI6ButtonNS0_IS2_EEEEE8allocateB7v160006Em, symObjAddr: 0x93B8, symBinAddr: 0x100012480, symSize: 0x58 }
  - { offsetInCU: 0x23DA0, offset: 0x55E9E, size: 0x8, addend: 0x0, symName: __ZNSt3__116allocator_traitsINS_9allocatorINS_20__shared_ptr_emplaceI6ButtonNS1_IS3_EEEEEEE8max_sizeB7v160006IS6_vEEmRKS6_, symObjAddr: 0x9410, symBinAddr: 0x1000124D8, symSize: 0x24 }
  - { offsetInCU: 0x23DCE, offset: 0x55ECC, size: 0x8, addend: 0x0, symName: __ZNKSt3__19allocatorINS_20__shared_ptr_emplaceI6ButtonNS0_IS2_EEEEE8max_sizeB7v160006Ev, symObjAddr: 0x9434, symBinAddr: 0x1000124FC, symSize: 0x14 }
  - { offsetInCU: 0x23DF4, offset: 0x55EF2, size: 0x8, addend: 0x0, symName: __ZNSt3__120__shared_ptr_emplaceI6ButtonNS_9allocatorIS1_EEEC2B7v160006IJ6mypairIiEbbEEES3_DpOT_, symObjAddr: 0x9448, symBinAddr: 0x100012510, symSize: 0xE8 }
  - { offsetInCU: 0x23E6F, offset: 0x55F6D, size: 0x8, addend: 0x0, symName: __ZNSt3__120__shared_ptr_emplaceI6ButtonNS_9allocatorIS1_EEE8_StorageC1B7v160006EOS3_, symObjAddr: 0x9530, symBinAddr: 0x1000125F8, symSize: 0x34 }
  - { offsetInCU: 0x23EA8, offset: 0x55FA6, size: 0x8, addend: 0x0, symName: __ZNSt3__120__shared_ptr_emplaceI6ButtonNS_9allocatorIS1_EEE8_StorageD1B7v160006Ev, symObjAddr: 0x9564, symBinAddr: 0x10001262C, symSize: 0x2C }
  - { offsetInCU: 0x23ED2, offset: 0x55FD0, size: 0x8, addend: 0x0, symName: __ZNSt3__120__shared_ptr_emplaceI6ButtonNS_9allocatorIS1_EEED1Ev, symObjAddr: 0x9590, symBinAddr: 0x100012658, symSize: 0x2C }
  - { offsetInCU: 0x23EFF, offset: 0x55FFD, size: 0x8, addend: 0x0, symName: __ZNSt3__120__shared_ptr_emplaceI6ButtonNS_9allocatorIS1_EEED0Ev, symObjAddr: 0x95BC, symBinAddr: 0x100012684, symSize: 0x30 }
  - { offsetInCU: 0x23F2C, offset: 0x5602A, size: 0x8, addend: 0x0, symName: __ZNSt3__120__shared_ptr_emplaceI6ButtonNS_9allocatorIS1_EEE16__on_zero_sharedEv, symObjAddr: 0x95EC, symBinAddr: 0x1000126B4, symSize: 0x30 }
  - { offsetInCU: 0x23F52, offset: 0x56050, size: 0x8, addend: 0x0, symName: __ZNSt3__120__shared_ptr_emplaceI6ButtonNS_9allocatorIS1_EEE21__on_zero_shared_weakEv, symObjAddr: 0x961C, symBinAddr: 0x1000126E4, symSize: 0x5C }
  - { offsetInCU: 0x23F93, offset: 0x56091, size: 0x8, addend: 0x0, symName: __ZNSt3__120__shared_ptr_emplaceI6ButtonNS_9allocatorIS1_EEE8_StorageC2B7v160006EOS3_, symObjAddr: 0x9678, symBinAddr: 0x100012740, symSize: 0x30 }
  - { offsetInCU: 0x23FCC, offset: 0x560CA, size: 0x8, addend: 0x0, symName: __ZNSt3__120__shared_ptr_emplaceI6ButtonNS_9allocatorIS1_EEE8_Storage11__get_allocEv, symObjAddr: 0x96A8, symBinAddr: 0x100012770, symSize: 0x3C }
  - { offsetInCU: 0x2401F, offset: 0x5611D, size: 0x8, addend: 0x0, symName: __ZNSt3__117__compressed_pairINS_9allocatorI6ButtonEES2_E16__get_first_baseB7v160006EPS4_, symObjAddr: 0x96E4, symBinAddr: 0x1000127AC, symSize: 0x14 }
  - { offsetInCU: 0x24042, offset: 0x56140, size: 0x8, addend: 0x0, symName: __ZNSt3__120__shared_ptr_emplaceI6ButtonNS_9allocatorIS1_EEE8_StorageD2B7v160006Ev, symObjAddr: 0x96F8, symBinAddr: 0x1000127C0, symSize: 0x2C }
  - { offsetInCU: 0x2406C, offset: 0x5616A, size: 0x8, addend: 0x0, symName: __ZNSt3__120__shared_ptr_emplaceI6ButtonNS_9allocatorIS1_EEED2Ev, symObjAddr: 0x9724, symBinAddr: 0x1000127EC, symSize: 0x48 }
  - { offsetInCU: 0x24099, offset: 0x56197, size: 0x8, addend: 0x0, symName: __ZNSt3__120__shared_ptr_emplaceI6ButtonNS_9allocatorIS1_EEE11__get_allocB7v160006Ev, symObjAddr: 0x976C, symBinAddr: 0x100012834, symSize: 0x28 }
  - { offsetInCU: 0x240BF, offset: 0x561BD, size: 0x8, addend: 0x0, symName: __ZNSt3__116allocator_traitsINS_9allocatorINS_20__shared_ptr_emplaceI6ButtonNS1_IS3_EEEEEEE10deallocateB7v160006ERS6_PS5_m, symObjAddr: 0x9794, symBinAddr: 0x10001285C, symSize: 0x34 }
  - { offsetInCU: 0x24101, offset: 0x561FF, size: 0x8, addend: 0x0, symName: __ZNSt3__114pointer_traitsIPNS_20__shared_ptr_emplaceI6ButtonNS_9allocatorIS2_EEEEE10pointer_toB7v160006ERS5_, symObjAddr: 0x97C8, symBinAddr: 0x100012890, symSize: 0x14 }
  - { offsetInCU: 0x24124, offset: 0x56222, size: 0x8, addend: 0x0, symName: __ZNSt3__19allocatorINS_20__shared_ptr_emplaceI6ButtonNS0_IS2_EEEEE10deallocateB7v160006EPS4_m, symObjAddr: 0x97DC, symBinAddr: 0x1000128A4, symSize: 0x40 }
  - { offsetInCU: 0x24166, offset: 0x56264, size: 0x8, addend: 0x0, symName: __ZNSt3__110shared_ptrI6ButtonEC1B7v160006Ev, symObjAddr: 0x981C, symBinAddr: 0x1000128E4, symSize: 0x2C }
  - { offsetInCU: 0x24190, offset: 0x5628E, size: 0x8, addend: 0x0, symName: __ZNSt3__110shared_ptrI6ButtonE18__enable_weak_thisB7v160006Ez, symObjAddr: 0x9848, symBinAddr: 0x100012910, symSize: 0x10 }
  - { offsetInCU: 0x241B7, offset: 0x562B5, size: 0x8, addend: 0x0, symName: __ZNSt3__110shared_ptrI6ButtonEC2B7v160006Ev, symObjAddr: 0x9858, symBinAddr: 0x100012920, symSize: 0x1C }
  - { offsetInCU: 0x241E1, offset: 0x562DF, size: 0x8, addend: 0x0, symName: __ZNSt3__120__shared_ptr_emplaceI6ButtonNS_9allocatorIS1_EEE8_Storage10__get_elemEv, symObjAddr: 0x9874, symBinAddr: 0x10001293C, symSize: 0x3C }
  - { offsetInCU: 0x24234, offset: 0x56332, size: 0x8, addend: 0x0, symName: __ZNSt3__117__compressed_pairINS_9allocatorI6ButtonEES2_E17__get_second_baseB7v160006EPS4_, symObjAddr: 0x98B0, symBinAddr: 0x100012978, symSize: 0x14 }
  - { offsetInCU: 0x24257, offset: 0x56355, size: 0x8, addend: 0x0, symName: __ZNSt3__118__allocation_guardINS_9allocatorINS_20__shared_ptr_emplaceI6ButtonNS1_IS3_EEEEEEED2B7v160006Ev, symObjAddr: 0x98C4, symBinAddr: 0x10001298C, symSize: 0x58 }
  - { offsetInCU: 0x24281, offset: 0x5637F, size: 0x8, addend: 0x0, symName: __ZNSt3__19allocatorI6ButtonEC2B7v160006Ev, symObjAddr: 0x991C, symBinAddr: 0x1000129E4, symSize: 0x2C }
  - { offsetInCU: 0x242AB, offset: 0x563A9, size: 0x8, addend: 0x0, symName: __ZNSt3__116__non_trivial_ifILb1ENS_9allocatorI6ButtonEEEC2B7v160006Ev, symObjAddr: 0x9948, symBinAddr: 0x100012A10, symSize: 0x14 }
  - { offsetInCU: 0x242D5, offset: 0x563D3, size: 0x8, addend: 0x0, symName: __ZNSt3__110shared_ptrI6ButtonED2B7v160006Ev, symObjAddr: 0x995C, symBinAddr: 0x100012A24, symSize: 0x54 }
  - { offsetInCU: 0x242FF, offset: 0x563FD, size: 0x8, addend: 0x0, symName: __ZNSt3__19allocatorI19HorizontalSlideDoorEC1B7v160006Ev, symObjAddr: 0x9A50, symBinAddr: 0x100012B18, symSize: 0x2C }
  - { offsetInCU: 0x24365, offset: 0x56463, size: 0x8, addend: 0x0, symName: __ZNSt3__118__allocation_guardINS_9allocatorINS_20__shared_ptr_emplaceI19HorizontalSlideDoorNS1_IS3_EEEEEEEC1B7v160006IS4_EET_m, symObjAddr: 0x9A7C, symBinAddr: 0x100012B44, symSize: 0x34 }
  - { offsetInCU: 0x243B4, offset: 0x564B2, size: 0x8, addend: 0x0, symName: __ZNKSt3__118__allocation_guardINS_9allocatorINS_20__shared_ptr_emplaceI19HorizontalSlideDoorNS1_IS3_EEEEEEE5__getB7v160006Ev, symObjAddr: 0x9AB0, symBinAddr: 0x100012B78, symSize: 0x18 }
  - { offsetInCU: 0x243DA, offset: 0x564D8, size: 0x8, addend: 0x0, symName: __ZNSt3__120__shared_ptr_emplaceI19HorizontalSlideDoorNS_9allocatorIS1_EEEC1B7v160006IJ6mypairIiES7_EEES3_DpOT_, symObjAddr: 0x9AC8, symBinAddr: 0x100012B90, symSize: 0x3C }
  - { offsetInCU: 0x24441, offset: 0x5653F, size: 0x8, addend: 0x0, symName: __ZNSt3__118__allocation_guardINS_9allocatorINS_20__shared_ptr_emplaceI19HorizontalSlideDoorNS1_IS3_EEEEEEE13__release_ptrB7v160006Ev, symObjAddr: 0x9B04, symBinAddr: 0x100012BCC, symSize: 0x24 }
  - { offsetInCU: 0x24475, offset: 0x56573, size: 0x8, addend: 0x0, symName: __ZNSt3__110shared_ptrI19HorizontalSlideDoorE27__create_with_control_blockB7v160006IS1_NS_20__shared_ptr_emplaceIS1_NS_9allocatorIS1_EEEEEES2_PT_PT0_, symObjAddr: 0x9B28, symBinAddr: 0x100012BF0, symSize: 0xA4 }
  - { offsetInCU: 0x244CA, offset: 0x565C8, size: 0x8, addend: 0x0, symName: __ZNSt3__120__shared_ptr_emplaceI19HorizontalSlideDoorNS_9allocatorIS1_EEE10__get_elemB7v160006Ev, symObjAddr: 0x9BCC, symBinAddr: 0x100012C94, symSize: 0x28 }
  - { offsetInCU: 0x244F0, offset: 0x565EE, size: 0x8, addend: 0x0, symName: __ZNSt3__118__allocation_guardINS_9allocatorINS_20__shared_ptr_emplaceI19HorizontalSlideDoorNS1_IS3_EEEEEEED1B7v160006Ev, symObjAddr: 0x9BF4, symBinAddr: 0x100012CBC, symSize: 0x2C }
  - { offsetInCU: 0x2451A, offset: 0x56618, size: 0x8, addend: 0x0, symName: __ZNSt3__118__allocation_guardINS_9allocatorINS_20__shared_ptr_emplaceI19HorizontalSlideDoorNS1_IS3_EEEEEEEC2B7v160006IS4_EET_m, symObjAddr: 0x9C20, symBinAddr: 0x100012CE8, symSize: 0x50 }
  - { offsetInCU: 0x24569, offset: 0x56667, size: 0x8, addend: 0x0, symName: __ZNSt3__19allocatorINS_20__shared_ptr_emplaceI19HorizontalSlideDoorNS0_IS2_EEEEEC1B7v160006IS2_EERKNS0_IT_EE, symObjAddr: 0x9C70, symBinAddr: 0x100012D38, symSize: 0x34 }
  - { offsetInCU: 0x245A6, offset: 0x566A4, size: 0x8, addend: 0x0, symName: __ZNSt3__116allocator_traitsINS_9allocatorINS_20__shared_ptr_emplaceI19HorizontalSlideDoorNS1_IS3_EEEEEEE8allocateB7v160006ERS6_m, symObjAddr: 0x9CA4, symBinAddr: 0x100012D6C, symSize: 0x2C }
  - { offsetInCU: 0x245D9, offset: 0x566D7, size: 0x8, addend: 0x0, symName: __ZNSt3__19allocatorINS_20__shared_ptr_emplaceI19HorizontalSlideDoorNS0_IS2_EEEEEC2B7v160006IS2_EERKNS0_IT_EE, symObjAddr: 0x9CD0, symBinAddr: 0x100012D98, symSize: 0x30 }
  - { offsetInCU: 0x24616, offset: 0x56714, size: 0x8, addend: 0x0, symName: __ZNSt3__116__non_trivial_ifILb1ENS_9allocatorINS_20__shared_ptr_emplaceI19HorizontalSlideDoorNS1_IS3_EEEEEEEC2B7v160006Ev, symObjAddr: 0x9D00, symBinAddr: 0x100012DC8, symSize: 0x14 }
  - { offsetInCU: 0x24640, offset: 0x5673E, size: 0x8, addend: 0x0, symName: __ZNSt3__19allocatorINS_20__shared_ptr_emplaceI19HorizontalSlideDoorNS0_IS2_EEEEE8allocateB7v160006Em, symObjAddr: 0x9D14, symBinAddr: 0x100012DDC, symSize: 0x5C }
  - { offsetInCU: 0x2467E, offset: 0x5677C, size: 0x8, addend: 0x0, symName: __ZNSt3__116allocator_traitsINS_9allocatorINS_20__shared_ptr_emplaceI19HorizontalSlideDoorNS1_IS3_EEEEEEE8max_sizeB7v160006IS6_vEEmRKS6_, symObjAddr: 0x9D70, symBinAddr: 0x100012E38, symSize: 0x24 }
  - { offsetInCU: 0x246AC, offset: 0x567AA, size: 0x8, addend: 0x0, symName: __ZNKSt3__19allocatorINS_20__shared_ptr_emplaceI19HorizontalSlideDoorNS0_IS2_EEEEE8max_sizeB7v160006Ev, symObjAddr: 0x9D94, symBinAddr: 0x100012E5C, symSize: 0x18 }
  - { offsetInCU: 0x246D2, offset: 0x567D0, size: 0x8, addend: 0x0, symName: __ZNSt3__120__shared_ptr_emplaceI19HorizontalSlideDoorNS_9allocatorIS1_EEEC2B7v160006IJ6mypairIiES7_EEES3_DpOT_, symObjAddr: 0x9DAC, symBinAddr: 0x100012E74, symSize: 0xDC }
  - { offsetInCU: 0x24739, offset: 0x56837, size: 0x8, addend: 0x0, symName: __ZNSt3__120__shared_ptr_emplaceI19HorizontalSlideDoorNS_9allocatorIS1_EEE8_StorageC1B7v160006EOS3_, symObjAddr: 0x9E88, symBinAddr: 0x100012F50, symSize: 0x34 }
  - { offsetInCU: 0x24772, offset: 0x56870, size: 0x8, addend: 0x0, symName: __ZNSt3__120__shared_ptr_emplaceI19HorizontalSlideDoorNS_9allocatorIS1_EEE8_StorageD1B7v160006Ev, symObjAddr: 0x9EBC, symBinAddr: 0x100012F84, symSize: 0x2C }
  - { offsetInCU: 0x2479C, offset: 0x5689A, size: 0x8, addend: 0x0, symName: __ZNSt3__120__shared_ptr_emplaceI19HorizontalSlideDoorNS_9allocatorIS1_EEED1Ev, symObjAddr: 0x9EE8, symBinAddr: 0x100012FB0, symSize: 0x2C }
  - { offsetInCU: 0x247C9, offset: 0x568C7, size: 0x8, addend: 0x0, symName: __ZNSt3__120__shared_ptr_emplaceI19HorizontalSlideDoorNS_9allocatorIS1_EEED0Ev, symObjAddr: 0x9F14, symBinAddr: 0x100012FDC, symSize: 0x30 }
  - { offsetInCU: 0x247F6, offset: 0x568F4, size: 0x8, addend: 0x0, symName: __ZNSt3__120__shared_ptr_emplaceI19HorizontalSlideDoorNS_9allocatorIS1_EEE16__on_zero_sharedEv, symObjAddr: 0x9F44, symBinAddr: 0x10001300C, symSize: 0x24 }
  - { offsetInCU: 0x2481C, offset: 0x5691A, size: 0x8, addend: 0x0, symName: __ZNSt3__120__shared_ptr_emplaceI19HorizontalSlideDoorNS_9allocatorIS1_EEE21__on_zero_shared_weakEv, symObjAddr: 0x9F68, symBinAddr: 0x100013030, symSize: 0x5C }
  - { offsetInCU: 0x2485D, offset: 0x5695B, size: 0x8, addend: 0x0, symName: __ZNSt3__120__shared_ptr_emplaceI19HorizontalSlideDoorNS_9allocatorIS1_EEE8_StorageC2B7v160006EOS3_, symObjAddr: 0x9FC4, symBinAddr: 0x10001308C, symSize: 0x30 }
  - { offsetInCU: 0x24896, offset: 0x56994, size: 0x8, addend: 0x0, symName: __ZNSt3__120__shared_ptr_emplaceI19HorizontalSlideDoorNS_9allocatorIS1_EEE8_Storage11__get_allocEv, symObjAddr: 0x9FF4, symBinAddr: 0x1000130BC, symSize: 0x3C }
  - { offsetInCU: 0x248E9, offset: 0x569E7, size: 0x8, addend: 0x0, symName: __ZNSt3__117__compressed_pairINS_9allocatorI19HorizontalSlideDoorEES2_E16__get_first_baseB7v160006EPS4_, symObjAddr: 0xA030, symBinAddr: 0x1000130F8, symSize: 0x14 }
  - { offsetInCU: 0x2490C, offset: 0x56A0A, size: 0x8, addend: 0x0, symName: __ZNSt3__120__shared_ptr_emplaceI19HorizontalSlideDoorNS_9allocatorIS1_EEE8_StorageD2B7v160006Ev, symObjAddr: 0xA044, symBinAddr: 0x10001310C, symSize: 0x2C }
  - { offsetInCU: 0x24936, offset: 0x56A34, size: 0x8, addend: 0x0, symName: __ZNSt3__120__shared_ptr_emplaceI19HorizontalSlideDoorNS_9allocatorIS1_EEED2Ev, symObjAddr: 0xA070, symBinAddr: 0x100013138, symSize: 0x48 }
  - { offsetInCU: 0x24963, offset: 0x56A61, size: 0x8, addend: 0x0, symName: __ZNSt3__120__shared_ptr_emplaceI19HorizontalSlideDoorNS_9allocatorIS1_EEE11__get_allocB7v160006Ev, symObjAddr: 0xA0B8, symBinAddr: 0x100013180, symSize: 0x28 }
  - { offsetInCU: 0x24989, offset: 0x56A87, size: 0x8, addend: 0x0, symName: __ZNSt3__116allocator_traitsINS_9allocatorINS_20__shared_ptr_emplaceI19HorizontalSlideDoorNS1_IS3_EEEEEEE10deallocateB7v160006ERS6_PS5_m, symObjAddr: 0xA0E0, symBinAddr: 0x1000131A8, symSize: 0x34 }
  - { offsetInCU: 0x249CB, offset: 0x56AC9, size: 0x8, addend: 0x0, symName: __ZNSt3__114pointer_traitsIPNS_20__shared_ptr_emplaceI19HorizontalSlideDoorNS_9allocatorIS2_EEEEE10pointer_toB7v160006ERS5_, symObjAddr: 0xA114, symBinAddr: 0x1000131DC, symSize: 0x14 }
  - { offsetInCU: 0x249EE, offset: 0x56AEC, size: 0x8, addend: 0x0, symName: __ZNSt3__19allocatorINS_20__shared_ptr_emplaceI19HorizontalSlideDoorNS0_IS2_EEEEE10deallocateB7v160006EPS4_m, symObjAddr: 0xA128, symBinAddr: 0x1000131F0, symSize: 0x44 }
  - { offsetInCU: 0x24A30, offset: 0x56B2E, size: 0x8, addend: 0x0, symName: __ZNSt3__110shared_ptrI19HorizontalSlideDoorEC1B7v160006Ev, symObjAddr: 0xA16C, symBinAddr: 0x100013234, symSize: 0x2C }
  - { offsetInCU: 0x24A5A, offset: 0x56B58, size: 0x8, addend: 0x0, symName: __ZNSt3__110shared_ptrI19HorizontalSlideDoorE18__enable_weak_thisB7v160006Ez, symObjAddr: 0xA198, symBinAddr: 0x100013260, symSize: 0x10 }
  - { offsetInCU: 0x24A81, offset: 0x56B7F, size: 0x8, addend: 0x0, symName: __ZNSt3__110shared_ptrI19HorizontalSlideDoorEC2B7v160006Ev, symObjAddr: 0xA1A8, symBinAddr: 0x100013270, symSize: 0x1C }
  - { offsetInCU: 0x24AAB, offset: 0x56BA9, size: 0x8, addend: 0x0, symName: __ZNSt3__120__shared_ptr_emplaceI19HorizontalSlideDoorNS_9allocatorIS1_EEE8_Storage10__get_elemEv, symObjAddr: 0xA1C4, symBinAddr: 0x10001328C, symSize: 0x3C }
  - { offsetInCU: 0x24AFE, offset: 0x56BFC, size: 0x8, addend: 0x0, symName: __ZNSt3__117__compressed_pairINS_9allocatorI19HorizontalSlideDoorEES2_E17__get_second_baseB7v160006EPS4_, symObjAddr: 0xA200, symBinAddr: 0x1000132C8, symSize: 0x14 }
  - { offsetInCU: 0x24B21, offset: 0x56C1F, size: 0x8, addend: 0x0, symName: __ZNSt3__118__allocation_guardINS_9allocatorINS_20__shared_ptr_emplaceI19HorizontalSlideDoorNS1_IS3_EEEEEEED2B7v160006Ev, symObjAddr: 0xA214, symBinAddr: 0x1000132DC, symSize: 0x58 }
  - { offsetInCU: 0x24B4B, offset: 0x56C49, size: 0x8, addend: 0x0, symName: __ZNSt3__19allocatorI19HorizontalSlideDoorEC2B7v160006Ev, symObjAddr: 0xA26C, symBinAddr: 0x100013334, symSize: 0x2C }
  - { offsetInCU: 0x24B75, offset: 0x56C73, size: 0x8, addend: 0x0, symName: __ZNSt3__116__non_trivial_ifILb1ENS_9allocatorI19HorizontalSlideDoorEEEC2B7v160006Ev, symObjAddr: 0xA298, symBinAddr: 0x100013360, symSize: 0x14 }
  - { offsetInCU: 0x24B9F, offset: 0x56C9D, size: 0x8, addend: 0x0, symName: __ZNSt3__110shared_ptrI19HorizontalSlideDoorED2B7v160006Ev, symObjAddr: 0xA2AC, symBinAddr: 0x100013374, symSize: 0x54 }
  - { offsetInCU: 0x24BC9, offset: 0x56CC7, size: 0x8, addend: 0x0, symName: __ZNSt3__16vectorINS_10shared_ptrI6ButtonEENS_9allocatorIS3_EEE9__end_capB7v160006Ev, symObjAddr: 0xA300, symBinAddr: 0x1000133C8, symSize: 0x28 }
  - { offsetInCU: 0x24BEF, offset: 0x56CED, size: 0x8, addend: 0x0, symName: __ZNSt3__16vectorINS_10shared_ptrI6ButtonEENS_9allocatorIS3_EEE22__construct_one_at_endB7v160006IJRKS3_EEEvDpOT_, symObjAddr: 0xA328, symBinAddr: 0x1000133F0, symSize: 0x90 }
  - { offsetInCU: 0x24C3E, offset: 0x56D3C, size: 0x8, addend: 0x0, symName: __ZNSt3__16vectorINS_10shared_ptrI6ButtonEENS_9allocatorIS3_EEE21__push_back_slow_pathIRKS3_EEvOT_, symObjAddr: 0xA3B8, symBinAddr: 0x100013480, symSize: 0xD8 }
  - { offsetInCU: 0x24C9C, offset: 0x56D9A, size: 0x8, addend: 0x0, symName: __ZNSt3__117__compressed_pairIPNS_10shared_ptrI6ButtonEENS_9allocatorIS3_EEE5firstB7v160006Ev, symObjAddr: 0xA490, symBinAddr: 0x100013558, symSize: 0x24 }
  - { offsetInCU: 0x24CC2, offset: 0x56DC0, size: 0x8, addend: 0x0, symName: __ZNSt3__122__compressed_pair_elemIPNS_10shared_ptrI6ButtonEELi0ELb0EE5__getB7v160006Ev, symObjAddr: 0xA4B4, symBinAddr: 0x10001357C, symSize: 0x14 }
  - { offsetInCU: 0x24D01, offset: 0x56DFF, size: 0x8, addend: 0x0, symName: __ZNSt3__16vectorINS_10shared_ptrI6ButtonEENS_9allocatorIS3_EEE21_ConstructTransactionC1B7v160006ERS6_m, symObjAddr: 0xA4C8, symBinAddr: 0x100013590, symSize: 0x3C }
  - { offsetInCU: 0x24D49, offset: 0x56E47, size: 0x8, addend: 0x0, symName: __ZNSt3__116allocator_traitsINS_9allocatorINS_10shared_ptrI6ButtonEEEEE9constructB7v160006IS4_JRKS4_EvEEvRS5_PT_DpOT0_, symObjAddr: 0xA504, symBinAddr: 0x1000135CC, symSize: 0x34 }
  - { offsetInCU: 0x24DA0, offset: 0x56E9E, size: 0x8, addend: 0x0, symName: __ZNSt3__16vectorINS_10shared_ptrI6ButtonEENS_9allocatorIS3_EEE21_ConstructTransactionD1B7v160006Ev, symObjAddr: 0xA538, symBinAddr: 0x100013600, symSize: 0x2C }
  - { offsetInCU: 0x24DCA, offset: 0x56EC8, size: 0x8, addend: 0x0, symName: __ZNSt3__16vectorINS_10shared_ptrI6ButtonEENS_9allocatorIS3_EEE21_ConstructTransactionC2B7v160006ERS6_m, symObjAddr: 0xA564, symBinAddr: 0x10001362C, symSize: 0x44 }
  - { offsetInCU: 0x24E12, offset: 0x56F10, size: 0x8, addend: 0x0, symName: __ZNSt3__19allocatorINS_10shared_ptrI6ButtonEEE9constructB7v160006IS3_JRKS3_EEEvPT_DpOT0_, symObjAddr: 0xA5A8, symBinAddr: 0x100013670, symSize: 0x30 }
  - { offsetInCU: 0x24E68, offset: 0x56F66, size: 0x8, addend: 0x0, symName: __ZNSt3__110shared_ptrI6ButtonEC1B7v160006ERKS2_, symObjAddr: 0xA5D8, symBinAddr: 0x1000136A0, symSize: 0x34 }
  - { offsetInCU: 0x24EA1, offset: 0x56F9F, size: 0x8, addend: 0x0, symName: __ZNSt3__110shared_ptrI6ButtonEC2B7v160006ERKS2_, symObjAddr: 0xA60C, symBinAddr: 0x1000136D4, symSize: 0x70 }
  - { offsetInCU: 0x24EDA, offset: 0x56FD8, size: 0x8, addend: 0x0, symName: __ZNSt3__16vectorINS_10shared_ptrI6ButtonEENS_9allocatorIS3_EEE21_ConstructTransactionD2B7v160006Ev, symObjAddr: 0xA6F8, symBinAddr: 0x100013744, symSize: 0x20 }
  - { offsetInCU: 0x24F04, offset: 0x57002, size: 0x8, addend: 0x0, symName: __ZNKSt3__16vectorINS_10shared_ptrI6ButtonEENS_9allocatorIS3_EEE11__recommendB7v160006Em, symObjAddr: 0xA718, symBinAddr: 0x100013764, symSize: 0xB4 }
  - { offsetInCU: 0x24F59, offset: 0x57057, size: 0x8, addend: 0x0, symName: __ZNSt3__114__split_bufferINS_10shared_ptrI6ButtonEERNS_9allocatorIS3_EEEC1EmmS6_, symObjAddr: 0xA7CC, symBinAddr: 0x100013818, symSize: 0x44 }
  - { offsetInCU: 0x24FAF, offset: 0x570AD, size: 0x8, addend: 0x0, symName: __ZNSt3__114__split_bufferINS_10shared_ptrI6ButtonEERNS_9allocatorIS3_EEED1Ev, symObjAddr: 0xA928, symBinAddr: 0x100013974, symSize: 0x2C }
  - { offsetInCU: 0x24FDB, offset: 0x570D9, size: 0x8, addend: 0x0, symName: __ZNKSt3__16vectorINS_10shared_ptrI6ButtonEENS_9allocatorIS3_EEE8max_sizeEv, symObjAddr: 0xA954, symBinAddr: 0x1000139A0, symSize: 0x60 }
  - { offsetInCU: 0x25003, offset: 0x57101, size: 0x8, addend: 0x0, symName: __ZNKSt3__16vectorINS_10shared_ptrI6ButtonEENS_9allocatorIS3_EEE20__throw_length_errorB7v160006Ev, symObjAddr: 0xA9B4, symBinAddr: 0x100013A00, symSize: 0x1C }
  - { offsetInCU: 0x25033, offset: 0x57131, size: 0x8, addend: 0x0, symName: __ZNSt3__116allocator_traitsINS_9allocatorINS_10shared_ptrI6ButtonEEEEE8max_sizeB7v160006IS5_vEEmRKS5_, symObjAddr: 0xA9D0, symBinAddr: 0x100013A1C, symSize: 0x24 }
  - { offsetInCU: 0x25061, offset: 0x5715F, size: 0x8, addend: 0x0, symName: __ZNKSt3__16vectorINS_10shared_ptrI6ButtonEENS_9allocatorIS3_EEE7__allocB7v160006Ev, symObjAddr: 0xA9F4, symBinAddr: 0x100013A40, symSize: 0x28 }
  - { offsetInCU: 0x25087, offset: 0x57185, size: 0x8, addend: 0x0, symName: __ZNKSt3__19allocatorINS_10shared_ptrI6ButtonEEE8max_sizeB7v160006Ev, symObjAddr: 0xAA1C, symBinAddr: 0x100013A68, symSize: 0x14 }
  - { offsetInCU: 0x250AD, offset: 0x571AB, size: 0x8, addend: 0x0, symName: __ZNKSt3__117__compressed_pairIPNS_10shared_ptrI6ButtonEENS_9allocatorIS3_EEE6secondB7v160006Ev, symObjAddr: 0xAA30, symBinAddr: 0x100013A7C, symSize: 0x24 }
  - { offsetInCU: 0x250D3, offset: 0x571D1, size: 0x8, addend: 0x0, symName: __ZNKSt3__122__compressed_pair_elemINS_9allocatorINS_10shared_ptrI6ButtonEEEELi1ELb1EE5__getB7v160006Ev, symObjAddr: 0xAA54, symBinAddr: 0x100013AA0, symSize: 0x14 }
  - { offsetInCU: 0x250F9, offset: 0x571F7, size: 0x8, addend: 0x0, symName: __ZNSt3__114__split_bufferINS_10shared_ptrI6ButtonEERNS_9allocatorIS3_EEEC2EmmS6_, symObjAddr: 0xAA68, symBinAddr: 0x100013AB4, symSize: 0xD4 }
  - { offsetInCU: 0x2516C, offset: 0x5726A, size: 0x8, addend: 0x0, symName: __ZNSt3__117__compressed_pairIPNS_10shared_ptrI6ButtonEERNS_9allocatorIS3_EEEC1B7v160006IDnS7_EEOT_OT0_, symObjAddr: 0xAB3C, symBinAddr: 0x100013B88, symSize: 0x3C }
  - { offsetInCU: 0x251C4, offset: 0x572C2, size: 0x8, addend: 0x0, symName: __ZNSt3__114__split_bufferINS_10shared_ptrI6ButtonEERNS_9allocatorIS3_EEE7__allocB7v160006Ev, symObjAddr: 0xABB8, symBinAddr: 0x100013C04, symSize: 0x28 }
  - { offsetInCU: 0x251EA, offset: 0x572E8, size: 0x8, addend: 0x0, symName: __ZNSt3__114__split_bufferINS_10shared_ptrI6ButtonEERNS_9allocatorIS3_EEE9__end_capB7v160006Ev, symObjAddr: 0xABE0, symBinAddr: 0x100013C2C, symSize: 0x28 }
  - { offsetInCU: 0x25210, offset: 0x5730E, size: 0x8, addend: 0x0, symName: __ZNSt3__117__compressed_pairIPNS_10shared_ptrI6ButtonEERNS_9allocatorIS3_EEEC2B7v160006IDnS7_EEOT_OT0_, symObjAddr: 0xAC08, symBinAddr: 0x100013C54, symSize: 0x48 }
  - { offsetInCU: 0x25268, offset: 0x57366, size: 0x8, addend: 0x0, symName: __ZNSt3__122__compressed_pair_elemIRNS_9allocatorINS_10shared_ptrI6ButtonEEEELi1ELb0EEC2B7v160006IS6_vEEOT_, symObjAddr: 0xAC50, symBinAddr: 0x100013C9C, symSize: 0x20 }
  - { offsetInCU: 0x252AA, offset: 0x573A8, size: 0x8, addend: 0x0, symName: __ZNSt3__19allocatorINS_10shared_ptrI6ButtonEEE8allocateB7v160006Em, symObjAddr: 0xAC70, symBinAddr: 0x100013CBC, symSize: 0x58 }
  - { offsetInCU: 0x252DE, offset: 0x573DC, size: 0x8, addend: 0x0, symName: __ZNSt3__117__compressed_pairIPNS_10shared_ptrI6ButtonEERNS_9allocatorIS3_EEE6secondB7v160006Ev, symObjAddr: 0xACC8, symBinAddr: 0x100013D14, symSize: 0x28 }
  - { offsetInCU: 0x25304, offset: 0x57402, size: 0x8, addend: 0x0, symName: __ZNSt3__122__compressed_pair_elemIRNS_9allocatorINS_10shared_ptrI6ButtonEEEELi1ELb0EE5__getB7v160006Ev, symObjAddr: 0xACF0, symBinAddr: 0x100013D3C, symSize: 0x18 }
  - { offsetInCU: 0x2532A, offset: 0x57428, size: 0x8, addend: 0x0, symName: __ZNSt3__117__compressed_pairIPNS_10shared_ptrI6ButtonEERNS_9allocatorIS3_EEE5firstB7v160006Ev, symObjAddr: 0xAD08, symBinAddr: 0x100013D54, symSize: 0x24 }
  - { offsetInCU: 0x25350, offset: 0x5744E, size: 0x8, addend: 0x0, symName: __ZNSt3__116reverse_iteratorIPNS_10shared_ptrI6ButtonEEEC1B7v160006ES4_, symObjAddr: 0xAE58, symBinAddr: 0x100013EA4, symSize: 0x34 }
  - { offsetInCU: 0x25388, offset: 0x57486, size: 0x8, addend: 0x0, symName: __ZNKSt3__116reverse_iteratorIPNS_10shared_ptrI6ButtonEEE4baseB7v160006Ev, symObjAddr: 0xAE8C, symBinAddr: 0x100013ED8, symSize: 0x18 }
  - { offsetInCU: 0x253AE, offset: 0x574AC, size: 0x8, addend: 0x0, symName: __ZNKSt3__16vectorINS_10shared_ptrI6ButtonEENS_9allocatorIS3_EEE14__annotate_newB7v160006Em, symObjAddr: 0xAEE0, symBinAddr: 0x100013F2C, symSize: 0xAC }
  - { offsetInCU: 0x253E3, offset: 0x574E1, size: 0x8, addend: 0x0, symName: __ZNSt3__129_AllocatorDestroyRangeReverseINS_9allocatorINS_10shared_ptrI6ButtonEEEENS_16reverse_iteratorIPS4_EEEC1B7v160006ERS5_RS8_SB_, symObjAddr: 0xAFE8, symBinAddr: 0x100014034, symSize: 0x44 }
  - { offsetInCU: 0x2543A, offset: 0x57538, size: 0x8, addend: 0x0, symName: __ZNSt3__116allocator_traitsINS_9allocatorINS_10shared_ptrI6ButtonEEEEE9constructB7v160006IS4_JS4_EvEEvRS5_PT_DpOT0_, symObjAddr: 0xB074, symBinAddr: 0x1000140C0, symSize: 0x34 }
  - { offsetInCU: 0x25491, offset: 0x5758F, size: 0x8, addend: 0x0, symName: __ZNKSt3__116reverse_iteratorIPNS_10shared_ptrI6ButtonEEEdeB7v160006Ev, symObjAddr: 0xB0CC, symBinAddr: 0x100014118, symSize: 0x28 }
  - { offsetInCU: 0x254C5, offset: 0x575C3, size: 0x8, addend: 0x0, symName: __ZNSt3__116reverse_iteratorIPNS_10shared_ptrI6ButtonEEEppB7v160006Ev, symObjAddr: 0xB0F4, symBinAddr: 0x100014140, symSize: 0x20 }
  - { offsetInCU: 0x254EB, offset: 0x575E9, size: 0x8, addend: 0x0, symName: __ZNSt3__128__exception_guard_exceptionsINS_29_AllocatorDestroyRangeReverseINS_9allocatorINS_10shared_ptrI6ButtonEEEENS_16reverse_iteratorIPS5_EEEEE10__completeB7v160006Ev, symObjAddr: 0xB114, symBinAddr: 0x100014160, symSize: 0x1C }
  - { offsetInCU: 0x25511, offset: 0x5760F, size: 0x8, addend: 0x0, symName: __ZNSt3__128__exception_guard_exceptionsINS_29_AllocatorDestroyRangeReverseINS_9allocatorINS_10shared_ptrI6ButtonEEEENS_16reverse_iteratorIPS5_EEEEED1B7v160006Ev, symObjAddr: 0xB130, symBinAddr: 0x10001417C, symSize: 0x2C }
  - { offsetInCU: 0x2553B, offset: 0x57639, size: 0x8, addend: 0x0, symName: __ZNSt3__128__exception_guard_exceptionsINS_29_AllocatorDestroyRangeReverseINS_9allocatorINS_10shared_ptrI6ButtonEEEENS_16reverse_iteratorIPS5_EEEEEC1B7v160006ESA_, symObjAddr: 0xB15C, symBinAddr: 0x1000141A8, symSize: 0x34 }
  - { offsetInCU: 0x25574, offset: 0x57672, size: 0x8, addend: 0x0, symName: __ZNSt3__128__exception_guard_exceptionsINS_29_AllocatorDestroyRangeReverseINS_9allocatorINS_10shared_ptrI6ButtonEEEENS_16reverse_iteratorIPS5_EEEEEC2B7v160006ESA_, symObjAddr: 0xB190, symBinAddr: 0x1000141DC, symSize: 0x30 }
  - { offsetInCU: 0x255AD, offset: 0x576AB, size: 0x8, addend: 0x0, symName: __ZNSt3__129_AllocatorDestroyRangeReverseINS_9allocatorINS_10shared_ptrI6ButtonEEEENS_16reverse_iteratorIPS4_EEEC2B7v160006ERS5_RS8_SB_, symObjAddr: 0xB1C0, symBinAddr: 0x10001420C, symSize: 0x38 }
  - { offsetInCU: 0x25604, offset: 0x57702, size: 0x8, addend: 0x0, symName: __ZNSt3__19allocatorINS_10shared_ptrI6ButtonEEE9constructB7v160006IS3_JS3_EEEvPT_DpOT0_, symObjAddr: 0xB1F8, symBinAddr: 0x100014244, symSize: 0x30 }
  - { offsetInCU: 0x2565A, offset: 0x57758, size: 0x8, addend: 0x0, symName: __ZNSt3__110shared_ptrI6ButtonEC1B7v160006EOS2_, symObjAddr: 0xB228, symBinAddr: 0x100014274, symSize: 0x34 }
  - { offsetInCU: 0x25693, offset: 0x57791, size: 0x8, addend: 0x0, symName: __ZNSt3__110shared_ptrI6ButtonEC2B7v160006EOS2_, symObjAddr: 0xB25C, symBinAddr: 0x1000142A8, symSize: 0x40 }
  - { offsetInCU: 0x256D1, offset: 0x577CF, size: 0x8, addend: 0x0, symName: __ZNSt3__119__to_address_helperINS_16reverse_iteratorIPNS_10shared_ptrI6ButtonEEEEvE6__callB7v160006ERKS6_, symObjAddr: 0xB29C, symBinAddr: 0x1000142E8, symSize: 0x38 }
  - { offsetInCU: 0x256F4, offset: 0x577F2, size: 0x8, addend: 0x0, symName: __ZNKSt3__116reverse_iteratorIPNS_10shared_ptrI6ButtonEEEptB7v160006Ev, symObjAddr: 0xB2D4, symBinAddr: 0x100014320, symSize: 0x24 }
  - { offsetInCU: 0x2571A, offset: 0x57818, size: 0x8, addend: 0x0, symName: __ZNSt3__128__exception_guard_exceptionsINS_29_AllocatorDestroyRangeReverseINS_9allocatorINS_10shared_ptrI6ButtonEEEENS_16reverse_iteratorIPS5_EEEEED2B7v160006Ev, symObjAddr: 0xB2F8, symBinAddr: 0x100014344, symSize: 0x50 }
  - { offsetInCU: 0x25744, offset: 0x57842, size: 0x8, addend: 0x0, symName: __ZNKSt3__129_AllocatorDestroyRangeReverseINS_9allocatorINS_10shared_ptrI6ButtonEEEENS_16reverse_iteratorIPS4_EEEclB7v160006Ev, symObjAddr: 0xB348, symBinAddr: 0x100014394, symSize: 0xB4 }
  - { offsetInCU: 0x2576B, offset: 0x57869, size: 0x8, addend: 0x0, symName: __ZNSt3__116reverse_iteratorINS0_IPNS_10shared_ptrI6ButtonEEEEEC1B7v160006ES5_, symObjAddr: 0xB46C, symBinAddr: 0x1000144B8, symSize: 0x3C }
  - { offsetInCU: 0x257A3, offset: 0x578A1, size: 0x8, addend: 0x0, symName: __ZNSt3__116reverse_iteratorINS0_IPNS_10shared_ptrI6ButtonEEEEEppB7v160006Ev, symObjAddr: 0xB52C, symBinAddr: 0x100014578, symSize: 0x30 }
  - { offsetInCU: 0x257C9, offset: 0x578C7, size: 0x8, addend: 0x0, symName: __ZNKSt3__116reverse_iteratorINS0_IPNS_10shared_ptrI6ButtonEEEEE4baseB7v160006Ev, symObjAddr: 0xB55C, symBinAddr: 0x1000145A8, symSize: 0x24 }
  - { offsetInCU: 0x257F4, offset: 0x578F2, size: 0x8, addend: 0x0, symName: __ZNSt3__119__to_address_helperINS_16reverse_iteratorINS1_IPNS_10shared_ptrI6ButtonEEEEEEvE6__callB7v160006ERKS7_, symObjAddr: 0xB580, symBinAddr: 0x1000145CC, symSize: 0x38 }
  - { offsetInCU: 0x25817, offset: 0x57915, size: 0x8, addend: 0x0, symName: __ZNKSt3__116reverse_iteratorINS0_IPNS_10shared_ptrI6ButtonEEEEEptB7v160006Ev, symObjAddr: 0xB5B8, symBinAddr: 0x100014604, symSize: 0x24 }
  - { offsetInCU: 0x2583D, offset: 0x5793B, size: 0x8, addend: 0x0, symName: __ZNKSt3__116reverse_iteratorINS0_IPNS_10shared_ptrI6ButtonEEEEEdeB7v160006Ev, symObjAddr: 0xB5DC, symBinAddr: 0x100014628, symSize: 0x34 }
  - { offsetInCU: 0x25871, offset: 0x5796F, size: 0x8, addend: 0x0, symName: __ZNSt3__116reverse_iteratorIPNS_10shared_ptrI6ButtonEEEmmB7v160006Ev, symObjAddr: 0xB610, symBinAddr: 0x10001465C, symSize: 0x20 }
  - { offsetInCU: 0x25897, offset: 0x57995, size: 0x8, addend: 0x0, symName: __ZNSt3__116reverse_iteratorINS0_IPNS_10shared_ptrI6ButtonEEEEEC2B7v160006ES5_, symObjAddr: 0xB630, symBinAddr: 0x10001467C, symSize: 0x2C }
  - { offsetInCU: 0x258CF, offset: 0x579CD, size: 0x8, addend: 0x0, symName: __ZNSt3__116reverse_iteratorIPNS_10shared_ptrI6ButtonEEEC2B7v160006ES4_, symObjAddr: 0xB65C, symBinAddr: 0x1000146A8, symSize: 0x28 }
  - { offsetInCU: 0x25907, offset: 0x57A05, size: 0x8, addend: 0x0, symName: __ZNSt3__114__split_bufferINS_10shared_ptrI6ButtonEERNS_9allocatorIS3_EEED2Ev, symObjAddr: 0xB684, symBinAddr: 0x1000146D0, symSize: 0x8C }
  - { offsetInCU: 0x25933, offset: 0x57A31, size: 0x8, addend: 0x0, symName: __ZNSt3__114__split_bufferINS_10shared_ptrI6ButtonEERNS_9allocatorIS3_EEE5clearB7v160006Ev, symObjAddr: 0xB710, symBinAddr: 0x10001475C, symSize: 0x28 }
  - { offsetInCU: 0x25959, offset: 0x57A57, size: 0x8, addend: 0x0, symName: __ZNKSt3__114__split_bufferINS_10shared_ptrI6ButtonEERNS_9allocatorIS3_EEE8capacityB7v160006Ev, symObjAddr: 0xB738, symBinAddr: 0x100014784, symSize: 0x40 }
  - { offsetInCU: 0x2597F, offset: 0x57A7D, size: 0x8, addend: 0x0, symName: __ZNSt3__114__split_bufferINS_10shared_ptrI6ButtonEERNS_9allocatorIS3_EEE17__destruct_at_endB7v160006EPS3_, symObjAddr: 0xB778, symBinAddr: 0x1000147C4, symSize: 0x2C }
  - { offsetInCU: 0x259B3, offset: 0x57AB1, size: 0x8, addend: 0x0, symName: __ZNSt3__114__split_bufferINS_10shared_ptrI6ButtonEERNS_9allocatorIS3_EEE17__destruct_at_endB7v160006EPS3_NS_17integral_constantIbLb0EEE, symObjAddr: 0xB7A4, symBinAddr: 0x1000147F0, symSize: 0x80 }
  - { offsetInCU: 0x259F3, offset: 0x57AF1, size: 0x8, addend: 0x0, symName: __ZNKSt3__114__split_bufferINS_10shared_ptrI6ButtonEERNS_9allocatorIS3_EEE9__end_capB7v160006Ev, symObjAddr: 0xB824, symBinAddr: 0x100014870, symSize: 0x28 }
  - { offsetInCU: 0x25A19, offset: 0x57B17, size: 0x8, addend: 0x0, symName: __ZNKSt3__117__compressed_pairIPNS_10shared_ptrI6ButtonEERNS_9allocatorIS3_EEE5firstB7v160006Ev, symObjAddr: 0xB84C, symBinAddr: 0x100014898, symSize: 0x24 }
  - { offsetInCU: 0x25A4E, offset: 0x57B4C, size: 0x8, addend: 0x0, symName: __ZNSt3__16__treeINS_12__value_typeINS_10shared_ptrI6ButtonEENS2_I19HorizontalSlideDoorEEEENS_19__map_value_compareIS4_S7_NS_4lessIS4_EELb1EEENS_9allocatorIS7_EEE25__emplace_unique_key_argsIS4_JRKNS_21piecewise_construct_tENS_5tupleIJRKS4_EEENSJ_IJEEEEEENS_4pairINS_15__tree_iteratorIS7_PNS_11__tree_nodeIS7_PvEElEEbEERKT_DpOT0_, symObjAddr: 0xB870, symBinAddr: 0x1000148BC, symSize: 0x100 }
  - { offsetInCU: 0x25B25, offset: 0x57C23, size: 0x8, addend: 0x0, symName: __ZNKSt3__115__tree_iteratorINS_12__value_typeINS_10shared_ptrI6ButtonEENS2_I19HorizontalSlideDoorEEEEPNS_11__tree_nodeIS7_PvEElEptB7v160006Ev, symObjAddr: 0xB9A0, symBinAddr: 0x1000149E8, symSize: 0x2C }
  - { offsetInCU: 0x25B4B, offset: 0x57C49, size: 0x8, addend: 0x0, symName: __ZNSt3__16__treeINS_12__value_typeINS_10shared_ptrI6ButtonEENS2_I19HorizontalSlideDoorEEEENS_19__map_value_compareIS4_S7_NS_4lessIS4_EELb1EEENS_9allocatorIS7_EEE12__find_equalIS4_EERPNS_16__tree_node_baseIPvEERPNS_15__tree_end_nodeISJ_EERKT_, symObjAddr: 0xB9CC, symBinAddr: 0x100014A14, symSize: 0x184 }
  - { offsetInCU: 0x25BB8, offset: 0x57CB6, size: 0x8, addend: 0x0, symName: __ZNSt3__16__treeINS_12__value_typeINS_10shared_ptrI6ButtonEENS2_I19HorizontalSlideDoorEEEENS_19__map_value_compareIS4_S7_NS_4lessIS4_EELb1EEENS_9allocatorIS7_EEE16__construct_nodeIJRKNS_21piecewise_construct_tENS_5tupleIJRKS4_EEENSJ_IJEEEEEENS_10unique_ptrINS_11__tree_nodeIS7_PvEENS_22__tree_node_destructorINSC_ISR_EEEEEEDpOT_, symObjAddr: 0xBB50, symBinAddr: 0x100014B98, symSize: 0x120 }
  - { offsetInCU: 0x25C41, offset: 0x57D3F, size: 0x8, addend: 0x0, symName: __ZNSt3__16__treeINS_12__value_typeINS_10shared_ptrI6ButtonEENS2_I19HorizontalSlideDoorEEEENS_19__map_value_compareIS4_S7_NS_4lessIS4_EELb1EEENS_9allocatorIS7_EEE16__insert_node_atEPNS_15__tree_end_nodeIPNS_16__tree_node_baseIPvEEEERSJ_SJ_, symObjAddr: 0xBC70, symBinAddr: 0x100014CB8, symSize: 0xCC }
  - { offsetInCU: 0x25C96, offset: 0x57D94, size: 0x8, addend: 0x0, symName: __ZNKSt3__110unique_ptrINS_11__tree_nodeINS_12__value_typeINS_10shared_ptrI6ButtonEENS3_I19HorizontalSlideDoorEEEEPvEENS_22__tree_node_destructorINS_9allocatorISA_EEEEE3getB7v160006Ev, symObjAddr: 0xBD3C, symBinAddr: 0x100014D84, symSize: 0x28 }
  - { offsetInCU: 0x25CBC, offset: 0x57DBA, size: 0x8, addend: 0x0, symName: __ZNSt3__110unique_ptrINS_11__tree_nodeINS_12__value_typeINS_10shared_ptrI6ButtonEENS3_I19HorizontalSlideDoorEEEEPvEENS_22__tree_node_destructorINS_9allocatorISA_EEEEE7releaseB7v160006Ev, symObjAddr: 0xBD64, symBinAddr: 0x100014DAC, symSize: 0x44 }
  - { offsetInCU: 0x25CF1, offset: 0x57DEF, size: 0x8, addend: 0x0, symName: __ZNSt3__110unique_ptrINS_11__tree_nodeINS_12__value_typeINS_10shared_ptrI6ButtonEENS3_I19HorizontalSlideDoorEEEEPvEENS_22__tree_node_destructorINS_9allocatorISA_EEEEED1B7v160006Ev, symObjAddr: 0xBDA8, symBinAddr: 0x100014DF0, symSize: 0x2C }
  - { offsetInCU: 0x25D1B, offset: 0x57E19, size: 0x8, addend: 0x0, symName: __ZNSt3__115__tree_iteratorINS_12__value_typeINS_10shared_ptrI6ButtonEENS2_I19HorizontalSlideDoorEEEEPNS_11__tree_nodeIS7_PvEElEC1B7v160006ESB_, symObjAddr: 0xBDD4, symBinAddr: 0x100014E1C, symSize: 0x34 }
  - { offsetInCU: 0x25D59, offset: 0x57E57, size: 0x8, addend: 0x0, symName: __ZNSt3__14pairINS_15__tree_iteratorINS_12__value_typeINS_10shared_ptrI6ButtonEENS3_I19HorizontalSlideDoorEEEEPNS_11__tree_nodeIS8_PvEElEEbEC1B7v160006ISD_RbLSA_0EEEOT_OT0_, symObjAddr: 0xBE08, symBinAddr: 0x100014E50, symSize: 0x3C }
  - { offsetInCU: 0x25DB7, offset: 0x57EB5, size: 0x8, addend: 0x0, symName: __ZNKSt3__16__treeINS_12__value_typeINS_10shared_ptrI6ButtonEENS2_I19HorizontalSlideDoorEEEENS_19__map_value_compareIS4_S7_NS_4lessIS4_EELb1EEENS_9allocatorIS7_EEE10__root_ptrEv, symObjAddr: 0xBE44, symBinAddr: 0x100014E8C, symSize: 0x24 }
  - { offsetInCU: 0x25DDD, offset: 0x57EDB, size: 0x8, addend: 0x0, symName: __ZNSt3__16__treeINS_12__value_typeINS_10shared_ptrI6ButtonEENS2_I19HorizontalSlideDoorEEEENS_19__map_value_compareIS4_S7_NS_4lessIS4_EELb1EEENS_9allocatorIS7_EEE10value_compB7v160006Ev, symObjAddr: 0xBE68, symBinAddr: 0x100014EB0, symSize: 0x28 }
  - { offsetInCU: 0x25E03, offset: 0x57F01, size: 0x8, addend: 0x0, symName: __ZNKSt3__119__map_value_compareINS_10shared_ptrI6ButtonEENS_12__value_typeIS3_NS1_I19HorizontalSlideDoorEEEENS_4lessIS3_EELb1EEclB7v160006ERKS3_RKS7_, symObjAddr: 0xBE90, symBinAddr: 0x100014ED8, symSize: 0x50 }
  - { offsetInCU: 0x25E47, offset: 0x57F45, size: 0x8, addend: 0x0, symName: __ZNKSt3__119__map_value_compareINS_10shared_ptrI6ButtonEENS_12__value_typeIS3_NS1_I19HorizontalSlideDoorEEEENS_4lessIS3_EELb1EEclB7v160006ERKS7_RKS3_, symObjAddr: 0xBEE0, symBinAddr: 0x100014F28, symSize: 0x48 }
  - { offsetInCU: 0x25E8B, offset: 0x57F89, size: 0x8, addend: 0x0, symName: __ZNSt3__117__compressed_pairImNS_19__map_value_compareINS_10shared_ptrI6ButtonEENS_12__value_typeIS4_NS2_I19HorizontalSlideDoorEEEENS_4lessIS4_EELb1EEEE6secondB7v160006Ev, symObjAddr: 0xBF28, symBinAddr: 0x100014F70, symSize: 0x24 }
  - { offsetInCU: 0x25EB1, offset: 0x57FAF, size: 0x8, addend: 0x0, symName: __ZNSt3__122__compressed_pair_elemINS_19__map_value_compareINS_10shared_ptrI6ButtonEENS_12__value_typeIS4_NS2_I19HorizontalSlideDoorEEEENS_4lessIS4_EELb1EEELi1ELb1EE5__getB7v160006Ev, symObjAddr: 0xBF4C, symBinAddr: 0x100014F94, symSize: 0x14 }
  - { offsetInCU: 0x25ED7, offset: 0x57FD5, size: 0x8, addend: 0x0, symName: __ZNKSt3__14lessINS_10shared_ptrI6ButtonEEEclB7v160006ERKS3_S6_, symObjAddr: 0xBF60, symBinAddr: 0x100014FA8, symSize: 0x34 }
  - { offsetInCU: 0x25F1B, offset: 0x58019, size: 0x8, addend: 0x0, symName: __ZNKSt3__112__value_typeINS_10shared_ptrI6ButtonEENS1_I19HorizontalSlideDoorEEE11__get_valueB7v160006Ev, symObjAddr: 0xBF94, symBinAddr: 0x100014FDC, symSize: 0x24 }
  - { offsetInCU: 0x25F50, offset: 0x5804E, size: 0x8, addend: 0x0, symName: __ZNKSt3__14lessIvEclB7v160006IP6ButtonS4_EEDTltclsr3stdE7forwardIT_Efp_Eclsr3stdE7forwardIT0_Efp0_EEOS5_OS6_, symObjAddr: 0xC00C, symBinAddr: 0x100015054, symSize: 0x34 }
  - { offsetInCU: 0x25FA6, offset: 0x580A4, size: 0x8, addend: 0x0, symName: __ZNKSt3__110shared_ptrI6ButtonE3getB7v160006Ev, symObjAddr: 0xC040, symBinAddr: 0x100015088, symSize: 0x18 }
  - { offsetInCU: 0x25FCC, offset: 0x580CA, size: 0x8, addend: 0x0, symName: __ZNSt3__116allocator_traitsINS_9allocatorINS_11__tree_nodeINS_12__value_typeINS_10shared_ptrI6ButtonEENS4_I19HorizontalSlideDoorEEEEPvEEEEE8allocateB7v160006ERSC_m, symObjAddr: 0xC090, symBinAddr: 0x1000150D8, symSize: 0x2C }
  - { offsetInCU: 0x25FFF, offset: 0x580FD, size: 0x8, addend: 0x0, symName: __ZNSt3__122__tree_node_destructorINS_9allocatorINS_11__tree_nodeINS_12__value_typeINS_10shared_ptrI6ButtonEENS4_I19HorizontalSlideDoorEEEEPvEEEEEC1B7v160006ERSC_b, symObjAddr: 0xC0BC, symBinAddr: 0x100015104, symSize: 0x48 }
  - { offsetInCU: 0x2604C, offset: 0x5814A, size: 0x8, addend: 0x0, symName: __ZNSt3__110unique_ptrINS_11__tree_nodeINS_12__value_typeINS_10shared_ptrI6ButtonEENS3_I19HorizontalSlideDoorEEEEPvEENS_22__tree_node_destructorINS_9allocatorISA_EEEEEC1B7v160006ILb1EvEEPSA_NS_16__dependent_typeINS_27__unique_ptr_deleter_sfinaeISE_EEXT_EE20__good_rval_ref_typeE, symObjAddr: 0xC104, symBinAddr: 0x10001514C, symSize: 0x3C }
  - { offsetInCU: 0x2609D, offset: 0x5819B, size: 0x8, addend: 0x0, symName: __ZNSt3__116allocator_traitsINS_9allocatorINS_11__tree_nodeINS_12__value_typeINS_10shared_ptrI6ButtonEENS4_I19HorizontalSlideDoorEEEEPvEEEEE9constructB7v160006INS_4pairIKS6_S8_EEJRKNS_21piecewise_construct_tENS_5tupleIJRSG_EEENSL_IJEEEEvEEvRSC_PT_DpOT0_, symObjAddr: 0xC140, symBinAddr: 0x100015188, symSize: 0x44 }
  - { offsetInCU: 0x2611C, offset: 0x5821A, size: 0x8, addend: 0x0, symName: __ZNKSt3__110unique_ptrINS_11__tree_nodeINS_12__value_typeINS_10shared_ptrI6ButtonEENS3_I19HorizontalSlideDoorEEEEPvEENS_22__tree_node_destructorINS_9allocatorISA_EEEEEptB7v160006Ev, symObjAddr: 0xC184, symBinAddr: 0x1000151CC, symSize: 0x28 }
  - { offsetInCU: 0x26142, offset: 0x58240, size: 0x8, addend: 0x0, symName: __ZNSt3__110unique_ptrINS_11__tree_nodeINS_12__value_typeINS_10shared_ptrI6ButtonEENS3_I19HorizontalSlideDoorEEEEPvEENS_22__tree_node_destructorINS_9allocatorISA_EEEEE11get_deleterB7v160006Ev, symObjAddr: 0xC1AC, symBinAddr: 0x1000151F4, symSize: 0x24 }
  - { offsetInCU: 0x26168, offset: 0x58266, size: 0x8, addend: 0x0, symName: __ZNSt3__19allocatorINS_11__tree_nodeINS_12__value_typeINS_10shared_ptrI6ButtonEENS3_I19HorizontalSlideDoorEEEEPvEEE8allocateB7v160006Em, symObjAddr: 0xC1D0, symBinAddr: 0x100015218, symSize: 0x58 }
  - { offsetInCU: 0x261A6, offset: 0x582A4, size: 0x8, addend: 0x0, symName: __ZNSt3__116allocator_traitsINS_9allocatorINS_11__tree_nodeINS_12__value_typeINS_10shared_ptrI6ButtonEENS4_I19HorizontalSlideDoorEEEEPvEEEEE8max_sizeB7v160006ISC_vEEmRKSC_, symObjAddr: 0xC228, symBinAddr: 0x100015270, symSize: 0x24 }
  - { offsetInCU: 0x261D4, offset: 0x582D2, size: 0x8, addend: 0x0, symName: __ZNKSt3__19allocatorINS_11__tree_nodeINS_12__value_typeINS_10shared_ptrI6ButtonEENS3_I19HorizontalSlideDoorEEEEPvEEE8max_sizeB7v160006Ev, symObjAddr: 0xC24C, symBinAddr: 0x100015294, symSize: 0x14 }
  - { offsetInCU: 0x261FA, offset: 0x582F8, size: 0x8, addend: 0x0, symName: __ZNSt3__122__tree_node_destructorINS_9allocatorINS_11__tree_nodeINS_12__value_typeINS_10shared_ptrI6ButtonEENS4_I19HorizontalSlideDoorEEEEPvEEEEEC2B7v160006ERSC_b, symObjAddr: 0xC260, symBinAddr: 0x1000152A8, symSize: 0x38 }
  - { offsetInCU: 0x26242, offset: 0x58340, size: 0x8, addend: 0x0, symName: __ZNSt3__110unique_ptrINS_11__tree_nodeINS_12__value_typeINS_10shared_ptrI6ButtonEENS3_I19HorizontalSlideDoorEEEEPvEENS_22__tree_node_destructorINS_9allocatorISA_EEEEEC2B7v160006ILb1EvEEPSA_NS_16__dependent_typeINS_27__unique_ptr_deleter_sfinaeISE_EEXT_EE20__good_rval_ref_typeE, symObjAddr: 0xC298, symBinAddr: 0x1000152E0, symSize: 0x48 }
  - { offsetInCU: 0x26293, offset: 0x58391, size: 0x8, addend: 0x0, symName: __ZNSt3__117__compressed_pairIPNS_11__tree_nodeINS_12__value_typeINS_10shared_ptrI6ButtonEENS3_I19HorizontalSlideDoorEEEEPvEENS_22__tree_node_destructorINS_9allocatorISA_EEEEEC1B7v160006IRSB_SF_EEOT_OT0_, symObjAddr: 0xC2E0, symBinAddr: 0x100015328, symSize: 0x3C }
  - { offsetInCU: 0x262EB, offset: 0x583E9, size: 0x8, addend: 0x0, symName: __ZNSt3__117__compressed_pairIPNS_11__tree_nodeINS_12__value_typeINS_10shared_ptrI6ButtonEENS3_I19HorizontalSlideDoorEEEEPvEENS_22__tree_node_destructorINS_9allocatorISA_EEEEEC2B7v160006IRSB_SF_EEOT_OT0_, symObjAddr: 0xC31C, symBinAddr: 0x100015364, symSize: 0x48 }
  - { offsetInCU: 0x26343, offset: 0x58441, size: 0x8, addend: 0x0, symName: __ZNSt3__122__compressed_pair_elemIPNS_11__tree_nodeINS_12__value_typeINS_10shared_ptrI6ButtonEENS3_I19HorizontalSlideDoorEEEEPvEELi0ELb0EEC2B7v160006IRSB_vEEOT_, symObjAddr: 0xC364, symBinAddr: 0x1000153AC, symSize: 0x24 }
  - { offsetInCU: 0x26385, offset: 0x58483, size: 0x8, addend: 0x0, symName: __ZNSt3__122__compressed_pair_elemINS_22__tree_node_destructorINS_9allocatorINS_11__tree_nodeINS_12__value_typeINS_10shared_ptrI6ButtonEENS5_I19HorizontalSlideDoorEEEEPvEEEEEELi1ELb0EEC2B7v160006ISE_vEEOT_, symObjAddr: 0xC388, symBinAddr: 0x1000153D0, symSize: 0x24 }
  - { offsetInCU: 0x263C7, offset: 0x584C5, size: 0x8, addend: 0x0, symName: __ZNSt3__19allocatorINS_11__tree_nodeINS_12__value_typeINS_10shared_ptrI6ButtonEENS3_I19HorizontalSlideDoorEEEEPvEEE9constructB7v160006INS_4pairIKS5_S7_EEJRKNS_21piecewise_construct_tENS_5tupleIJRSE_EEENSJ_IJEEEEEEvPT_DpOT0_, symObjAddr: 0xC3AC, symBinAddr: 0x1000153F4, symSize: 0x44 }
  - { offsetInCU: 0x26443, offset: 0x58541, size: 0x8, addend: 0x0, symName: __ZNSt3__14pairIKNS_10shared_ptrI6ButtonEENS1_I19HorizontalSlideDoorEEEC1B7v160006IJRS4_EJEEENS_21piecewise_construct_tENS_5tupleIJDpT_EEENSB_IJDpT0_EEE, symObjAddr: 0xC3F0, symBinAddr: 0x100015438, symSize: 0x44 }
  - { offsetInCU: 0x264AA, offset: 0x585A8, size: 0x8, addend: 0x0, symName: __ZNSt3__14pairIKNS_10shared_ptrI6ButtonEENS1_I19HorizontalSlideDoorEEEC1B7v160006IJRS4_EJEJLm0EEJEEENS_21piecewise_construct_tERNS_5tupleIJDpT_EEERNSB_IJDpT0_EEENS_15__tuple_indicesIJXspT1_EEEENSK_IJXspT2_EEEE, symObjAddr: 0xC434, symBinAddr: 0x10001547C, symSize: 0x3C }
  - { offsetInCU: 0x2653A, offset: 0x58638, size: 0x8, addend: 0x0, symName: __ZNSt3__14pairIKNS_10shared_ptrI6ButtonEENS1_I19HorizontalSlideDoorEEEC2B7v160006IJRS4_EJEJLm0EEJEEENS_21piecewise_construct_tERNS_5tupleIJDpT_EEERNSB_IJDpT0_EEENS_15__tuple_indicesIJXspT1_EEEENSK_IJXspT2_EEEE, symObjAddr: 0xC470, symBinAddr: 0x1000154B8, symSize: 0x50 }
  - { offsetInCU: 0x265CA, offset: 0x586C8, size: 0x8, addend: 0x0, symName: __ZNSt3__112__tuple_leafILm0ERKNS_10shared_ptrI6ButtonEELb0EE3getB7v160006Ev, symObjAddr: 0xC4E4, symBinAddr: 0x10001552C, symSize: 0x18 }
  - { offsetInCU: 0x265F0, offset: 0x586EE, size: 0x8, addend: 0x0, symName: __ZNKSt3__117__compressed_pairIPNS_11__tree_nodeINS_12__value_typeINS_10shared_ptrI6ButtonEENS3_I19HorizontalSlideDoorEEEEPvEENS_22__tree_node_destructorINS_9allocatorISA_EEEEE5firstB7v160006Ev, symObjAddr: 0xC4FC, symBinAddr: 0x100015544, symSize: 0x24 }
  - { offsetInCU: 0x26616, offset: 0x58714, size: 0x8, addend: 0x0, symName: __ZNKSt3__122__compressed_pair_elemIPNS_11__tree_nodeINS_12__value_typeINS_10shared_ptrI6ButtonEENS3_I19HorizontalSlideDoorEEEEPvEELi0ELb0EE5__getB7v160006Ev, symObjAddr: 0xC520, symBinAddr: 0x100015568, symSize: 0x14 }
  - { offsetInCU: 0x2663C, offset: 0x5873A, size: 0x8, addend: 0x0, symName: __ZNSt3__117__compressed_pairIPNS_11__tree_nodeINS_12__value_typeINS_10shared_ptrI6ButtonEENS3_I19HorizontalSlideDoorEEEEPvEENS_22__tree_node_destructorINS_9allocatorISA_EEEEE6secondB7v160006Ev, symObjAddr: 0xC534, symBinAddr: 0x10001557C, symSize: 0x28 }
  - { offsetInCU: 0x26662, offset: 0x58760, size: 0x8, addend: 0x0, symName: __ZNSt3__122__compressed_pair_elemINS_22__tree_node_destructorINS_9allocatorINS_11__tree_nodeINS_12__value_typeINS_10shared_ptrI6ButtonEENS5_I19HorizontalSlideDoorEEEEPvEEEEEELi1ELb0EE5__getB7v160006Ev, symObjAddr: 0xC55C, symBinAddr: 0x1000155A4, symSize: 0x14 }
  - { offsetInCU: 0x26688, offset: 0x58786, size: 0x8, addend: 0x0, symName: __ZNSt3__16__treeINS_12__value_typeINS_10shared_ptrI6ButtonEENS2_I19HorizontalSlideDoorEEEENS_19__map_value_compareIS4_S7_NS_4lessIS4_EELb1EEENS_9allocatorIS7_EEE4sizeB7v160006Ev, symObjAddr: 0xC89C, symBinAddr: 0x1000155B8, symSize: 0x28 }
  - { offsetInCU: 0x266AE, offset: 0x587AC, size: 0x8, addend: 0x0, symName: __ZNSt3__117__compressed_pairImNS_19__map_value_compareINS_10shared_ptrI6ButtonEENS_12__value_typeIS4_NS2_I19HorizontalSlideDoorEEEENS_4lessIS4_EELb1EEEE5firstB7v160006Ev, symObjAddr: 0xCACC, symBinAddr: 0x1000155E0, symSize: 0x24 }
  - { offsetInCU: 0x266D4, offset: 0x587D2, size: 0x8, addend: 0x0, symName: __ZNSt3__117__compressed_pairIPNS_11__tree_nodeINS_12__value_typeINS_10shared_ptrI6ButtonEENS3_I19HorizontalSlideDoorEEEEPvEENS_22__tree_node_destructorINS_9allocatorISA_EEEEE5firstB7v160006Ev, symObjAddr: 0xCAF0, symBinAddr: 0x100015604, symSize: 0x24 }
  - { offsetInCU: 0x266FA, offset: 0x587F8, size: 0x8, addend: 0x0, symName: __ZNSt3__122__compressed_pair_elemIPNS_11__tree_nodeINS_12__value_typeINS_10shared_ptrI6ButtonEENS3_I19HorizontalSlideDoorEEEEPvEELi0ELb0EE5__getB7v160006Ev, symObjAddr: 0xCB14, symBinAddr: 0x100015628, symSize: 0x14 }
  - { offsetInCU: 0x26720, offset: 0x5881E, size: 0x8, addend: 0x0, symName: __ZNSt3__110unique_ptrINS_11__tree_nodeINS_12__value_typeINS_10shared_ptrI6ButtonEENS3_I19HorizontalSlideDoorEEEEPvEENS_22__tree_node_destructorINS_9allocatorISA_EEEEED2B7v160006Ev, symObjAddr: 0xCB28, symBinAddr: 0x10001563C, symSize: 0x30 }
  - { offsetInCU: 0x2674A, offset: 0x58848, size: 0x8, addend: 0x0, symName: __ZNSt3__110unique_ptrINS_11__tree_nodeINS_12__value_typeINS_10shared_ptrI6ButtonEENS3_I19HorizontalSlideDoorEEEEPvEENS_22__tree_node_destructorINS_9allocatorISA_EEEEE5resetB7v160006EPSA_, symObjAddr: 0xCB58, symBinAddr: 0x10001566C, symSize: 0x78 }
  - { offsetInCU: 0x2678E, offset: 0x5888C, size: 0x8, addend: 0x0, symName: __ZNSt3__122__tree_node_destructorINS_9allocatorINS_11__tree_nodeINS_12__value_typeINS_10shared_ptrI6ButtonEENS4_I19HorizontalSlideDoorEEEEPvEEEEEclB7v160006EPSB_, symObjAddr: 0xCBD0, symBinAddr: 0x1000156E4, symSize: 0x94 }
  - { offsetInCU: 0x267C3, offset: 0x588C1, size: 0x8, addend: 0x0, symName: __ZNSt3__115__tree_iteratorINS_12__value_typeINS_10shared_ptrI6ButtonEENS2_I19HorizontalSlideDoorEEEEPNS_11__tree_nodeIS7_PvEElEC2B7v160006ESB_, symObjAddr: 0xCC64, symBinAddr: 0x100015778, symSize: 0x20 }
  - { offsetInCU: 0x267FC, offset: 0x588FA, size: 0x8, addend: 0x0, symName: __ZNSt3__14pairINS_15__tree_iteratorINS_12__value_typeINS_10shared_ptrI6ButtonEENS3_I19HorizontalSlideDoorEEEEPNS_11__tree_nodeIS8_PvEElEEbEC2B7v160006ISD_RbLSA_0EEEOT_OT0_, symObjAddr: 0xCC84, symBinAddr: 0x100015798, symSize: 0x38 }
  - { offsetInCU: 0x2685A, offset: 0x58958, size: 0x8, addend: 0x0, symName: __ZNSt3__15tupleIJRKNS_10shared_ptrI6ButtonEEEEC1B7v160006INS_4_AndELi0EEES5_, symObjAddr: 0xCCBC, symBinAddr: 0x1000157D0, symSize: 0x34 }
  - { offsetInCU: 0x268A2, offset: 0x589A0, size: 0x8, addend: 0x0, symName: __ZNSt3__15tupleIJRKNS_10shared_ptrI6ButtonEEEEC2B7v160006INS_4_AndELi0EEES5_, symObjAddr: 0xCCF0, symBinAddr: 0x100015804, symSize: 0x34 }
  - { offsetInCU: 0x268EA, offset: 0x589E8, size: 0x8, addend: 0x0, symName: __ZNSt3__112__tuple_implINS_15__tuple_indicesIJLm0EEEEJRKNS_10shared_ptrI6ButtonEEEEC1B7v160006IJLm0EEJS7_EJEJEJS7_EEENS1_IJXspT_EEEENS_13__tuple_typesIJDpT0_EEENS1_IJXspT1_EEEENSB_IJDpT2_EEEDpOT3_, symObjAddr: 0xCD24, symBinAddr: 0x100015838, symSize: 0x34 }
  - { offsetInCU: 0x2697F, offset: 0x58A7D, size: 0x8, addend: 0x0, symName: __ZNSt3__112__tuple_implINS_15__tuple_indicesIJLm0EEEEJRKNS_10shared_ptrI6ButtonEEEEC2B7v160006IJLm0EEJS7_EJEJEJS7_EEENS1_IJXspT_EEEENS_13__tuple_typesIJDpT0_EEENS1_IJXspT1_EEEENSB_IJDpT2_EEEDpOT3_, symObjAddr: 0xCD58, symBinAddr: 0x10001586C, symSize: 0x34 }
  - { offsetInCU: 0x26A14, offset: 0x58B12, size: 0x8, addend: 0x0, symName: __ZNSt3__112__tuple_leafILm0ERKNS_10shared_ptrI6ButtonEELb0EEC2B7v160006IS5_vEEOT_, symObjAddr: 0xCD8C, symBinAddr: 0x1000158A0, symSize: 0x20 }
  - { offsetInCU: 0x26A57, offset: 0x58B55, size: 0x8, addend: 0x0, symName: __ZNSt3__114pointer_traitsIPNS_12__value_typeINS_10shared_ptrI6ButtonEENS2_I19HorizontalSlideDoorEEEEE10pointer_toB7v160006ERS7_, symObjAddr: 0xCDAC, symBinAddr: 0x1000158C0, symSize: 0x14 }
  - { offsetInCU: 0x26A7A, offset: 0x58B78, size: 0x8, addend: 0x0, symName: __ZNKSt3__115__tree_iteratorINS_12__value_typeINS_10shared_ptrI6ButtonEENS2_I19HorizontalSlideDoorEEEEPNS_11__tree_nodeIS7_PvEElE8__get_npB7v160006Ev, symObjAddr: 0xCDC0, symBinAddr: 0x1000158D4, symSize: 0x18 }
  - { offsetInCU: 0x26AA0, offset: 0x58B9E, size: 0x8, addend: 0x0, symName: __ZNSt3__110shared_ptrI19HorizontalSlideDoorEC1B7v160006ERKS2_, symObjAddr: 0xCDD8, symBinAddr: 0x1000158EC, symSize: 0x34 }
  - { offsetInCU: 0x26AD9, offset: 0x58BD7, size: 0x8, addend: 0x0, symName: __ZNSt3__110shared_ptrI19HorizontalSlideDoorE4swapB7v160006ERS2_, symObjAddr: 0xCE0C, symBinAddr: 0x100015920, symSize: 0x44 }
  - { offsetInCU: 0x26B0E, offset: 0x58C0C, size: 0x8, addend: 0x0, symName: __ZNSt3__110shared_ptrI19HorizontalSlideDoorEC2B7v160006ERKS2_, symObjAddr: 0xCE50, symBinAddr: 0x100015964, symSize: 0x70 }
  - { offsetInCU: 0x26B47, offset: 0x58C45, size: 0x8, addend: 0x0, symName: __ZNSt3__16vectorINS_10shared_ptrI6ButtonEENS_9allocatorIS3_EEEC2Em, symObjAddr: 0xCF38, symBinAddr: 0x100015A4C, symSize: 0xDC }
  - { offsetInCU: 0x26B98, offset: 0x58C96, size: 0x8, addend: 0x0, symName: __ZNSt3__16vectorINS_10shared_ptrI6ButtonEENS_9allocatorIS3_EEE11__vallocateB7v160006Em, symObjAddr: 0xD054, symBinAddr: 0x100015B68, symSize: 0xAC }
  - { offsetInCU: 0x26BDC, offset: 0x58CDA, size: 0x8, addend: 0x0, symName: __ZNSt3__16vectorINS_10shared_ptrI6ButtonEENS_9allocatorIS3_EEE18__construct_at_endEm, symObjAddr: 0xD100, symBinAddr: 0x100015C14, symSize: 0xC8 }
  - { offsetInCU: 0x26C4E, offset: 0x58D4C, size: 0x8, addend: 0x0, symName: __ZNSt3__128__exception_guard_exceptionsINS_6vectorINS_10shared_ptrI6ButtonEENS_9allocatorIS4_EEE16__destroy_vectorEE10__completeB7v160006Ev, symObjAddr: 0xD1C8, symBinAddr: 0x100015CDC, symSize: 0x1C }
  - { offsetInCU: 0x26C74, offset: 0x58D72, size: 0x8, addend: 0x0, symName: __ZNSt3__128__exception_guard_exceptionsINS_6vectorINS_10shared_ptrI6ButtonEENS_9allocatorIS4_EEE16__destroy_vectorEED1B7v160006Ev, symObjAddr: 0xD1E4, symBinAddr: 0x100015CF8, symSize: 0x2C }
  - { offsetInCU: 0x26C9E, offset: 0x58D9C, size: 0x8, addend: 0x0, symName: __ZNSt3__128__exception_guard_exceptionsINS_6vectorINS_10shared_ptrI6ButtonEENS_9allocatorIS4_EEE16__destroy_vectorEEC1B7v160006ES8_, symObjAddr: 0xD210, symBinAddr: 0x100015D24, symSize: 0x34 }
  - { offsetInCU: 0x26CD6, offset: 0x58DD4, size: 0x8, addend: 0x0, symName: __ZNSt3__128__exception_guard_exceptionsINS_6vectorINS_10shared_ptrI6ButtonEENS_9allocatorIS4_EEE16__destroy_vectorEEC2B7v160006ES8_, symObjAddr: 0xD244, symBinAddr: 0x100015D58, symSize: 0x24 }
  - { offsetInCU: 0x26D0E, offset: 0x58E0C, size: 0x8, addend: 0x0, symName: __ZNSt3__116allocator_traitsINS_9allocatorINS_10shared_ptrI6ButtonEEEEE9constructB7v160006IS4_JEvEEvRS5_PT_DpOT0_, symObjAddr: 0xD268, symBinAddr: 0x100015D7C, symSize: 0x2C }
  - { offsetInCU: 0x26D50, offset: 0x58E4E, size: 0x8, addend: 0x0, symName: __ZNSt3__19allocatorINS_10shared_ptrI6ButtonEEE9constructB7v160006IS3_JEEEvPT_DpOT0_, symObjAddr: 0xD294, symBinAddr: 0x100015DA8, symSize: 0x28 }
  - { offsetInCU: 0x26D92, offset: 0x58E90, size: 0x8, addend: 0x0, symName: __ZNSt3__128__exception_guard_exceptionsINS_6vectorINS_10shared_ptrI6ButtonEENS_9allocatorIS4_EEE16__destroy_vectorEED2B7v160006Ev, symObjAddr: 0xD2BC, symBinAddr: 0x100015DD0, symSize: 0x50 }
  - { offsetInCU: 0x26DBC, offset: 0x58EBA, size: 0x8, addend: 0x0, symName: __ZNSt3__16vectorINS_4pairI6mypairIiEiEENS_9allocatorIS4_EEEC2ERKS7_, symObjAddr: 0xD30C, symBinAddr: 0x100015E20, symSize: 0x110 }
  - { offsetInCU: 0x26E1C, offset: 0x58F1A, size: 0x8, addend: 0x0, symName: __ZNSt3__116allocator_traitsINS_9allocatorINS_4pairI6mypairIiEiEEEEE37select_on_container_copy_constructionB7v160006IS6_vvEES6_RKS6_, symObjAddr: 0xD41C, symBinAddr: 0x100015F30, symSize: 0x10 }
  - { offsetInCU: 0x26E50, offset: 0x58F4E, size: 0x8, addend: 0x0, symName: __ZNSt3__117__compressed_pairIPNS_4pairI6mypairIiEiEENS_9allocatorIS4_EEEC1B7v160006IDnS7_EEOT_OT0_, symObjAddr: 0xD42C, symBinAddr: 0x100015F40, symSize: 0x3C }
  - { offsetInCU: 0x26EA8, offset: 0x58FA6, size: 0x8, addend: 0x0, symName: __ZNSt3__16vectorINS_4pairI6mypairIiEiEENS_9allocatorIS4_EEE11__vallocateB7v160006Em, symObjAddr: 0xD4A8, symBinAddr: 0x100015FBC, symSize: 0xB4 }
  - { offsetInCU: 0x26EEC, offset: 0x58FEA, size: 0x8, addend: 0x0, symName: __ZNSt3__16vectorINS_4pairI6mypairIiEiEENS_9allocatorIS4_EEE18__construct_at_endIPS4_Li0EEEvT_SA_m, symObjAddr: 0xD55C, symBinAddr: 0x100016070, symSize: 0x8C }
  - { offsetInCU: 0x26F5F, offset: 0x5905D, size: 0x8, addend: 0x0, symName: __ZNSt3__128__exception_guard_exceptionsINS_6vectorINS_4pairI6mypairIiEiEENS_9allocatorIS5_EEE16__destroy_vectorEE10__completeB7v160006Ev, symObjAddr: 0xD5E8, symBinAddr: 0x1000160FC, symSize: 0x1C }
  - { offsetInCU: 0x26F85, offset: 0x59083, size: 0x8, addend: 0x0, symName: __ZNSt3__128__exception_guard_exceptionsINS_6vectorINS_4pairI6mypairIiEiEENS_9allocatorIS5_EEE16__destroy_vectorEED1B7v160006Ev, symObjAddr: 0xD604, symBinAddr: 0x100016118, symSize: 0x2C }
  - { offsetInCU: 0x26FAF, offset: 0x590AD, size: 0x8, addend: 0x0, symName: __ZNSt3__117__compressed_pairIPNS_4pairI6mypairIiEiEENS_9allocatorIS4_EEEC2B7v160006IDnS7_EEOT_OT0_, symObjAddr: 0xD630, symBinAddr: 0x100016144, symSize: 0x44 }
  - { offsetInCU: 0x27007, offset: 0x59105, size: 0x8, addend: 0x0, symName: __ZNSt3__122__compressed_pair_elemINS_9allocatorINS_4pairI6mypairIiEiEEEELi1ELb1EEC2B7v160006IS6_vEEOT_, symObjAddr: 0xD674, symBinAddr: 0x100016188, symSize: 0x18 }
  - { offsetInCU: 0x27049, offset: 0x59147, size: 0x8, addend: 0x0, symName: __ZNSt3__128__exception_guard_exceptionsINS_6vectorINS_4pairI6mypairIiEiEENS_9allocatorIS5_EEE16__destroy_vectorEEC1B7v160006ES9_, symObjAddr: 0xD68C, symBinAddr: 0x1000161A0, symSize: 0x34 }
  - { offsetInCU: 0x27081, offset: 0x5917F, size: 0x8, addend: 0x0, symName: __ZNSt3__128__exception_guard_exceptionsINS_6vectorINS_4pairI6mypairIiEiEENS_9allocatorIS5_EEE16__destroy_vectorEEC2B7v160006ES9_, symObjAddr: 0xD6C0, symBinAddr: 0x1000161D4, symSize: 0x24 }
  - { offsetInCU: 0x270B9, offset: 0x591B7, size: 0x8, addend: 0x0, symName: __ZNSt3__129_AllocatorDestroyRangeReverseINS_9allocatorINS_4pairI6mypairIiEiEEEEPS5_EC1B7v160006ERS6_RS7_SA_, symObjAddr: 0xD824, symBinAddr: 0x100016338, symSize: 0x44 }
  - { offsetInCU: 0x27110, offset: 0x5920E, size: 0x8, addend: 0x0, symName: __ZNSt3__116allocator_traitsINS_9allocatorINS_4pairI6mypairIiEiEEEEE9constructB7v160006IS5_JRS5_EvEEvRS6_PT_DpOT0_, symObjAddr: 0xD868, symBinAddr: 0x10001637C, symSize: 0x34 }
  - { offsetInCU: 0x27167, offset: 0x59265, size: 0x8, addend: 0x0, symName: __ZNSt3__128__exception_guard_exceptionsINS_29_AllocatorDestroyRangeReverseINS_9allocatorINS_4pairI6mypairIiEiEEEEPS6_EEE10__completeB7v160006Ev, symObjAddr: 0xD89C, symBinAddr: 0x1000163B0, symSize: 0x1C }
  - { offsetInCU: 0x2718D, offset: 0x5928B, size: 0x8, addend: 0x0, symName: __ZNSt3__128__exception_guard_exceptionsINS_29_AllocatorDestroyRangeReverseINS_9allocatorINS_4pairI6mypairIiEiEEEEPS6_EEED1B7v160006Ev, symObjAddr: 0xD8B8, symBinAddr: 0x1000163CC, symSize: 0x2C }
  - { offsetInCU: 0x271B7, offset: 0x592B5, size: 0x8, addend: 0x0, symName: __ZNSt3__128__exception_guard_exceptionsINS_29_AllocatorDestroyRangeReverseINS_9allocatorINS_4pairI6mypairIiEiEEEEPS6_EEEC1B7v160006ES9_, symObjAddr: 0xD8E4, symBinAddr: 0x1000163F8, symSize: 0x34 }
  - { offsetInCU: 0x271F0, offset: 0x592EE, size: 0x8, addend: 0x0, symName: __ZNSt3__128__exception_guard_exceptionsINS_29_AllocatorDestroyRangeReverseINS_9allocatorINS_4pairI6mypairIiEiEEEEPS6_EEEC2B7v160006ES9_, symObjAddr: 0xD918, symBinAddr: 0x10001642C, symSize: 0x30 }
  - { offsetInCU: 0x27229, offset: 0x59327, size: 0x8, addend: 0x0, symName: __ZNSt3__129_AllocatorDestroyRangeReverseINS_9allocatorINS_4pairI6mypairIiEiEEEEPS5_EC2B7v160006ERS6_RS7_SA_, symObjAddr: 0xD948, symBinAddr: 0x10001645C, symSize: 0x38 }
  - { offsetInCU: 0x27280, offset: 0x5937E, size: 0x8, addend: 0x0, symName: __ZNSt3__19allocatorINS_4pairI6mypairIiEiEEE9constructB7v160006IS4_JRS4_EEEvPT_DpOT0_, symObjAddr: 0xD980, symBinAddr: 0x100016494, symSize: 0x30 }
  - { offsetInCU: 0x272D6, offset: 0x593D4, size: 0x8, addend: 0x0, symName: __ZNSt3__128__exception_guard_exceptionsINS_29_AllocatorDestroyRangeReverseINS_9allocatorINS_4pairI6mypairIiEiEEEEPS6_EEED2B7v160006Ev, symObjAddr: 0xD9B0, symBinAddr: 0x1000164C4, symSize: 0x50 }
  - { offsetInCU: 0x27300, offset: 0x593FE, size: 0x8, addend: 0x0, symName: __ZNKSt3__129_AllocatorDestroyRangeReverseINS_9allocatorINS_4pairI6mypairIiEiEEEEPS5_EclB7v160006Ev, symObjAddr: 0xDA00, symBinAddr: 0x100016514, symSize: 0x68 }
  - { offsetInCU: 0x27326, offset: 0x59424, size: 0x8, addend: 0x0, symName: __ZNSt3__128__exception_guard_exceptionsINS_6vectorINS_4pairI6mypairIiEiEENS_9allocatorIS5_EEE16__destroy_vectorEED2B7v160006Ev, symObjAddr: 0xDAD8, symBinAddr: 0x1000165EC, symSize: 0x50 }
  - { offsetInCU: 0x27350, offset: 0x5944E, size: 0x8, addend: 0x0, symName: __ZNSt3__16vectorINS_10shared_ptrI5EnemyEENS_9allocatorIS3_EEEC2ERKS6_, symObjAddr: 0xDB28, symBinAddr: 0x10001663C, symSize: 0x110 }
  - { offsetInCU: 0x273B0, offset: 0x594AE, size: 0x8, addend: 0x0, symName: __ZNSt3__116allocator_traitsINS_9allocatorINS_10shared_ptrI5EnemyEEEEE37select_on_container_copy_constructionB7v160006IS5_vvEES5_RKS5_, symObjAddr: 0xDC38, symBinAddr: 0x10001674C, symSize: 0x10 }
  - { offsetInCU: 0x273E4, offset: 0x594E2, size: 0x8, addend: 0x0, symName: __ZNSt3__117__compressed_pairIPNS_10shared_ptrI5EnemyEENS_9allocatorIS3_EEEC1B7v160006IDnS6_EEOT_OT0_, symObjAddr: 0xDC48, symBinAddr: 0x10001675C, symSize: 0x3C }
  - { offsetInCU: 0x2743C, offset: 0x5953A, size: 0x8, addend: 0x0, symName: __ZNSt3__16vectorINS_10shared_ptrI5EnemyEENS_9allocatorIS3_EEE11__vallocateB7v160006Em, symObjAddr: 0xDCC4, symBinAddr: 0x1000167D8, symSize: 0xAC }
  - { offsetInCU: 0x27480, offset: 0x5957E, size: 0x8, addend: 0x0, symName: __ZNSt3__16vectorINS_10shared_ptrI5EnemyEENS_9allocatorIS3_EEE18__construct_at_endIPS3_Li0EEEvT_S9_m, symObjAddr: 0xDD70, symBinAddr: 0x100016884, symSize: 0x8C }
  - { offsetInCU: 0x274F3, offset: 0x595F1, size: 0x8, addend: 0x0, symName: __ZNSt3__128__exception_guard_exceptionsINS_6vectorINS_10shared_ptrI5EnemyEENS_9allocatorIS4_EEE16__destroy_vectorEE10__completeB7v160006Ev, symObjAddr: 0xDDFC, symBinAddr: 0x100016910, symSize: 0x1C }
  - { offsetInCU: 0x27519, offset: 0x59617, size: 0x8, addend: 0x0, symName: __ZNSt3__128__exception_guard_exceptionsINS_6vectorINS_10shared_ptrI5EnemyEENS_9allocatorIS4_EEE16__destroy_vectorEED1B7v160006Ev, symObjAddr: 0xDE18, symBinAddr: 0x10001692C, symSize: 0x2C }
  - { offsetInCU: 0x27543, offset: 0x59641, size: 0x8, addend: 0x0, symName: __ZNSt3__117__compressed_pairIPNS_10shared_ptrI5EnemyEENS_9allocatorIS3_EEEC2B7v160006IDnS6_EEOT_OT0_, symObjAddr: 0xDE44, symBinAddr: 0x100016958, symSize: 0x44 }
  - { offsetInCU: 0x2759B, offset: 0x59699, size: 0x8, addend: 0x0, symName: __ZNSt3__122__compressed_pair_elemINS_9allocatorINS_10shared_ptrI5EnemyEEEELi1ELb1EEC2B7v160006IS5_vEEOT_, symObjAddr: 0xDE88, symBinAddr: 0x10001699C, symSize: 0x18 }
  - { offsetInCU: 0x275DD, offset: 0x596DB, size: 0x8, addend: 0x0, symName: __ZNSt3__128__exception_guard_exceptionsINS_6vectorINS_10shared_ptrI5EnemyEENS_9allocatorIS4_EEE16__destroy_vectorEEC1B7v160006ES8_, symObjAddr: 0xDEA0, symBinAddr: 0x1000169B4, symSize: 0x34 }
  - { offsetInCU: 0x27615, offset: 0x59713, size: 0x8, addend: 0x0, symName: __ZNSt3__128__exception_guard_exceptionsINS_6vectorINS_10shared_ptrI5EnemyEENS_9allocatorIS4_EEE16__destroy_vectorEEC2B7v160006ES8_, symObjAddr: 0xDED4, symBinAddr: 0x1000169E8, symSize: 0x24 }
  - { offsetInCU: 0x2764D, offset: 0x5974B, size: 0x8, addend: 0x0, symName: __ZNSt3__129_AllocatorDestroyRangeReverseINS_9allocatorINS_10shared_ptrI5EnemyEEEEPS4_EC1B7v160006ERS5_RS6_S9_, symObjAddr: 0xE038, symBinAddr: 0x100016B4C, symSize: 0x44 }
  - { offsetInCU: 0x276A4, offset: 0x597A2, size: 0x8, addend: 0x0, symName: __ZNSt3__116allocator_traitsINS_9allocatorINS_10shared_ptrI5EnemyEEEEE9constructB7v160006IS4_JRS4_EvEEvRS5_PT_DpOT0_, symObjAddr: 0xE07C, symBinAddr: 0x100016B90, symSize: 0x34 }
  - { offsetInCU: 0x276FB, offset: 0x597F9, size: 0x8, addend: 0x0, symName: __ZNSt3__128__exception_guard_exceptionsINS_29_AllocatorDestroyRangeReverseINS_9allocatorINS_10shared_ptrI5EnemyEEEEPS5_EEE10__completeB7v160006Ev, symObjAddr: 0xE0B0, symBinAddr: 0x100016BC4, symSize: 0x1C }
  - { offsetInCU: 0x27721, offset: 0x5981F, size: 0x8, addend: 0x0, symName: __ZNSt3__128__exception_guard_exceptionsINS_29_AllocatorDestroyRangeReverseINS_9allocatorINS_10shared_ptrI5EnemyEEEEPS5_EEED1B7v160006Ev, symObjAddr: 0xE0CC, symBinAddr: 0x100016BE0, symSize: 0x2C }
  - { offsetInCU: 0x2774B, offset: 0x59849, size: 0x8, addend: 0x0, symName: __ZNSt3__128__exception_guard_exceptionsINS_29_AllocatorDestroyRangeReverseINS_9allocatorINS_10shared_ptrI5EnemyEEEEPS5_EEEC1B7v160006ES8_, symObjAddr: 0xE0F8, symBinAddr: 0x100016C0C, symSize: 0x34 }
  - { offsetInCU: 0x27784, offset: 0x59882, size: 0x8, addend: 0x0, symName: __ZNSt3__128__exception_guard_exceptionsINS_29_AllocatorDestroyRangeReverseINS_9allocatorINS_10shared_ptrI5EnemyEEEEPS5_EEEC2B7v160006ES8_, symObjAddr: 0xE12C, symBinAddr: 0x100016C40, symSize: 0x30 }
  - { offsetInCU: 0x277BD, offset: 0x598BB, size: 0x8, addend: 0x0, symName: __ZNSt3__129_AllocatorDestroyRangeReverseINS_9allocatorINS_10shared_ptrI5EnemyEEEEPS4_EC2B7v160006ERS5_RS6_S9_, symObjAddr: 0xE15C, symBinAddr: 0x100016C70, symSize: 0x38 }
  - { offsetInCU: 0x27814, offset: 0x59912, size: 0x8, addend: 0x0, symName: __ZNSt3__19allocatorINS_10shared_ptrI5EnemyEEE9constructB7v160006IS3_JRS3_EEEvPT_DpOT0_, symObjAddr: 0xE194, symBinAddr: 0x100016CA8, symSize: 0x30 }
  - { offsetInCU: 0x2786A, offset: 0x59968, size: 0x8, addend: 0x0, symName: __ZNSt3__110shared_ptrI5EnemyEC1B7v160006ERKS2_, symObjAddr: 0xE1C4, symBinAddr: 0x100016CD8, symSize: 0x34 }
  - { offsetInCU: 0x278A3, offset: 0x599A1, size: 0x8, addend: 0x0, symName: __ZNSt3__110shared_ptrI5EnemyEC2B7v160006ERKS2_, symObjAddr: 0xE1F8, symBinAddr: 0x100016D0C, symSize: 0x70 }
  - { offsetInCU: 0x278DC, offset: 0x599DA, size: 0x8, addend: 0x0, symName: __ZNSt3__128__exception_guard_exceptionsINS_29_AllocatorDestroyRangeReverseINS_9allocatorINS_10shared_ptrI5EnemyEEEEPS5_EEED2B7v160006Ev, symObjAddr: 0xE268, symBinAddr: 0x100016D7C, symSize: 0x50 }
  - { offsetInCU: 0x27906, offset: 0x59A04, size: 0x8, addend: 0x0, symName: __ZNKSt3__129_AllocatorDestroyRangeReverseINS_9allocatorINS_10shared_ptrI5EnemyEEEEPS4_EclB7v160006Ev, symObjAddr: 0xE2B8, symBinAddr: 0x100016DCC, symSize: 0x68 }
  - { offsetInCU: 0x2792C, offset: 0x59A2A, size: 0x8, addend: 0x0, symName: __ZNSt3__128__exception_guard_exceptionsINS_6vectorINS_10shared_ptrI5EnemyEENS_9allocatorIS4_EEE16__destroy_vectorEED2B7v160006Ev, symObjAddr: 0xE390, symBinAddr: 0x100016EA4, symSize: 0x50 }
  - { offsetInCU: 0x27956, offset: 0x59A54, size: 0x8, addend: 0x0, symName: __ZNSt3__19allocatorI9LevelGridEC1B7v160006Ev, symObjAddr: 0xE478, symBinAddr: 0x100016F8C, symSize: 0x2C }
  - { offsetInCU: 0x279BC, offset: 0x59ABA, size: 0x8, addend: 0x0, symName: __ZNSt3__118__allocation_guardINS_9allocatorINS_20__shared_ptr_emplaceI9LevelGridNS1_IS3_EEEEEEEC1B7v160006IS4_EET_m, symObjAddr: 0xE4A4, symBinAddr: 0x100016FB8, symSize: 0x34 }
  - { offsetInCU: 0x27A0B, offset: 0x59B09, size: 0x8, addend: 0x0, symName: __ZNKSt3__118__allocation_guardINS_9allocatorINS_20__shared_ptr_emplaceI9LevelGridNS1_IS3_EEEEEEE5__getB7v160006Ev, symObjAddr: 0xE4D8, symBinAddr: 0x100016FEC, symSize: 0x18 }
  - { offsetInCU: 0x27A36, offset: 0x59B34, size: 0x8, addend: 0x0, symName: __ZNSt3__120__shared_ptr_emplaceI9LevelGridNS_9allocatorIS1_EEEC1B7v160006IJS1_EEES3_DpOT_, symObjAddr: 0xE4F0, symBinAddr: 0x100017004, symSize: 0x34 }
  - { offsetInCU: 0x27A89, offset: 0x59B87, size: 0x8, addend: 0x0, symName: __ZNSt3__118__allocation_guardINS_9allocatorINS_20__shared_ptr_emplaceI9LevelGridNS1_IS3_EEEEEEE13__release_ptrB7v160006Ev, symObjAddr: 0xE524, symBinAddr: 0x100017038, symSize: 0x24 }
  - { offsetInCU: 0x27ABD, offset: 0x59BBB, size: 0x8, addend: 0x0, symName: __ZNSt3__110shared_ptrI9LevelGridE27__create_with_control_blockB7v160006IS1_NS_20__shared_ptr_emplaceIS1_NS_9allocatorIS1_EEEEEES2_PT_PT0_, symObjAddr: 0xE548, symBinAddr: 0x10001705C, symSize: 0xA4 }
  - { offsetInCU: 0x27B12, offset: 0x59C10, size: 0x8, addend: 0x0, symName: __ZNSt3__120__shared_ptr_emplaceI9LevelGridNS_9allocatorIS1_EEE10__get_elemB7v160006Ev, symObjAddr: 0xE5EC, symBinAddr: 0x100017100, symSize: 0x28 }
  - { offsetInCU: 0x27B38, offset: 0x59C36, size: 0x8, addend: 0x0, symName: __ZNSt3__118__allocation_guardINS_9allocatorINS_20__shared_ptr_emplaceI9LevelGridNS1_IS3_EEEEEEED1B7v160006Ev, symObjAddr: 0xE614, symBinAddr: 0x100017128, symSize: 0x2C }
  - { offsetInCU: 0x27B62, offset: 0x59C60, size: 0x8, addend: 0x0, symName: __ZNSt3__118__allocation_guardINS_9allocatorINS_20__shared_ptr_emplaceI9LevelGridNS1_IS3_EEEEEEEC2B7v160006IS4_EET_m, symObjAddr: 0xE640, symBinAddr: 0x100017154, symSize: 0x50 }
  - { offsetInCU: 0x27BB1, offset: 0x59CAF, size: 0x8, addend: 0x0, symName: __ZNSt3__19allocatorINS_20__shared_ptr_emplaceI9LevelGridNS0_IS2_EEEEEC1B7v160006IS2_EERKNS0_IT_EE, symObjAddr: 0xE690, symBinAddr: 0x1000171A4, symSize: 0x34 }
  - { offsetInCU: 0x27BEE, offset: 0x59CEC, size: 0x8, addend: 0x0, symName: __ZNSt3__116allocator_traitsINS_9allocatorINS_20__shared_ptr_emplaceI9LevelGridNS1_IS3_EEEEEEE8allocateB7v160006ERS6_m, symObjAddr: 0xE6C4, symBinAddr: 0x1000171D8, symSize: 0x2C }
  - { offsetInCU: 0x27C21, offset: 0x59D1F, size: 0x8, addend: 0x0, symName: __ZNSt3__19allocatorINS_20__shared_ptr_emplaceI9LevelGridNS0_IS2_EEEEEC2B7v160006IS2_EERKNS0_IT_EE, symObjAddr: 0xE6F0, symBinAddr: 0x100017204, symSize: 0x30 }
  - { offsetInCU: 0x27C5E, offset: 0x59D5C, size: 0x8, addend: 0x0, symName: __ZNSt3__116__non_trivial_ifILb1ENS_9allocatorINS_20__shared_ptr_emplaceI9LevelGridNS1_IS3_EEEEEEEC2B7v160006Ev, symObjAddr: 0xE720, symBinAddr: 0x100017234, symSize: 0x14 }
  - { offsetInCU: 0x27C88, offset: 0x59D86, size: 0x8, addend: 0x0, symName: __ZNSt3__19allocatorINS_20__shared_ptr_emplaceI9LevelGridNS0_IS2_EEEEE8allocateB7v160006Em, symObjAddr: 0xE734, symBinAddr: 0x100017248, symSize: 0x5C }
  - { offsetInCU: 0x27CC6, offset: 0x59DC4, size: 0x8, addend: 0x0, symName: __ZNSt3__116allocator_traitsINS_9allocatorINS_20__shared_ptr_emplaceI9LevelGridNS1_IS3_EEEEEEE8max_sizeB7v160006IS6_vEEmRKS6_, symObjAddr: 0xE790, symBinAddr: 0x1000172A4, symSize: 0x24 }
  - { offsetInCU: 0x27CF4, offset: 0x59DF2, size: 0x8, addend: 0x0, symName: __ZNKSt3__19allocatorINS_20__shared_ptr_emplaceI9LevelGridNS0_IS2_EEEEE8max_sizeB7v160006Ev, symObjAddr: 0xE7B4, symBinAddr: 0x1000172C8, symSize: 0x20 }
  - { offsetInCU: 0x27D1A, offset: 0x59E18, size: 0x8, addend: 0x0, symName: __ZNSt3__120__shared_ptr_emplaceI9LevelGridNS_9allocatorIS1_EEEC2B7v160006IJS1_EEES3_DpOT_, symObjAddr: 0xE7D4, symBinAddr: 0x1000172E8, symSize: 0xB8 }
  - { offsetInCU: 0x27D6D, offset: 0x59E6B, size: 0x8, addend: 0x0, symName: __ZNSt3__120__shared_ptr_emplaceI9LevelGridNS_9allocatorIS1_EEE8_StorageC1B7v160006EOS3_, symObjAddr: 0xE88C, symBinAddr: 0x1000173A0, symSize: 0x34 }
  - { offsetInCU: 0x27DA6, offset: 0x59EA4, size: 0x8, addend: 0x0, symName: __ZN9LevelGridC1EOS_, symObjAddr: 0xE8C0, symBinAddr: 0x1000173D4, symSize: 0x34 }
  - { offsetInCU: 0x27DDB, offset: 0x59ED9, size: 0x8, addend: 0x0, symName: __ZNSt3__120__shared_ptr_emplaceI9LevelGridNS_9allocatorIS1_EEE8_StorageD1B7v160006Ev, symObjAddr: 0xE8F4, symBinAddr: 0x100017408, symSize: 0x2C }
  - { offsetInCU: 0x27E05, offset: 0x59F03, size: 0x8, addend: 0x0, symName: __ZNSt3__120__shared_ptr_emplaceI9LevelGridNS_9allocatorIS1_EEED1Ev, symObjAddr: 0xE920, symBinAddr: 0x100017434, symSize: 0x2C }
  - { offsetInCU: 0x27E32, offset: 0x59F30, size: 0x8, addend: 0x0, symName: __ZNSt3__120__shared_ptr_emplaceI9LevelGridNS_9allocatorIS1_EEED0Ev, symObjAddr: 0xE94C, symBinAddr: 0x100017460, symSize: 0x30 }
  - { offsetInCU: 0x27E5F, offset: 0x59F5D, size: 0x8, addend: 0x0, symName: __ZNSt3__120__shared_ptr_emplaceI9LevelGridNS_9allocatorIS1_EEE16__on_zero_sharedEv, symObjAddr: 0xE97C, symBinAddr: 0x100017490, symSize: 0x28 }
  - { offsetInCU: 0x27E85, offset: 0x59F83, size: 0x8, addend: 0x0, symName: __ZNSt3__120__shared_ptr_emplaceI9LevelGridNS_9allocatorIS1_EEE21__on_zero_shared_weakEv, symObjAddr: 0xE9A4, symBinAddr: 0x1000174B8, symSize: 0x5C }
  - { offsetInCU: 0x27EC6, offset: 0x59FC4, size: 0x8, addend: 0x0, symName: __ZNSt3__120__shared_ptr_emplaceI9LevelGridNS_9allocatorIS1_EEE8_StorageC2B7v160006EOS3_, symObjAddr: 0xEA00, symBinAddr: 0x100017514, symSize: 0x30 }
  - { offsetInCU: 0x27EFF, offset: 0x59FFD, size: 0x8, addend: 0x0, symName: __ZNSt3__120__shared_ptr_emplaceI9LevelGridNS_9allocatorIS1_EEE8_Storage11__get_allocEv, symObjAddr: 0xEA30, symBinAddr: 0x100017544, symSize: 0x3C }
  - { offsetInCU: 0x27F52, offset: 0x5A050, size: 0x8, addend: 0x0, symName: __ZNSt3__117__compressed_pairINS_9allocatorI9LevelGridEES2_E16__get_first_baseB7v160006EPS4_, symObjAddr: 0xEA6C, symBinAddr: 0x100017580, symSize: 0x14 }
  - { offsetInCU: 0x27F75, offset: 0x5A073, size: 0x8, addend: 0x0, symName: __ZN9LevelGridC2EOS_, symObjAddr: 0xEA80, symBinAddr: 0x100017594, symSize: 0xB4 }
  - { offsetInCU: 0x27FAA, offset: 0x5A0A8, size: 0x8, addend: 0x0, symName: __ZNSt3__16vectorINS_10shared_ptrI5EnemyEENS_9allocatorIS3_EEEC1B7v160006EOS6_, symObjAddr: 0xEB34, symBinAddr: 0x100017648, symSize: 0x34 }
  - { offsetInCU: 0x27FE5, offset: 0x5A0E3, size: 0x8, addend: 0x0, symName: __ZNSt3__16vectorINS_10shared_ptrI6ButtonEENS_9allocatorIS3_EEEC1B7v160006EOS6_, symObjAddr: 0xEB68, symBinAddr: 0x10001767C, symSize: 0x34 }
  - { offsetInCU: 0x28020, offset: 0x5A11E, size: 0x8, addend: 0x0, symName: __ZNSt3__13mapINS_10shared_ptrI6ButtonEENS1_I19HorizontalSlideDoorEENS_4lessIS3_EENS_9allocatorINS_4pairIKS3_S5_EEEEEC1B7v160006EOSD_, symObjAddr: 0xEB9C, symBinAddr: 0x1000176B0, symSize: 0x34 }
  - { offsetInCU: 0x28059, offset: 0x5A157, size: 0x8, addend: 0x0, symName: __ZNSt3__16vectorINS_10shared_ptrI5EnemyEENS_9allocatorIS3_EEEC2B7v160006EOS6_, symObjAddr: 0xEBD0, symBinAddr: 0x1000176E4, symSize: 0xDC }
  - { offsetInCU: 0x28094, offset: 0x5A192, size: 0x8, addend: 0x0, symName: __ZNSt3__16vectorINS_10shared_ptrI6ButtonEENS_9allocatorIS3_EEEC2B7v160006EOS6_, symObjAddr: 0xECC0, symBinAddr: 0x1000177D4, symSize: 0xDC }
  - { offsetInCU: 0x280D4, offset: 0x5A1D2, size: 0x8, addend: 0x0, symName: __ZNSt3__117__compressed_pairIPNS_10shared_ptrI6ButtonEENS_9allocatorIS3_EEEC1B7v160006IDnS6_EEOT_OT0_, symObjAddr: 0xED9C, symBinAddr: 0x1000178B0, symSize: 0x3C }
  - { offsetInCU: 0x2812C, offset: 0x5A22A, size: 0x8, addend: 0x0, symName: __ZNSt3__117__compressed_pairIPNS_10shared_ptrI6ButtonEENS_9allocatorIS3_EEEC2B7v160006IDnS6_EEOT_OT0_, symObjAddr: 0xEDEC, symBinAddr: 0x100017900, symSize: 0x44 }
  - { offsetInCU: 0x28184, offset: 0x5A282, size: 0x8, addend: 0x0, symName: __ZNSt3__122__compressed_pair_elemINS_9allocatorINS_10shared_ptrI6ButtonEEEELi1ELb1EEC2B7v160006IS5_vEEOT_, symObjAddr: 0xEE30, symBinAddr: 0x100017944, symSize: 0x18 }
  - { offsetInCU: 0x281C6, offset: 0x5A2C4, size: 0x8, addend: 0x0, symName: __ZNSt3__13mapINS_10shared_ptrI6ButtonEENS1_I19HorizontalSlideDoorEENS_4lessIS3_EENS_9allocatorINS_4pairIKS3_S5_EEEEEC2B7v160006EOSD_, symObjAddr: 0xEE48, symBinAddr: 0x10001795C, symSize: 0x34 }
  - { offsetInCU: 0x281FF, offset: 0x5A2FD, size: 0x8, addend: 0x0, symName: __ZNSt3__16__treeINS_12__value_typeINS_10shared_ptrI6ButtonEENS2_I19HorizontalSlideDoorEEEENS_19__map_value_compareIS4_S7_NS_4lessIS4_EELb1EEENS_9allocatorIS7_EEEC1EOSE_, symObjAddr: 0xEE7C, symBinAddr: 0x100017990, symSize: 0x34 }
  - { offsetInCU: 0x2823A, offset: 0x5A338, size: 0x8, addend: 0x0, symName: __ZNSt3__16__treeINS_12__value_typeINS_10shared_ptrI6ButtonEENS2_I19HorizontalSlideDoorEEEENS_19__map_value_compareIS4_S7_NS_4lessIS4_EELb1EEENS_9allocatorIS7_EEEC2EOSE_, symObjAddr: 0xEEB0, symBinAddr: 0x1000179C4, symSize: 0xFC }
  - { offsetInCU: 0x28275, offset: 0x5A373, size: 0x8, addend: 0x0, symName: __ZNSt3__120__shared_ptr_emplaceI9LevelGridNS_9allocatorIS1_EEE8_StorageD2B7v160006Ev, symObjAddr: 0xEFAC, symBinAddr: 0x100017AC0, symSize: 0x2C }
  - { offsetInCU: 0x2829F, offset: 0x5A39D, size: 0x8, addend: 0x0, symName: __ZNSt3__120__shared_ptr_emplaceI9LevelGridNS_9allocatorIS1_EEED2Ev, symObjAddr: 0xEFD8, symBinAddr: 0x100017AEC, symSize: 0x48 }
  - { offsetInCU: 0x282CC, offset: 0x5A3CA, size: 0x8, addend: 0x0, symName: __ZNSt3__120__shared_ptr_emplaceI9LevelGridNS_9allocatorIS1_EEE11__get_allocB7v160006Ev, symObjAddr: 0xF020, symBinAddr: 0x100017B34, symSize: 0x28 }
  - { offsetInCU: 0x282F2, offset: 0x5A3F0, size: 0x8, addend: 0x0, symName: __ZNSt3__116allocator_traitsINS_9allocatorINS_20__shared_ptr_emplaceI9LevelGridNS1_IS3_EEEEEEE10deallocateB7v160006ERS6_PS5_m, symObjAddr: 0xF048, symBinAddr: 0x100017B5C, symSize: 0x34 }
  - { offsetInCU: 0x28334, offset: 0x5A432, size: 0x8, addend: 0x0, symName: __ZNSt3__114pointer_traitsIPNS_20__shared_ptr_emplaceI9LevelGridNS_9allocatorIS2_EEEEE10pointer_toB7v160006ERS5_, symObjAddr: 0xF07C, symBinAddr: 0x100017B90, symSize: 0x14 }
  - { offsetInCU: 0x28357, offset: 0x5A455, size: 0x8, addend: 0x0, symName: __ZNSt3__19allocatorINS_20__shared_ptr_emplaceI9LevelGridNS0_IS2_EEEEE10deallocateB7v160006EPS4_m, symObjAddr: 0xF090, symBinAddr: 0x100017BA4, symSize: 0x44 }
  - { offsetInCU: 0x28399, offset: 0x5A497, size: 0x8, addend: 0x0, symName: __ZNSt3__110shared_ptrI9LevelGridEC1B7v160006Ev, symObjAddr: 0xF0D4, symBinAddr: 0x100017BE8, symSize: 0x2C }
  - { offsetInCU: 0x283C3, offset: 0x5A4C1, size: 0x8, addend: 0x0, symName: __ZNSt3__110shared_ptrI9LevelGridE18__enable_weak_thisB7v160006Ez, symObjAddr: 0xF100, symBinAddr: 0x100017C14, symSize: 0x10 }
  - { offsetInCU: 0x283EA, offset: 0x5A4E8, size: 0x8, addend: 0x0, symName: __ZNSt3__110shared_ptrI9LevelGridEC2B7v160006Ev, symObjAddr: 0xF110, symBinAddr: 0x100017C24, symSize: 0x1C }
  - { offsetInCU: 0x28414, offset: 0x5A512, size: 0x8, addend: 0x0, symName: __ZNSt3__120__shared_ptr_emplaceI9LevelGridNS_9allocatorIS1_EEE8_Storage10__get_elemEv, symObjAddr: 0xF12C, symBinAddr: 0x100017C40, symSize: 0x3C }
  - { offsetInCU: 0x28467, offset: 0x5A565, size: 0x8, addend: 0x0, symName: __ZNSt3__117__compressed_pairINS_9allocatorI9LevelGridEES2_E17__get_second_baseB7v160006EPS4_, symObjAddr: 0xF168, symBinAddr: 0x100017C7C, symSize: 0x14 }
  - { offsetInCU: 0x2848A, offset: 0x5A588, size: 0x8, addend: 0x0, symName: __ZNSt3__118__allocation_guardINS_9allocatorINS_20__shared_ptr_emplaceI9LevelGridNS1_IS3_EEEEEEED2B7v160006Ev, symObjAddr: 0xF17C, symBinAddr: 0x100017C90, symSize: 0x58 }
  - { offsetInCU: 0x284B4, offset: 0x5A5B2, size: 0x8, addend: 0x0, symName: __ZNSt3__19allocatorI9LevelGridEC2B7v160006Ev, symObjAddr: 0xF1D4, symBinAddr: 0x100017CE8, symSize: 0x2C }
  - { offsetInCU: 0x284DE, offset: 0x5A5DC, size: 0x8, addend: 0x0, symName: __ZNSt3__116__non_trivial_ifILb1ENS_9allocatorI9LevelGridEEEC2B7v160006Ev, symObjAddr: 0xF200, symBinAddr: 0x100017D14, symSize: 0x14 }
  - { offsetInCU: 0x28508, offset: 0x5A606, size: 0x8, addend: 0x0, symName: __ZNSt3__16vectorINS_10shared_ptrI6ButtonEENS_9allocatorIS3_EEEC2ERKS6_, symObjAddr: 0xF268, symBinAddr: 0x100017D28, symSize: 0x110 }
  - { offsetInCU: 0x28568, offset: 0x5A666, size: 0x8, addend: 0x0, symName: __ZNSt3__116allocator_traitsINS_9allocatorINS_10shared_ptrI6ButtonEEEEE37select_on_container_copy_constructionB7v160006IS5_vvEES5_RKS5_, symObjAddr: 0xF378, symBinAddr: 0x100017E38, symSize: 0x10 }
  - { offsetInCU: 0x28597, offset: 0x5A695, size: 0x8, addend: 0x0, symName: __ZNSt3__16vectorINS_10shared_ptrI6ButtonEENS_9allocatorIS3_EEE18__construct_at_endIPS3_Li0EEEvT_S9_m, symObjAddr: 0xF388, symBinAddr: 0x100017E48, symSize: 0x8C }
  - { offsetInCU: 0x2860A, offset: 0x5A708, size: 0x8, addend: 0x0, symName: __ZNSt3__129_AllocatorDestroyRangeReverseINS_9allocatorINS_10shared_ptrI6ButtonEEEEPS4_EC1B7v160006ERS5_RS6_S9_, symObjAddr: 0xF554, symBinAddr: 0x100018014, symSize: 0x44 }
  - { offsetInCU: 0x28661, offset: 0x5A75F, size: 0x8, addend: 0x0, symName: __ZNSt3__116allocator_traitsINS_9allocatorINS_10shared_ptrI6ButtonEEEEE9constructB7v160006IS4_JRS4_EvEEvRS5_PT_DpOT0_, symObjAddr: 0xF598, symBinAddr: 0x100018058, symSize: 0x34 }
  - { offsetInCU: 0x286B8, offset: 0x5A7B6, size: 0x8, addend: 0x0, symName: __ZNSt3__128__exception_guard_exceptionsINS_29_AllocatorDestroyRangeReverseINS_9allocatorINS_10shared_ptrI6ButtonEEEEPS5_EEE10__completeB7v160006Ev, symObjAddr: 0xF5CC, symBinAddr: 0x10001808C, symSize: 0x1C }
  - { offsetInCU: 0x286DE, offset: 0x5A7DC, size: 0x8, addend: 0x0, symName: __ZNSt3__128__exception_guard_exceptionsINS_29_AllocatorDestroyRangeReverseINS_9allocatorINS_10shared_ptrI6ButtonEEEEPS5_EEED1B7v160006Ev, symObjAddr: 0xF5E8, symBinAddr: 0x1000180A8, symSize: 0x2C }
  - { offsetInCU: 0x28708, offset: 0x5A806, size: 0x8, addend: 0x0, symName: __ZNSt3__128__exception_guard_exceptionsINS_29_AllocatorDestroyRangeReverseINS_9allocatorINS_10shared_ptrI6ButtonEEEEPS5_EEEC1B7v160006ES8_, symObjAddr: 0xF614, symBinAddr: 0x1000180D4, symSize: 0x34 }
  - { offsetInCU: 0x28741, offset: 0x5A83F, size: 0x8, addend: 0x0, symName: __ZNSt3__128__exception_guard_exceptionsINS_29_AllocatorDestroyRangeReverseINS_9allocatorINS_10shared_ptrI6ButtonEEEEPS5_EEEC2B7v160006ES8_, symObjAddr: 0xF648, symBinAddr: 0x100018108, symSize: 0x30 }
  - { offsetInCU: 0x2877A, offset: 0x5A878, size: 0x8, addend: 0x0, symName: __ZNSt3__129_AllocatorDestroyRangeReverseINS_9allocatorINS_10shared_ptrI6ButtonEEEEPS4_EC2B7v160006ERS5_RS6_S9_, symObjAddr: 0xF678, symBinAddr: 0x100018138, symSize: 0x38 }
  - { offsetInCU: 0x287D1, offset: 0x5A8CF, size: 0x8, addend: 0x0, symName: __ZNSt3__19allocatorINS_10shared_ptrI6ButtonEEE9constructB7v160006IS3_JRS3_EEEvPT_DpOT0_, symObjAddr: 0xF6B0, symBinAddr: 0x100018170, symSize: 0x30 }
  - { offsetInCU: 0x28827, offset: 0x5A925, size: 0x8, addend: 0x0, symName: __ZNSt3__128__exception_guard_exceptionsINS_29_AllocatorDestroyRangeReverseINS_9allocatorINS_10shared_ptrI6ButtonEEEEPS5_EEED2B7v160006Ev, symObjAddr: 0xF6E0, symBinAddr: 0x1000181A0, symSize: 0x50 }
  - { offsetInCU: 0x28851, offset: 0x5A94F, size: 0x8, addend: 0x0, symName: __ZNKSt3__129_AllocatorDestroyRangeReverseINS_9allocatorINS_10shared_ptrI6ButtonEEEEPS4_EclB7v160006Ev, symObjAddr: 0xF730, symBinAddr: 0x1000181F0, symSize: 0x68 }
  - { offsetInCU: 0x28877, offset: 0x5A975, size: 0x8, addend: 0x0, symName: __ZNSt3__13mapINS_10shared_ptrI6ButtonEENS1_I19HorizontalSlideDoorEENS_4lessIS3_EENS_9allocatorINS_4pairIKS3_S5_EEEEEC2B7v160006ERKSD_, symObjAddr: 0xF808, symBinAddr: 0x1000182C8, symSize: 0x88 }
  - { offsetInCU: 0x288B0, offset: 0x5A9AE, size: 0x8, addend: 0x0, symName: __ZNSt3__16__treeINS_12__value_typeINS_10shared_ptrI6ButtonEENS2_I19HorizontalSlideDoorEEEENS_19__map_value_compareIS4_S7_NS_4lessIS4_EELb1EEENS_9allocatorIS7_EEEC1ERKSE_, symObjAddr: 0xF890, symBinAddr: 0x100018350, symSize: 0x34 }
  - { offsetInCU: 0x288EB, offset: 0x5A9E9, size: 0x8, addend: 0x0, symName: __ZNSt3__13mapINS_10shared_ptrI6ButtonEENS1_I19HorizontalSlideDoorEENS_4lessIS3_EENS_9allocatorINS_4pairIKS3_S5_EEEEE6insertB7v160006INS_20__map_const_iteratorINS_21__tree_const_iteratorINS_12__value_typeIS3_S5_EEPNS_11__tree_nodeISI_PvEElEEEEEEvT_SP_, symObjAddr: 0xF8C4, symBinAddr: 0x100018384, symSize: 0x8C }
  - { offsetInCU: 0x28955, offset: 0x5AA53, size: 0x8, addend: 0x0, symName: __ZNKSt3__13mapINS_10shared_ptrI6ButtonEENS1_I19HorizontalSlideDoorEENS_4lessIS3_EENS_9allocatorINS_4pairIKS3_S5_EEEEE5beginB7v160006Ev, symObjAddr: 0xF950, symBinAddr: 0x100018410, symSize: 0x38 }
  - { offsetInCU: 0x2897B, offset: 0x5AA79, size: 0x8, addend: 0x0, symName: __ZNKSt3__13mapINS_10shared_ptrI6ButtonEENS1_I19HorizontalSlideDoorEENS_4lessIS3_EENS_9allocatorINS_4pairIKS3_S5_EEEEE3endB7v160006Ev, symObjAddr: 0xF988, symBinAddr: 0x100018448, symSize: 0x38 }
  - { offsetInCU: 0x289A1, offset: 0x5AA9F, size: 0x8, addend: 0x0, symName: __ZNSt3__16__treeINS_12__value_typeINS_10shared_ptrI6ButtonEENS2_I19HorizontalSlideDoorEEEENS_19__map_value_compareIS4_S7_NS_4lessIS4_EELb1EEENS_9allocatorIS7_EEEC2ERKSE_, symObjAddr: 0xF9C0, symBinAddr: 0x100018480, symSize: 0x9C }
  - { offsetInCU: 0x289DC, offset: 0x5AADA, size: 0x8, addend: 0x0, symName: __ZNSt3__116allocator_traitsINS_9allocatorINS_11__tree_nodeINS_12__value_typeINS_10shared_ptrI6ButtonEENS4_I19HorizontalSlideDoorEEEEPvEEEEE37select_on_container_copy_constructionB7v160006ISC_vvEESC_RKSC_, symObjAddr: 0xFA5C, symBinAddr: 0x10001851C, symSize: 0x10 }
  - { offsetInCU: 0x28A0B, offset: 0x5AB09, size: 0x8, addend: 0x0, symName: __ZNKSt3__16__treeINS_12__value_typeINS_10shared_ptrI6ButtonEENS2_I19HorizontalSlideDoorEEEENS_19__map_value_compareIS4_S7_NS_4lessIS4_EELb1EEENS_9allocatorIS7_EEE12__node_allocB7v160006Ev, symObjAddr: 0xFA6C, symBinAddr: 0x10001852C, symSize: 0x28 }
  - { offsetInCU: 0x28A36, offset: 0x5AB34, size: 0x8, addend: 0x0, symName: __ZNSt3__117__compressed_pairINS_15__tree_end_nodeIPNS_16__tree_node_baseIPvEEEENS_9allocatorINS_11__tree_nodeINS_12__value_typeINS_10shared_ptrI6ButtonEENSA_I19HorizontalSlideDoorEEEES3_EEEEEC1B7v160006INS_18__default_init_tagESH_EEOT_OT0_, symObjAddr: 0xFA94, symBinAddr: 0x100018554, symSize: 0x3C }
  - { offsetInCU: 0x28A8E, offset: 0x5AB8C, size: 0x8, addend: 0x0, symName: __ZNKSt3__16__treeINS_12__value_typeINS_10shared_ptrI6ButtonEENS2_I19HorizontalSlideDoorEEEENS_19__map_value_compareIS4_S7_NS_4lessIS4_EELb1EEENS_9allocatorIS7_EEE10value_compB7v160006Ev, symObjAddr: 0xFAD0, symBinAddr: 0x100018590, symSize: 0x28 }
  - { offsetInCU: 0x28AB4, offset: 0x5ABB2, size: 0x8, addend: 0x0, symName: __ZNKSt3__117__compressed_pairINS_15__tree_end_nodeIPNS_16__tree_node_baseIPvEEEENS_9allocatorINS_11__tree_nodeINS_12__value_typeINS_10shared_ptrI6ButtonEENSA_I19HorizontalSlideDoorEEEES3_EEEEE6secondB7v160006Ev, symObjAddr: 0xFAF8, symBinAddr: 0x1000185B8, symSize: 0x24 }
  - { offsetInCU: 0x28ADA, offset: 0x5ABD8, size: 0x8, addend: 0x0, symName: __ZNKSt3__122__compressed_pair_elemINS_9allocatorINS_11__tree_nodeINS_12__value_typeINS_10shared_ptrI6ButtonEENS4_I19HorizontalSlideDoorEEEEPvEEEELi1ELb1EE5__getB7v160006Ev, symObjAddr: 0xFB1C, symBinAddr: 0x1000185DC, symSize: 0x14 }
  - { offsetInCU: 0x28B00, offset: 0x5ABFE, size: 0x8, addend: 0x0, symName: __ZNSt3__117__compressed_pairINS_15__tree_end_nodeIPNS_16__tree_node_baseIPvEEEENS_9allocatorINS_11__tree_nodeINS_12__value_typeINS_10shared_ptrI6ButtonEENSA_I19HorizontalSlideDoorEEEES3_EEEEEC2B7v160006INS_18__default_init_tagESH_EEOT_OT0_, symObjAddr: 0xFB30, symBinAddr: 0x1000185F0, symSize: 0x40 }
  - { offsetInCU: 0x28B58, offset: 0x5AC56, size: 0x8, addend: 0x0, symName: __ZNSt3__122__compressed_pair_elemINS_9allocatorINS_11__tree_nodeINS_12__value_typeINS_10shared_ptrI6ButtonEENS4_I19HorizontalSlideDoorEEEEPvEEEELi1ELb1EEC2B7v160006ISC_vEEOT_, symObjAddr: 0xFB9C, symBinAddr: 0x100018630, symSize: 0x18 }
  - { offsetInCU: 0x28B9A, offset: 0x5AC98, size: 0x8, addend: 0x0, symName: __ZNKSt3__117__compressed_pairImNS_19__map_value_compareINS_10shared_ptrI6ButtonEENS_12__value_typeIS4_NS2_I19HorizontalSlideDoorEEEENS_4lessIS4_EELb1EEEE6secondB7v160006Ev, symObjAddr: 0xFBB4, symBinAddr: 0x100018648, symSize: 0x24 }
  - { offsetInCU: 0x28BC0, offset: 0x5ACBE, size: 0x8, addend: 0x0, symName: __ZNKSt3__122__compressed_pair_elemINS_19__map_value_compareINS_10shared_ptrI6ButtonEENS_12__value_typeIS4_NS2_I19HorizontalSlideDoorEEEENS_4lessIS4_EELb1EEELi1ELb1EE5__getB7v160006Ev, symObjAddr: 0xFBD8, symBinAddr: 0x10001866C, symSize: 0x14 }
  - { offsetInCU: 0x28BE6, offset: 0x5ACE4, size: 0x8, addend: 0x0, symName: __ZNKSt3__13mapINS_10shared_ptrI6ButtonEENS1_I19HorizontalSlideDoorEENS_4lessIS3_EENS_9allocatorINS_4pairIKS3_S5_EEEEE4cendB7v160006Ev, symObjAddr: 0xFBEC, symBinAddr: 0x100018680, symSize: 0x2C }
  - { offsetInCU: 0x28C0C, offset: 0x5AD0A, size: 0x8, addend: 0x0, symName: __ZNSt3__13mapINS_10shared_ptrI6ButtonEENS1_I19HorizontalSlideDoorEENS_4lessIS3_EENS_9allocatorINS_4pairIKS3_S5_EEEEE6insertB7v160006ENS_20__map_const_iteratorINS_21__tree_const_iteratorINS_12__value_typeIS3_S5_EEPNS_11__tree_nodeISH_PvEElEEEERKSB_, symObjAddr: 0xFC48, symBinAddr: 0x1000186DC, symSize: 0x50 }
  - { offsetInCU: 0x28C50, offset: 0x5AD4E, size: 0x8, addend: 0x0, symName: __ZNSt3__120__map_const_iteratorINS_21__tree_const_iteratorINS_12__value_typeINS_10shared_ptrI6ButtonEENS3_I19HorizontalSlideDoorEEEEPNS_11__tree_nodeIS8_PvEElEEEC1B7v160006ESD_, symObjAddr: 0xFC98, symBinAddr: 0x10001872C, symSize: 0x34 }
  - { offsetInCU: 0x28C89, offset: 0x5AD87, size: 0x8, addend: 0x0, symName: __ZNKSt3__120__map_const_iteratorINS_21__tree_const_iteratorINS_12__value_typeINS_10shared_ptrI6ButtonEENS3_I19HorizontalSlideDoorEEEEPNS_11__tree_nodeIS8_PvEElEEEdeB7v160006Ev, symObjAddr: 0xFCCC, symBinAddr: 0x100018760, symSize: 0x28 }
  - { offsetInCU: 0x28CAF, offset: 0x5ADAD, size: 0x8, addend: 0x0, symName: __ZNSt3__120__map_const_iteratorINS_21__tree_const_iteratorINS_12__value_typeINS_10shared_ptrI6ButtonEENS3_I19HorizontalSlideDoorEEEEPNS_11__tree_nodeIS8_PvEElEEEppB7v160006Ev, symObjAddr: 0xFCF4, symBinAddr: 0x100018788, symSize: 0x2C }
  - { offsetInCU: 0x28CD5, offset: 0x5ADD3, size: 0x8, addend: 0x0, symName: __ZNSt3__16__treeINS_12__value_typeINS_10shared_ptrI6ButtonEENS2_I19HorizontalSlideDoorEEEENS_19__map_value_compareIS4_S7_NS_4lessIS4_EELb1EEENS_9allocatorIS7_EEE15__insert_uniqueB7v160006ENS_21__tree_const_iteratorIS7_PNS_11__tree_nodeIS7_PvEElEERKNS_4pairIKS4_S6_EE, symObjAddr: 0xFD84, symBinAddr: 0x100018818, symSize: 0x64 }
  - { offsetInCU: 0x28D19, offset: 0x5AE17, size: 0x8, addend: 0x0, symName: __ZNSt3__114__map_iteratorINS_15__tree_iteratorINS_12__value_typeINS_10shared_ptrI6ButtonEENS3_I19HorizontalSlideDoorEEEEPNS_11__tree_nodeIS8_PvEElEEEC1B7v160006ESD_, symObjAddr: 0xFDE8, symBinAddr: 0x10001887C, symSize: 0x34 }
  - { offsetInCU: 0x28D52, offset: 0x5AE50, size: 0x8, addend: 0x0, symName: __ZNSt3__16__treeINS_12__value_typeINS_10shared_ptrI6ButtonEENS2_I19HorizontalSlideDoorEEEENS_19__map_value_compareIS4_S7_NS_4lessIS4_EELb1EEENS_9allocatorIS7_EEE30__emplace_hint_unique_key_argsIS4_JRKNS_4pairIKS4_S6_EEEEENSG_INS_15__tree_iteratorIS7_PNS_11__tree_nodeIS7_PvEElEEbEENS_21__tree_const_iteratorIS7_SP_lEERKT_DpOT0_, symObjAddr: 0xFE1C, symBinAddr: 0x1000188B0, symSize: 0x104 }
  - { offsetInCU: 0x28E1F, offset: 0x5AF1D, size: 0x8, addend: 0x0, symName: __ZNSt3__122__tree_key_value_typesINS_12__value_typeINS_10shared_ptrI6ButtonEENS2_I19HorizontalSlideDoorEEEEE9__get_keyB7v160006IKNS_4pairIKS4_S6_EEEENS_9enable_ifIXsr17__is_same_uncvrefIT_SC_EE5valueERSB_E4typeERSF_, symObjAddr: 0xFF20, symBinAddr: 0x1000189B4, symSize: 0x14 }
  - { offsetInCU: 0x28E4C, offset: 0x5AF4A, size: 0x8, addend: 0x0, symName: __ZNSt3__16__treeINS_12__value_typeINS_10shared_ptrI6ButtonEENS2_I19HorizontalSlideDoorEEEENS_19__map_value_compareIS4_S7_NS_4lessIS4_EELb1EEENS_9allocatorIS7_EEE12__find_equalIS4_EERPNS_16__tree_node_baseIPvEENS_21__tree_const_iteratorIS7_PNS_11__tree_nodeIS7_SH_EElEERPNS_15__tree_end_nodeISJ_EESK_RKT_, symObjAddr: 0xFF34, symBinAddr: 0x1000189C8, symSize: 0x304 }
  - { offsetInCU: 0x28EF5, offset: 0x5AFF3, size: 0x8, addend: 0x0, symName: __ZNSt3__16__treeINS_12__value_typeINS_10shared_ptrI6ButtonEENS2_I19HorizontalSlideDoorEEEENS_19__map_value_compareIS4_S7_NS_4lessIS4_EELb1EEENS_9allocatorIS7_EEE16__construct_nodeIJRKNS_4pairIKS4_S6_EEEEENS_10unique_ptrINS_11__tree_nodeIS7_PvEENS_22__tree_node_destructorINSC_ISO_EEEEEEDpOT_, symObjAddr: 0x10238, symBinAddr: 0x100018CCC, symSize: 0x110 }
  - { offsetInCU: 0x28F56, offset: 0x5B054, size: 0x8, addend: 0x0, symName: __ZNSt3__16__treeINS_12__value_typeINS_10shared_ptrI6ButtonEENS2_I19HorizontalSlideDoorEEEENS_19__map_value_compareIS4_S7_NS_4lessIS4_EELb1EEENS_9allocatorIS7_EEE3endB7v160006Ev, symObjAddr: 0x10348, symBinAddr: 0x100018DDC, symSize: 0x34 }
  - { offsetInCU: 0x28F7C, offset: 0x5B07A, size: 0x8, addend: 0x0, symName: __ZNSt3__121__tree_const_iteratorINS_12__value_typeINS_10shared_ptrI6ButtonEENS2_I19HorizontalSlideDoorEEEEPNS_11__tree_nodeIS7_PvEElEC1B7v160006ENS_15__tree_iteratorIS7_SB_lEE, symObjAddr: 0x1037C, symBinAddr: 0x100018E10, symSize: 0x34 }
  - { offsetInCU: 0x28FB5, offset: 0x5B0B3, size: 0x8, addend: 0x0, symName: __ZNKSt3__121__tree_const_iteratorINS_12__value_typeINS_10shared_ptrI6ButtonEENS2_I19HorizontalSlideDoorEEEEPNS_11__tree_nodeIS7_PvEElEdeB7v160006Ev, symObjAddr: 0x103B0, symBinAddr: 0x100018E44, symSize: 0x28 }
  - { offsetInCU: 0x28FDB, offset: 0x5B0D9, size: 0x8, addend: 0x0, symName: __ZNSt3__16__treeINS_12__value_typeINS_10shared_ptrI6ButtonEENS2_I19HorizontalSlideDoorEEEENS_19__map_value_compareIS4_S7_NS_4lessIS4_EELb1EEENS_9allocatorIS7_EEE5beginB7v160006Ev, symObjAddr: 0x103D8, symBinAddr: 0x100018E6C, symSize: 0x34 }
  - { offsetInCU: 0x29001, offset: 0x5B0FF, size: 0x8, addend: 0x0, symName: __ZNSt3__121__tree_const_iteratorINS_12__value_typeINS_10shared_ptrI6ButtonEENS2_I19HorizontalSlideDoorEEEEPNS_11__tree_nodeIS7_PvEElEmmB7v160006Ev, symObjAddr: 0x1040C, symBinAddr: 0x100018EA0, symSize: 0x38 }
  - { offsetInCU: 0x29027, offset: 0x5B125, size: 0x8, addend: 0x0, symName: __ZNKSt3__121__tree_const_iteratorINS_12__value_typeINS_10shared_ptrI6ButtonEENS2_I19HorizontalSlideDoorEEEEPNS_11__tree_nodeIS7_PvEElE8__get_npB7v160006Ev, symObjAddr: 0x10494, symBinAddr: 0x100018F28, symSize: 0x18 }
  - { offsetInCU: 0x2904D, offset: 0x5B14B, size: 0x8, addend: 0x0, symName: __ZNSt3__115__tree_iteratorINS_12__value_typeINS_10shared_ptrI6ButtonEENS2_I19HorizontalSlideDoorEEEEPNS_11__tree_nodeIS7_PvEElEC1B7v160006EPNS_15__tree_end_nodeIPNS_16__tree_node_baseIS9_EEEE, symObjAddr: 0x104AC, symBinAddr: 0x100018F40, symSize: 0x34 }
  - { offsetInCU: 0x29086, offset: 0x5B184, size: 0x8, addend: 0x0, symName: __ZNSt3__115__tree_iteratorINS_12__value_typeINS_10shared_ptrI6ButtonEENS2_I19HorizontalSlideDoorEEEEPNS_11__tree_nodeIS7_PvEElEC2B7v160006EPNS_15__tree_end_nodeIPNS_16__tree_node_baseIS9_EEEE, symObjAddr: 0x104E0, symBinAddr: 0x100018F74, symSize: 0x20 }
  - { offsetInCU: 0x290BF, offset: 0x5B1BD, size: 0x8, addend: 0x0, symName: __ZNSt3__121__tree_const_iteratorINS_12__value_typeINS_10shared_ptrI6ButtonEENS2_I19HorizontalSlideDoorEEEEPNS_11__tree_nodeIS7_PvEElEC2B7v160006ENS_15__tree_iteratorIS7_SB_lEE, symObjAddr: 0x10500, symBinAddr: 0x100018F94, symSize: 0x20 }
  - { offsetInCU: 0x290F8, offset: 0x5B1F6, size: 0x8, addend: 0x0, symName: __ZNSt3__121__tree_const_iteratorINS_12__value_typeINS_10shared_ptrI6ButtonEENS2_I19HorizontalSlideDoorEEEEPNS_11__tree_nodeIS7_PvEElEppB7v160006Ev, symObjAddr: 0x106F0, symBinAddr: 0x1000190A8, symSize: 0x38 }
  - { offsetInCU: 0x2911E, offset: 0x5B21C, size: 0x8, addend: 0x0, symName: __ZNSt3__116allocator_traitsINS_9allocatorINS_11__tree_nodeINS_12__value_typeINS_10shared_ptrI6ButtonEENS4_I19HorizontalSlideDoorEEEEPvEEEEE9constructB7v160006INS_4pairIKS6_S8_EEJRKSH_EvEEvRSC_PT_DpOT0_, symObjAddr: 0x107E8, symBinAddr: 0x1000190E0, symSize: 0x34 }
  - { offsetInCU: 0x29175, offset: 0x5B273, size: 0x8, addend: 0x0, symName: __ZNSt3__19allocatorINS_11__tree_nodeINS_12__value_typeINS_10shared_ptrI6ButtonEENS3_I19HorizontalSlideDoorEEEEPvEEE9constructB7v160006INS_4pairIKS5_S7_EEJRKSF_EEEvPT_DpOT0_, symObjAddr: 0x1081C, symBinAddr: 0x100019114, symSize: 0x30 }
  - { offsetInCU: 0x291CB, offset: 0x5B2C9, size: 0x8, addend: 0x0, symName: __ZNSt3__14pairIKNS_10shared_ptrI6ButtonEENS1_I19HorizontalSlideDoorEEEC1ERKS7_, symObjAddr: 0x1084C, symBinAddr: 0x100019144, symSize: 0x34 }
  - { offsetInCU: 0x291FF, offset: 0x5B2FD, size: 0x8, addend: 0x0, symName: __ZNSt3__14pairIKNS_10shared_ptrI6ButtonEENS1_I19HorizontalSlideDoorEEEC2ERKS7_, symObjAddr: 0x10880, symBinAddr: 0x100019178, symSize: 0x48 }
  - { offsetInCU: 0x29233, offset: 0x5B331, size: 0x8, addend: 0x0, symName: __ZNSt3__114__map_iteratorINS_15__tree_iteratorINS_12__value_typeINS_10shared_ptrI6ButtonEENS3_I19HorizontalSlideDoorEEEEPNS_11__tree_nodeIS8_PvEElEEEC2B7v160006ESD_, symObjAddr: 0x108C8, symBinAddr: 0x1000191C0, symSize: 0x20 }
  - { offsetInCU: 0x2926C, offset: 0x5B36A, size: 0x8, addend: 0x0, symName: __ZNSt3__120__map_const_iteratorINS_21__tree_const_iteratorINS_12__value_typeINS_10shared_ptrI6ButtonEENS3_I19HorizontalSlideDoorEEEEPNS_11__tree_nodeIS8_PvEElEEEC2B7v160006ESD_, symObjAddr: 0x108E8, symBinAddr: 0x1000191E0, symSize: 0x20 }
  - { offsetInCU: 0x292A5, offset: 0x5B3A3, size: 0x8, addend: 0x0, symName: __ZNKSt3__121__tree_const_iteratorINS_12__value_typeINS_10shared_ptrI6ButtonEENS2_I19HorizontalSlideDoorEEEEPNS_11__tree_nodeIS7_PvEElEptB7v160006Ev, symObjAddr: 0x10908, symBinAddr: 0x100019200, symSize: 0x2C }
  - { offsetInCU: 0x292CB, offset: 0x5B3C9, size: 0x8, addend: 0x0, symName: __ZNSt3__114pointer_traitsIPKNS_12__value_typeINS_10shared_ptrI6ButtonEENS2_I19HorizontalSlideDoorEEEEE10pointer_toB7v160006ERS8_, symObjAddr: 0x10934, symBinAddr: 0x10001922C, symSize: 0x14 }
  - { offsetInCU: 0x292EE, offset: 0x5B3EC, size: 0x8, addend: 0x0, symName: __ZNKSt3__16__treeINS_12__value_typeINS_10shared_ptrI6ButtonEENS2_I19HorizontalSlideDoorEEEENS_19__map_value_compareIS4_S7_NS_4lessIS4_EELb1EEENS_9allocatorIS7_EEE5beginB7v160006Ev, symObjAddr: 0x10948, symBinAddr: 0x100019240, symSize: 0x34 }
  - { offsetInCU: 0x29314, offset: 0x5B412, size: 0x8, addend: 0x0, symName: __ZNKSt3__16__treeINS_12__value_typeINS_10shared_ptrI6ButtonEENS2_I19HorizontalSlideDoorEEEENS_19__map_value_compareIS4_S7_NS_4lessIS4_EELb1EEENS_9allocatorIS7_EEE12__begin_nodeB7v160006Ev, symObjAddr: 0x1097C, symBinAddr: 0x100019274, symSize: 0x14 }
  - { offsetInCU: 0x2933A, offset: 0x5B438, size: 0x8, addend: 0x0, symName: __ZNSt3__121__tree_const_iteratorINS_12__value_typeINS_10shared_ptrI6ButtonEENS2_I19HorizontalSlideDoorEEEEPNS_11__tree_nodeIS7_PvEElEC1B7v160006EPNS_15__tree_end_nodeIPNS_16__tree_node_baseIS9_EEEE, symObjAddr: 0x10990, symBinAddr: 0x100019288, symSize: 0x34 }
  - { offsetInCU: 0x29373, offset: 0x5B471, size: 0x8, addend: 0x0, symName: __ZNSt3__121__tree_const_iteratorINS_12__value_typeINS_10shared_ptrI6ButtonEENS2_I19HorizontalSlideDoorEEEEPNS_11__tree_nodeIS7_PvEElEC2B7v160006EPNS_15__tree_end_nodeIPNS_16__tree_node_baseIS9_EEEE, symObjAddr: 0x109C4, symBinAddr: 0x1000192BC, symSize: 0x20 }
  - { offsetInCU: 0x293AC, offset: 0x5B4AA, size: 0x8, addend: 0x0, symName: __ZNKSt3__16__treeINS_12__value_typeINS_10shared_ptrI6ButtonEENS2_I19HorizontalSlideDoorEEEENS_19__map_value_compareIS4_S7_NS_4lessIS4_EELb1EEENS_9allocatorIS7_EEE3endB7v160006Ev, symObjAddr: 0x109E4, symBinAddr: 0x1000192DC, symSize: 0x34 }
  - { offsetInCU: 0x293D2, offset: 0x5B4D0, size: 0x8, addend: 0x0, symName: __ZNSt3__16vectorINS_10shared_ptrI9LevelGridEENS_9allocatorIS3_EEEC2B7v160006ESt16initializer_listIS3_E, symObjAddr: 0x10A88, symBinAddr: 0x100019310, symSize: 0x124 }
  - { offsetInCU: 0x29424, offset: 0x5B522, size: 0x8, addend: 0x0, symName: __ZNSt3__117__compressed_pairIPNS_10shared_ptrI9LevelGridEENS_9allocatorIS3_EEEC1B7v160006IDnNS_18__default_init_tagEEEOT_OT0_, symObjAddr: 0x10BAC, symBinAddr: 0x100019434, symSize: 0x3C }
  - { offsetInCU: 0x2947C, offset: 0x5B57A, size: 0x8, addend: 0x0, symName: __ZNKSt16initializer_listINSt3__110shared_ptrI9LevelGridEEE4sizeB7v160006Ev, symObjAddr: 0x10C6C, symBinAddr: 0x100019470, symSize: 0x18 }
  - { offsetInCU: 0x294A2, offset: 0x5B5A0, size: 0x8, addend: 0x0, symName: __ZNSt3__16vectorINS_10shared_ptrI9LevelGridEENS_9allocatorIS3_EEE18__construct_at_endIPKS3_Li0EEEvT_SA_m, symObjAddr: 0x10D30, symBinAddr: 0x100019488, symSize: 0x8C }
  - { offsetInCU: 0x29515, offset: 0x5B613, size: 0x8, addend: 0x0, symName: __ZNKSt16initializer_listINSt3__110shared_ptrI9LevelGridEEE5beginB7v160006Ev, symObjAddr: 0x10DBC, symBinAddr: 0x100019514, symSize: 0x18 }
  - { offsetInCU: 0x2953B, offset: 0x5B639, size: 0x8, addend: 0x0, symName: __ZNKSt16initializer_listINSt3__110shared_ptrI9LevelGridEEE3endB7v160006Ev, symObjAddr: 0x10DD4, symBinAddr: 0x10001952C, symSize: 0x20 }
  - { offsetInCU: 0x29561, offset: 0x5B65F, size: 0x8, addend: 0x0, symName: __ZNSt3__117__compressed_pairIPNS_10shared_ptrI9LevelGridEENS_9allocatorIS3_EEEC2B7v160006IDnNS_18__default_init_tagEEEOT_OT0_, symObjAddr: 0x10E3C, symBinAddr: 0x10001954C, symSize: 0x40 }
  - { offsetInCU: 0x295B9, offset: 0x5B6B7, size: 0x8, addend: 0x0, symName: __ZNSt3__122__compressed_pair_elemINS_9allocatorINS_10shared_ptrI9LevelGridEEEELi1ELb1EEC2B7v160006ENS_18__default_init_tagE, symObjAddr: 0x10E98, symBinAddr: 0x10001958C, symSize: 0x2C }
  - { offsetInCU: 0x295ED, offset: 0x5B6EB, size: 0x8, addend: 0x0, symName: __ZNSt3__19allocatorINS_10shared_ptrI9LevelGridEEEC2B7v160006Ev, symObjAddr: 0x10EC4, symBinAddr: 0x1000195B8, symSize: 0x2C }
  - { offsetInCU: 0x29617, offset: 0x5B715, size: 0x8, addend: 0x0, symName: __ZNSt3__116__non_trivial_ifILb1ENS_9allocatorINS_10shared_ptrI9LevelGridEEEEEC2B7v160006Ev, symObjAddr: 0x10EF0, symBinAddr: 0x1000195E4, symSize: 0x14 }
  - { offsetInCU: 0x29664, offset: 0x5B762, size: 0x8, addend: 0x0, symName: __ZNSt3__116allocator_traitsINS_9allocatorINS_10shared_ptrI9LevelGridEEEEE9constructB7v160006IS4_JRKS4_EvEEvRS5_PT_DpOT0_, symObjAddr: 0x115C0, symBinAddr: 0x1000196EC, symSize: 0x34 }
  - { offsetInCU: 0x296BB, offset: 0x5B7B9, size: 0x8, addend: 0x0, symName: __ZNSt3__19allocatorINS_10shared_ptrI9LevelGridEEE9constructB7v160006IS3_JRKS3_EEEvPT_DpOT0_, symObjAddr: 0x116D8, symBinAddr: 0x100019720, symSize: 0x30 }
  - { offsetInCU: 0x29711, offset: 0x5B80F, size: 0x8, addend: 0x0, symName: __ZNSt3__16vectorINS_10shared_ptrI9LevelGridEENS_9allocatorIS3_EEED2B7v160006Ev, symObjAddr: 0x11D2C, symBinAddr: 0x100019750, symSize: 0x44 }
  - { offsetInCU: 0x29740, offset: 0x5B83E, size: 0x8, addend: 0x0, symName: __ZNSt3__16vectorINS_12basic_stringIcNS_11char_traitsIcEENS_9allocatorIcEEEENS4_IS6_EEEC2B7v160006ESt16initializer_listIS6_E, symObjAddr: 0x122CC, symBinAddr: 0x100019794, symSize: 0x124 }
  - { offsetInCU: 0x29792, offset: 0x5B890, size: 0x8, addend: 0x0, symName: __ZNSt3__117__compressed_pairIPNS_12basic_stringIcNS_11char_traitsIcEENS_9allocatorIcEEEENS4_IS6_EEEC1B7v160006IDnNS_18__default_init_tagEEEOT_OT0_, symObjAddr: 0x123F0, symBinAddr: 0x1000198B8, symSize: 0x3C }
  - { offsetInCU: 0x297EA, offset: 0x5B8E8, size: 0x8, addend: 0x0, symName: __ZNSt3__16vectorINS_12basic_stringIcNS_11char_traitsIcEENS_9allocatorIcEEEENS4_IS6_EEE16__destroy_vectorC1ERS8_, symObjAddr: 0x1246C, symBinAddr: 0x100019934, symSize: 0x34 }
  - { offsetInCU: 0x29823, offset: 0x5B921, size: 0x8, addend: 0x0, symName: __ZNKSt16initializer_listINSt3__112basic_stringIcNS0_11char_traitsIcEENS0_9allocatorIcEEEEE4sizeB7v160006Ev, symObjAddr: 0x124B0, symBinAddr: 0x100019978, symSize: 0x18 }
  - { offsetInCU: 0x29849, offset: 0x5B947, size: 0x8, addend: 0x0, symName: __ZNSt3__16vectorINS_12basic_stringIcNS_11char_traitsIcEENS_9allocatorIcEEEENS4_IS6_EEE11__vallocateB7v160006Em, symObjAddr: 0x124C8, symBinAddr: 0x100019990, symSize: 0xB4 }
  - { offsetInCU: 0x2988D, offset: 0x5B98B, size: 0x8, addend: 0x0, symName: __ZNSt3__16vectorINS_12basic_stringIcNS_11char_traitsIcEENS_9allocatorIcEEEENS4_IS6_EEE18__construct_at_endIPKS6_Li0EEEvT_SC_m, symObjAddr: 0x1257C, symBinAddr: 0x100019A44, symSize: 0x8C }
  - { offsetInCU: 0x29900, offset: 0x5B9FE, size: 0x8, addend: 0x0, symName: __ZNKSt16initializer_listINSt3__112basic_stringIcNS0_11char_traitsIcEENS0_9allocatorIcEEEEE5beginB7v160006Ev, symObjAddr: 0x12608, symBinAddr: 0x100019AD0, symSize: 0x18 }
  - { offsetInCU: 0x29926, offset: 0x5BA24, size: 0x8, addend: 0x0, symName: __ZNKSt16initializer_listINSt3__112basic_stringIcNS0_11char_traitsIcEENS0_9allocatorIcEEEEE3endB7v160006Ev, symObjAddr: 0x12620, symBinAddr: 0x100019AE8, symSize: 0x28 }
  - { offsetInCU: 0x2994C, offset: 0x5BA4A, size: 0x8, addend: 0x0, symName: __ZNSt3__128__exception_guard_exceptionsINS_6vectorINS_12basic_stringIcNS_11char_traitsIcEENS_9allocatorIcEEEENS5_IS7_EEE16__destroy_vectorEE10__completeB7v160006Ev, symObjAddr: 0x12648, symBinAddr: 0x100019B10, symSize: 0x1C }
  - { offsetInCU: 0x29972, offset: 0x5BA70, size: 0x8, addend: 0x0, symName: __ZNSt3__128__exception_guard_exceptionsINS_6vectorINS_12basic_stringIcNS_11char_traitsIcEENS_9allocatorIcEEEENS5_IS7_EEE16__destroy_vectorEED1B7v160006Ev, symObjAddr: 0x12664, symBinAddr: 0x100019B2C, symSize: 0x2C }
  - { offsetInCU: 0x2999C, offset: 0x5BA9A, size: 0x8, addend: 0x0, symName: __ZNSt3__117__compressed_pairIPNS_12basic_stringIcNS_11char_traitsIcEENS_9allocatorIcEEEENS4_IS6_EEEC2B7v160006IDnNS_18__default_init_tagEEEOT_OT0_, symObjAddr: 0x12690, symBinAddr: 0x100019B58, symSize: 0x40 }
  - { offsetInCU: 0x299F4, offset: 0x5BAF2, size: 0x8, addend: 0x0, symName: __ZNSt3__122__compressed_pair_elemIPNS_12basic_stringIcNS_11char_traitsIcEENS_9allocatorIcEEEELi0ELb0EEC2B7v160006IDnvEEOT_, symObjAddr: 0x126D0, symBinAddr: 0x100019B98, symSize: 0x1C }
  - { offsetInCU: 0x29A36, offset: 0x5BB34, size: 0x8, addend: 0x0, symName: __ZNSt3__122__compressed_pair_elemINS_9allocatorINS_12basic_stringIcNS_11char_traitsIcEENS1_IcEEEEEELi1ELb1EEC2B7v160006ENS_18__default_init_tagE, symObjAddr: 0x126EC, symBinAddr: 0x100019BB4, symSize: 0x2C }
  - { offsetInCU: 0x29A6A, offset: 0x5BB68, size: 0x8, addend: 0x0, symName: __ZNSt3__19allocatorINS_12basic_stringIcNS_11char_traitsIcEENS0_IcEEEEEC2B7v160006Ev, symObjAddr: 0x12718, symBinAddr: 0x100019BE0, symSize: 0x2C }
  - { offsetInCU: 0x29A94, offset: 0x5BB92, size: 0x8, addend: 0x0, symName: __ZNSt3__116__non_trivial_ifILb1ENS_9allocatorINS_12basic_stringIcNS_11char_traitsIcEENS1_IcEEEEEEEC2B7v160006Ev, symObjAddr: 0x12744, symBinAddr: 0x100019C0C, symSize: 0x14 }
  - { offsetInCU: 0x29ABE, offset: 0x5BBBC, size: 0x8, addend: 0x0, symName: __ZNSt3__128__exception_guard_exceptionsINS_6vectorINS_12basic_stringIcNS_11char_traitsIcEENS_9allocatorIcEEEENS5_IS7_EEE16__destroy_vectorEEC1B7v160006ESA_, symObjAddr: 0x12758, symBinAddr: 0x100019C20, symSize: 0x34 }
  - { offsetInCU: 0x29AF6, offset: 0x5BBF4, size: 0x8, addend: 0x0, symName: __ZNSt3__128__exception_guard_exceptionsINS_6vectorINS_12basic_stringIcNS_11char_traitsIcEENS_9allocatorIcEEEENS5_IS7_EEE16__destroy_vectorEEC2B7v160006ESA_, symObjAddr: 0x1278C, symBinAddr: 0x100019C54, symSize: 0x24 }
  - { offsetInCU: 0x29B2E, offset: 0x5BC2C, size: 0x8, addend: 0x0, symName: __ZNSt3__16vectorINS_12basic_stringIcNS_11char_traitsIcEENS_9allocatorIcEEEENS4_IS6_EEE16__destroy_vectorC2ERS8_, symObjAddr: 0x127B0, symBinAddr: 0x100019C78, symSize: 0x20 }
  - { offsetInCU: 0x29B67, offset: 0x5BC65, size: 0x8, addend: 0x0, symName: __ZNKSt3__16vectorINS_12basic_stringIcNS_11char_traitsIcEENS_9allocatorIcEEEENS4_IS6_EEE8max_sizeEv, symObjAddr: 0x127D0, symBinAddr: 0x100019C98, symSize: 0x60 }
  - { offsetInCU: 0x29B8F, offset: 0x5BC8D, size: 0x8, addend: 0x0, symName: __ZNKSt3__16vectorINS_12basic_stringIcNS_11char_traitsIcEENS_9allocatorIcEEEENS4_IS6_EEE20__throw_length_errorB7v160006Ev, symObjAddr: 0x12830, symBinAddr: 0x100019CF8, symSize: 0x1C }
  - { offsetInCU: 0x29BB5, offset: 0x5BCB3, size: 0x8, addend: 0x0, symName: __ZNSt3__16vectorINS_12basic_stringIcNS_11char_traitsIcEENS_9allocatorIcEEEENS4_IS6_EEE7__allocB7v160006Ev, symObjAddr: 0x1288C, symBinAddr: 0x100019D54, symSize: 0x28 }
  - { offsetInCU: 0x29BDB, offset: 0x5BCD9, size: 0x8, addend: 0x0, symName: __ZNSt3__16vectorINS_12basic_stringIcNS_11char_traitsIcEENS_9allocatorIcEEEENS4_IS6_EEE9__end_capB7v160006Ev, symObjAddr: 0x128B4, symBinAddr: 0x100019D7C, symSize: 0x28 }
  - { offsetInCU: 0x29C01, offset: 0x5BCFF, size: 0x8, addend: 0x0, symName: __ZNKSt3__16vectorINS_12basic_stringIcNS_11char_traitsIcEENS_9allocatorIcEEEENS4_IS6_EEE14__annotate_newB7v160006Em, symObjAddr: 0x128DC, symBinAddr: 0x100019DA4, symSize: 0xC8 }
  - { offsetInCU: 0x29C40, offset: 0x5BD3E, size: 0x8, addend: 0x0, symName: __ZNSt3__116allocator_traitsINS_9allocatorINS_12basic_stringIcNS_11char_traitsIcEENS1_IcEEEEEEE8max_sizeB7v160006IS7_vEEmRKS7_, symObjAddr: 0x129A4, symBinAddr: 0x100019E6C, symSize: 0x24 }
  - { offsetInCU: 0x29C6E, offset: 0x5BD6C, size: 0x8, addend: 0x0, symName: __ZNKSt3__16vectorINS_12basic_stringIcNS_11char_traitsIcEENS_9allocatorIcEEEENS4_IS6_EEE7__allocB7v160006Ev, symObjAddr: 0x129C8, symBinAddr: 0x100019E90, symSize: 0x28 }
  - { offsetInCU: 0x29C94, offset: 0x5BD92, size: 0x8, addend: 0x0, symName: __ZNKSt3__19allocatorINS_12basic_stringIcNS_11char_traitsIcEENS0_IcEEEEE8max_sizeB7v160006Ev, symObjAddr: 0x129F0, symBinAddr: 0x100019EB8, symSize: 0x18 }
  - { offsetInCU: 0x29CBA, offset: 0x5BDB8, size: 0x8, addend: 0x0, symName: __ZNKSt3__117__compressed_pairIPNS_12basic_stringIcNS_11char_traitsIcEENS_9allocatorIcEEEENS4_IS6_EEE6secondB7v160006Ev, symObjAddr: 0x12A08, symBinAddr: 0x100019ED0, symSize: 0x24 }
  - { offsetInCU: 0x29CE0, offset: 0x5BDDE, size: 0x8, addend: 0x0, symName: __ZNKSt3__122__compressed_pair_elemINS_9allocatorINS_12basic_stringIcNS_11char_traitsIcEENS1_IcEEEEEELi1ELb1EE5__getB7v160006Ev, symObjAddr: 0x12A2C, symBinAddr: 0x100019EF4, symSize: 0x14 }
  - { offsetInCU: 0x29D06, offset: 0x5BE04, size: 0x8, addend: 0x0, symName: __ZNSt3__19allocatorINS_12basic_stringIcNS_11char_traitsIcEENS0_IcEEEEE8allocateB7v160006Em, symObjAddr: 0x12A40, symBinAddr: 0x100019F08, symSize: 0x5C }
  - { offsetInCU: 0x29D3A, offset: 0x5BE38, size: 0x8, addend: 0x0, symName: __ZNSt3__117__compressed_pairIPNS_12basic_stringIcNS_11char_traitsIcEENS_9allocatorIcEEEENS4_IS6_EEE6secondB7v160006Ev, symObjAddr: 0x12A9C, symBinAddr: 0x100019F64, symSize: 0x24 }
  - { offsetInCU: 0x29D60, offset: 0x5BE5E, size: 0x8, addend: 0x0, symName: __ZNSt3__122__compressed_pair_elemINS_9allocatorINS_12basic_stringIcNS_11char_traitsIcEENS1_IcEEEEEELi1ELb1EE5__getB7v160006Ev, symObjAddr: 0x12AC0, symBinAddr: 0x100019F88, symSize: 0x14 }
  - { offsetInCU: 0x29D86, offset: 0x5BE84, size: 0x8, addend: 0x0, symName: __ZNSt3__117__compressed_pairIPNS_12basic_stringIcNS_11char_traitsIcEENS_9allocatorIcEEEENS4_IS6_EEE5firstB7v160006Ev, symObjAddr: 0x12AD4, symBinAddr: 0x100019F9C, symSize: 0x24 }
  - { offsetInCU: 0x29DAC, offset: 0x5BEAA, size: 0x8, addend: 0x0, symName: __ZNSt3__122__compressed_pair_elemIPNS_12basic_stringIcNS_11char_traitsIcEENS_9allocatorIcEEEELi0ELb0EE5__getB7v160006Ev, symObjAddr: 0x12AF8, symBinAddr: 0x100019FC0, symSize: 0x14 }
  - { offsetInCU: 0x29DD2, offset: 0x5BED0, size: 0x8, addend: 0x0, symName: __ZNKSt3__16vectorINS_12basic_stringIcNS_11char_traitsIcEENS_9allocatorIcEEEENS4_IS6_EEE31__annotate_contiguous_containerB7v160006EPKvSA_SA_SA_, symObjAddr: 0x12B0C, symBinAddr: 0x100019FD4, symSize: 0x20 }
  - { offsetInCU: 0x29E28, offset: 0x5BF26, size: 0x8, addend: 0x0, symName: __ZNKSt3__16vectorINS_12basic_stringIcNS_11char_traitsIcEENS_9allocatorIcEEEENS4_IS6_EEE4dataB7v160006Ev, symObjAddr: 0x12B2C, symBinAddr: 0x100019FF4, symSize: 0x28 }
  - { offsetInCU: 0x29E4E, offset: 0x5BF4C, size: 0x8, addend: 0x0, symName: __ZNKSt3__16vectorINS_12basic_stringIcNS_11char_traitsIcEENS_9allocatorIcEEEENS4_IS6_EEE8capacityB7v160006Ev, symObjAddr: 0x12B54, symBinAddr: 0x10001A01C, symSize: 0x40 }
  - { offsetInCU: 0x29E74, offset: 0x5BF72, size: 0x8, addend: 0x0, symName: __ZNKSt3__16vectorINS_12basic_stringIcNS_11char_traitsIcEENS_9allocatorIcEEEENS4_IS6_EEE9__end_capB7v160006Ev, symObjAddr: 0x12BA8, symBinAddr: 0x10001A070, symSize: 0x28 }
  - { offsetInCU: 0x29E9A, offset: 0x5BF98, size: 0x8, addend: 0x0, symName: __ZNKSt3__117__compressed_pairIPNS_12basic_stringIcNS_11char_traitsIcEENS_9allocatorIcEEEENS4_IS6_EEE5firstB7v160006Ev, symObjAddr: 0x12BD0, symBinAddr: 0x10001A098, symSize: 0x24 }
  - { offsetInCU: 0x29EC0, offset: 0x5BFBE, size: 0x8, addend: 0x0, symName: __ZNKSt3__122__compressed_pair_elemIPNS_12basic_stringIcNS_11char_traitsIcEENS_9allocatorIcEEEELi0ELb0EE5__getB7v160006Ev, symObjAddr: 0x12BF4, symBinAddr: 0x10001A0BC, symSize: 0x14 }
  - { offsetInCU: 0x29EFF, offset: 0x5BFFD, size: 0x8, addend: 0x0, symName: __ZNSt3__16vectorINS_12basic_stringIcNS_11char_traitsIcEENS_9allocatorIcEEEENS4_IS6_EEE21_ConstructTransactionC1B7v160006ERS8_m, symObjAddr: 0x12C08, symBinAddr: 0x10001A0D0, symSize: 0x3C }
  - { offsetInCU: 0x29F47, offset: 0x5C045, size: 0x8, addend: 0x0, symName: __ZNSt3__16vectorINS_12basic_stringIcNS_11char_traitsIcEENS_9allocatorIcEEEENS4_IS6_EEE21_ConstructTransactionD1B7v160006Ev, symObjAddr: 0x12D38, symBinAddr: 0x10001A200, symSize: 0x2C }
  - { offsetInCU: 0x29F71, offset: 0x5C06F, size: 0x8, addend: 0x0, symName: __ZNSt3__16vectorINS_12basic_stringIcNS_11char_traitsIcEENS_9allocatorIcEEEENS4_IS6_EEE21_ConstructTransactionC2B7v160006ERS8_m, symObjAddr: 0x12D64, symBinAddr: 0x10001A22C, symSize: 0x4C }
  - { offsetInCU: 0x29FB9, offset: 0x5C0B7, size: 0x8, addend: 0x0, symName: __ZNSt3__129_AllocatorDestroyRangeReverseINS_9allocatorINS_12basic_stringIcNS_11char_traitsIcEENS1_IcEEEEEEPS6_EC1B7v160006ERS7_RS8_SB_, symObjAddr: 0x12DFC, symBinAddr: 0x10001A2C4, symSize: 0x44 }
  - { offsetInCU: 0x2A010, offset: 0x5C10E, size: 0x8, addend: 0x0, symName: __ZNSt3__116allocator_traitsINS_9allocatorINS_12basic_stringIcNS_11char_traitsIcEENS1_IcEEEEEEE9constructB7v160006IS6_JRKS6_EvEEvRS7_PT_DpOT0_, symObjAddr: 0x12E40, symBinAddr: 0x10001A308, symSize: 0x34 }
  - { offsetInCU: 0x2A067, offset: 0x5C165, size: 0x8, addend: 0x0, symName: __ZNSt3__128__exception_guard_exceptionsINS_29_AllocatorDestroyRangeReverseINS_9allocatorINS_12basic_stringIcNS_11char_traitsIcEENS2_IcEEEEEEPS7_EEE10__completeB7v160006Ev, symObjAddr: 0x12E74, symBinAddr: 0x10001A33C, symSize: 0x1C }
  - { offsetInCU: 0x2A08D, offset: 0x5C18B, size: 0x8, addend: 0x0, symName: __ZNSt3__128__exception_guard_exceptionsINS_29_AllocatorDestroyRangeReverseINS_9allocatorINS_12basic_stringIcNS_11char_traitsIcEENS2_IcEEEEEEPS7_EEED1B7v160006Ev, symObjAddr: 0x12E90, symBinAddr: 0x10001A358, symSize: 0x2C }
  - { offsetInCU: 0x2A0B7, offset: 0x5C1B5, size: 0x8, addend: 0x0, symName: __ZNSt3__128__exception_guard_exceptionsINS_29_AllocatorDestroyRangeReverseINS_9allocatorINS_12basic_stringIcNS_11char_traitsIcEENS2_IcEEEEEEPS7_EEEC1B7v160006ESA_, symObjAddr: 0x12EBC, symBinAddr: 0x10001A384, symSize: 0x34 }
  - { offsetInCU: 0x2A0F0, offset: 0x5C1EE, size: 0x8, addend: 0x0, symName: __ZNSt3__128__exception_guard_exceptionsINS_29_AllocatorDestroyRangeReverseINS_9allocatorINS_12basic_stringIcNS_11char_traitsIcEENS2_IcEEEEEEPS7_EEEC2B7v160006ESA_, symObjAddr: 0x12EF0, symBinAddr: 0x10001A3B8, symSize: 0x30 }
  - { offsetInCU: 0x2A129, offset: 0x5C227, size: 0x8, addend: 0x0, symName: __ZNSt3__129_AllocatorDestroyRangeReverseINS_9allocatorINS_12basic_stringIcNS_11char_traitsIcEENS1_IcEEEEEEPS6_EC2B7v160006ERS7_RS8_SB_, symObjAddr: 0x12F20, symBinAddr: 0x10001A3E8, symSize: 0x38 }
  - { offsetInCU: 0x2A180, offset: 0x5C27E, size: 0x8, addend: 0x0, symName: __ZNSt3__19allocatorINS_12basic_stringIcNS_11char_traitsIcEENS0_IcEEEEE9constructB7v160006IS5_JRKS5_EEEvPT_DpOT0_, symObjAddr: 0x12F58, symBinAddr: 0x10001A420, symSize: 0x30 }
  - { offsetInCU: 0x2A1D6, offset: 0x5C2D4, size: 0x8, addend: 0x0, symName: __ZNSt3__128__exception_guard_exceptionsINS_29_AllocatorDestroyRangeReverseINS_9allocatorINS_12basic_stringIcNS_11char_traitsIcEENS2_IcEEEEEEPS7_EEED2B7v160006Ev, symObjAddr: 0x12F88, symBinAddr: 0x10001A450, symSize: 0x50 }
  - { offsetInCU: 0x2A200, offset: 0x5C2FE, size: 0x8, addend: 0x0, symName: __ZNKSt3__129_AllocatorDestroyRangeReverseINS_9allocatorINS_12basic_stringIcNS_11char_traitsIcEENS1_IcEEEEEEPS6_EclB7v160006Ev, symObjAddr: 0x12FD8, symBinAddr: 0x10001A4A0, symSize: 0x68 }
  - { offsetInCU: 0x2A226, offset: 0x5C324, size: 0x8, addend: 0x0, symName: __ZNSt3__116reverse_iteratorIPNS_12basic_stringIcNS_11char_traitsIcEENS_9allocatorIcEEEEEC1B7v160006ES7_, symObjAddr: 0x130B0, symBinAddr: 0x10001A578, symSize: 0x34 }
  - { offsetInCU: 0x2A25E, offset: 0x5C35C, size: 0x8, addend: 0x0, symName: __ZNSt3__116allocator_traitsINS_9allocatorINS_12basic_stringIcNS_11char_traitsIcEENS1_IcEEEEEEE7destroyB7v160006IS6_vEEvRS7_PT_, symObjAddr: 0x1312C, symBinAddr: 0x10001A5F4, symSize: 0x2C }
  - { offsetInCU: 0x2A29B, offset: 0x5C399, size: 0x8, addend: 0x0, symName: __ZNSt3__116reverse_iteratorIPNS_12basic_stringIcNS_11char_traitsIcEENS_9allocatorIcEEEEEppB7v160006Ev, symObjAddr: 0x1317C, symBinAddr: 0x10001A644, symSize: 0x20 }
  - { offsetInCU: 0x2A2C1, offset: 0x5C3BF, size: 0x8, addend: 0x0, symName: __ZNKSt3__116reverse_iteratorIPNS_12basic_stringIcNS_11char_traitsIcEENS_9allocatorIcEEEEE4baseB7v160006Ev, symObjAddr: 0x1319C, symBinAddr: 0x10001A664, symSize: 0x18 }
  - { offsetInCU: 0x2A2E7, offset: 0x5C3E5, size: 0x8, addend: 0x0, symName: __ZNSt3__19allocatorINS_12basic_stringIcNS_11char_traitsIcEENS0_IcEEEEE7destroyB7v160006EPS5_, symObjAddr: 0x131B4, symBinAddr: 0x10001A67C, symSize: 0x28 }
  - { offsetInCU: 0x2A320, offset: 0x5C41E, size: 0x8, addend: 0x0, symName: __ZNSt3__119__to_address_helperINS_16reverse_iteratorIPNS_12basic_stringIcNS_11char_traitsIcEENS_9allocatorIcEEEEEEvE6__callB7v160006ERKS9_, symObjAddr: 0x131DC, symBinAddr: 0x10001A6A4, symSize: 0x38 }
  - { offsetInCU: 0x2A343, offset: 0x5C441, size: 0x8, addend: 0x0, symName: __ZNKSt3__116reverse_iteratorIPNS_12basic_stringIcNS_11char_traitsIcEENS_9allocatorIcEEEEEptB7v160006Ev, symObjAddr: 0x13214, symBinAddr: 0x10001A6DC, symSize: 0x24 }
  - { offsetInCU: 0x2A369, offset: 0x5C467, size: 0x8, addend: 0x0, symName: __ZNKSt3__116reverse_iteratorIPNS_12basic_stringIcNS_11char_traitsIcEENS_9allocatorIcEEEEEdeB7v160006Ev, symObjAddr: 0x13238, symBinAddr: 0x10001A700, symSize: 0x28 }
  - { offsetInCU: 0x2A39D, offset: 0x5C49B, size: 0x8, addend: 0x0, symName: __ZNSt3__116reverse_iteratorIPNS_12basic_stringIcNS_11char_traitsIcEENS_9allocatorIcEEEEEC2B7v160006ES7_, symObjAddr: 0x13260, symBinAddr: 0x10001A728, symSize: 0x28 }
  - { offsetInCU: 0x2A3D5, offset: 0x5C4D3, size: 0x8, addend: 0x0, symName: __ZNSt3__16vectorINS_12basic_stringIcNS_11char_traitsIcEENS_9allocatorIcEEEENS4_IS6_EEE21_ConstructTransactionD2B7v160006Ev, symObjAddr: 0x13288, symBinAddr: 0x10001A750, symSize: 0x20 }
  - { offsetInCU: 0x2A3FF, offset: 0x5C4FD, size: 0x8, addend: 0x0, symName: __ZNSt3__128__exception_guard_exceptionsINS_6vectorINS_12basic_stringIcNS_11char_traitsIcEENS_9allocatorIcEEEENS5_IS7_EEE16__destroy_vectorEED2B7v160006Ev, symObjAddr: 0x132A8, symBinAddr: 0x10001A770, symSize: 0x50 }
  - { offsetInCU: 0x2A429, offset: 0x5C527, size: 0x8, addend: 0x0, symName: __ZNSt3__16vectorINS_12basic_stringIcNS_11char_traitsIcEENS_9allocatorIcEEEENS4_IS6_EEE16__destroy_vectorclB7v160006Ev, symObjAddr: 0x132F8, symBinAddr: 0x10001A7C0, symSize: 0x9C }
  - { offsetInCU: 0x2A44F, offset: 0x5C54D, size: 0x8, addend: 0x0, symName: __ZNKSt3__16vectorINS_12basic_stringIcNS_11char_traitsIcEENS_9allocatorIcEEEENS4_IS6_EEE17__annotate_deleteB7v160006Ev, symObjAddr: 0x13394, symBinAddr: 0x10001A85C, symSize: 0xD4 }
  - { offsetInCU: 0x2A475, offset: 0x5C573, size: 0x8, addend: 0x0, symName: __ZNSt3__16vectorINS_12basic_stringIcNS_11char_traitsIcEENS_9allocatorIcEEEENS4_IS6_EEE7__clearB7v160006Ev, symObjAddr: 0x13478, symBinAddr: 0x10001A940, symSize: 0x28 }
  - { offsetInCU: 0x2A49B, offset: 0x5C599, size: 0x8, addend: 0x0, symName: __ZNSt3__116allocator_traitsINS_9allocatorINS_12basic_stringIcNS_11char_traitsIcEENS1_IcEEEEEEE10deallocateB7v160006ERS7_PS6_m, symObjAddr: 0x134A0, symBinAddr: 0x10001A968, symSize: 0x34 }
  - { offsetInCU: 0x2A4DD, offset: 0x5C5DB, size: 0x8, addend: 0x0, symName: __ZNSt3__16vectorINS_12basic_stringIcNS_11char_traitsIcEENS_9allocatorIcEEEENS4_IS6_EEE22__base_destruct_at_endB7v160006EPS6_, symObjAddr: 0x134D4, symBinAddr: 0x10001A99C, symSize: 0x8C }
  - { offsetInCU: 0x2A521, offset: 0x5C61F, size: 0x8, addend: 0x0, symName: __ZNSt3__19allocatorINS_12basic_stringIcNS_11char_traitsIcEENS0_IcEEEEE10deallocateB7v160006EPS5_m, symObjAddr: 0x13560, symBinAddr: 0x10001AA28, symSize: 0x44 }
  - { offsetInCU: 0x2A563, offset: 0x5C661, size: 0x8, addend: 0x0, symName: __ZNSt3__16vectorINS_12basic_stringIcNS_11char_traitsIcEENS_9allocatorIcEEEENS4_IS6_EEED2B7v160006Ev, symObjAddr: 0x135A4, symBinAddr: 0x10001AA6C, symSize: 0x44 }
  - { offsetInCU: 0x2A58D, offset: 0x5C68B, size: 0x8, addend: 0x0, symName: __ZNSt3__16vectorIiNS_9allocatorIiEEEC2B7v160006ESt16initializer_listIiE, symObjAddr: 0x135E8, symBinAddr: 0x10001AAB0, symSize: 0x124 }
  - { offsetInCU: 0x2A5DF, offset: 0x5C6DD, size: 0x8, addend: 0x0, symName: __ZNSt3__117__compressed_pairIPiNS_9allocatorIiEEEC1B7v160006IDnNS_18__default_init_tagEEEOT_OT0_, symObjAddr: 0x1370C, symBinAddr: 0x10001ABD4, symSize: 0x3C }
  - { offsetInCU: 0x2A637, offset: 0x5C735, size: 0x8, addend: 0x0, symName: __ZNSt3__16vectorIiNS_9allocatorIiEEE16__destroy_vectorC1ERS3_, symObjAddr: 0x13788, symBinAddr: 0x10001AC50, symSize: 0x34 }
  - { offsetInCU: 0x2A670, offset: 0x5C76E, size: 0x8, addend: 0x0, symName: __ZNKSt16initializer_listIiE4sizeB7v160006Ev, symObjAddr: 0x137CC, symBinAddr: 0x10001AC94, symSize: 0x18 }
  - { offsetInCU: 0x2A696, offset: 0x5C794, size: 0x8, addend: 0x0, symName: __ZNSt3__16vectorIiNS_9allocatorIiEEE11__vallocateB7v160006Em, symObjAddr: 0x137E4, symBinAddr: 0x10001ACAC, symSize: 0xAC }
  - { offsetInCU: 0x2A6DA, offset: 0x5C7D8, size: 0x8, addend: 0x0, symName: __ZNSt3__16vectorIiNS_9allocatorIiEEE18__construct_at_endIPKiLi0EEEvT_S7_m, symObjAddr: 0x13890, symBinAddr: 0x10001AD58, symSize: 0x8C }
  - { offsetInCU: 0x2A74D, offset: 0x5C84B, size: 0x8, addend: 0x0, symName: __ZNKSt16initializer_listIiE5beginB7v160006Ev, symObjAddr: 0x1391C, symBinAddr: 0x10001ADE4, symSize: 0x18 }
  - { offsetInCU: 0x2A773, offset: 0x5C871, size: 0x8, addend: 0x0, symName: __ZNKSt16initializer_listIiE3endB7v160006Ev, symObjAddr: 0x13934, symBinAddr: 0x10001ADFC, symSize: 0x20 }
  - { offsetInCU: 0x2A799, offset: 0x5C897, size: 0x8, addend: 0x0, symName: __ZNSt3__128__exception_guard_exceptionsINS_6vectorIiNS_9allocatorIiEEE16__destroy_vectorEE10__completeB7v160006Ev, symObjAddr: 0x13954, symBinAddr: 0x10001AE1C, symSize: 0x1C }
  - { offsetInCU: 0x2A7BF, offset: 0x5C8BD, size: 0x8, addend: 0x0, symName: __ZNSt3__128__exception_guard_exceptionsINS_6vectorIiNS_9allocatorIiEEE16__destroy_vectorEED1B7v160006Ev, symObjAddr: 0x13970, symBinAddr: 0x10001AE38, symSize: 0x2C }
  - { offsetInCU: 0x2A7E9, offset: 0x5C8E7, size: 0x8, addend: 0x0, symName: __ZNSt3__117__compressed_pairIPiNS_9allocatorIiEEEC2B7v160006IDnNS_18__default_init_tagEEEOT_OT0_, symObjAddr: 0x1399C, symBinAddr: 0x10001AE64, symSize: 0x40 }
  - { offsetInCU: 0x2A841, offset: 0x5C93F, size: 0x8, addend: 0x0, symName: __ZNSt3__122__compressed_pair_elemIPiLi0ELb0EEC2B7v160006IDnvEEOT_, symObjAddr: 0x139DC, symBinAddr: 0x10001AEA4, symSize: 0x1C }
  - { offsetInCU: 0x2A883, offset: 0x5C981, size: 0x8, addend: 0x0, symName: __ZNSt3__122__compressed_pair_elemINS_9allocatorIiEELi1ELb1EEC2B7v160006ENS_18__default_init_tagE, symObjAddr: 0x139F8, symBinAddr: 0x10001AEC0, symSize: 0x2C }
  - { offsetInCU: 0x2A8B7, offset: 0x5C9B5, size: 0x8, addend: 0x0, symName: __ZNSt3__19allocatorIiEC2B7v160006Ev, symObjAddr: 0x13A24, symBinAddr: 0x10001AEEC, symSize: 0x2C }
  - { offsetInCU: 0x2A8E1, offset: 0x5C9DF, size: 0x8, addend: 0x0, symName: __ZNSt3__116__non_trivial_ifILb1ENS_9allocatorIiEEEC2B7v160006Ev, symObjAddr: 0x13A50, symBinAddr: 0x10001AF18, symSize: 0x14 }
  - { offsetInCU: 0x2A90B, offset: 0x5CA09, size: 0x8, addend: 0x0, symName: __ZNSt3__128__exception_guard_exceptionsINS_6vectorIiNS_9allocatorIiEEE16__destroy_vectorEEC1B7v160006ES5_, symObjAddr: 0x13A64, symBinAddr: 0x10001AF2C, symSize: 0x34 }
  - { offsetInCU: 0x2A943, offset: 0x5CA41, size: 0x8, addend: 0x0, symName: __ZNSt3__128__exception_guard_exceptionsINS_6vectorIiNS_9allocatorIiEEE16__destroy_vectorEEC2B7v160006ES5_, symObjAddr: 0x13A98, symBinAddr: 0x10001AF60, symSize: 0x24 }
  - { offsetInCU: 0x2A97B, offset: 0x5CA79, size: 0x8, addend: 0x0, symName: __ZNSt3__16vectorIiNS_9allocatorIiEEE16__destroy_vectorC2ERS3_, symObjAddr: 0x13ABC, symBinAddr: 0x10001AF84, symSize: 0x20 }
  - { offsetInCU: 0x2A9B4, offset: 0x5CAB2, size: 0x8, addend: 0x0, symName: __ZNKSt3__16vectorIiNS_9allocatorIiEEE8max_sizeEv, symObjAddr: 0x13ADC, symBinAddr: 0x10001AFA4, symSize: 0x60 }
  - { offsetInCU: 0x2A9DC, offset: 0x5CADA, size: 0x8, addend: 0x0, symName: __ZNKSt3__16vectorIiNS_9allocatorIiEEE20__throw_length_errorB7v160006Ev, symObjAddr: 0x13B3C, symBinAddr: 0x10001B004, symSize: 0x1C }
  - { offsetInCU: 0x2AA02, offset: 0x5CB00, size: 0x8, addend: 0x0, symName: __ZNSt3__16vectorIiNS_9allocatorIiEEE7__allocB7v160006Ev, symObjAddr: 0x13B98, symBinAddr: 0x10001B060, symSize: 0x28 }
  - { offsetInCU: 0x2AA28, offset: 0x5CB26, size: 0x8, addend: 0x0, symName: __ZNSt3__16vectorIiNS_9allocatorIiEEE9__end_capB7v160006Ev, symObjAddr: 0x13BC0, symBinAddr: 0x10001B088, symSize: 0x28 }
  - { offsetInCU: 0x2AA4E, offset: 0x5CB4C, size: 0x8, addend: 0x0, symName: __ZNKSt3__16vectorIiNS_9allocatorIiEEE14__annotate_newB7v160006Em, symObjAddr: 0x13BE8, symBinAddr: 0x10001B0B0, symSize: 0xAC }
  - { offsetInCU: 0x2AA8D, offset: 0x5CB8B, size: 0x8, addend: 0x0, symName: __ZNSt3__116allocator_traitsINS_9allocatorIiEEE8max_sizeB7v160006IS2_vEEmRKS2_, symObjAddr: 0x13C94, symBinAddr: 0x10001B15C, symSize: 0x24 }
  - { offsetInCU: 0x2AABB, offset: 0x5CBB9, size: 0x8, addend: 0x0, symName: __ZNKSt3__16vectorIiNS_9allocatorIiEEE7__allocB7v160006Ev, symObjAddr: 0x13CB8, symBinAddr: 0x10001B180, symSize: 0x28 }
  - { offsetInCU: 0x2AAE1, offset: 0x5CBDF, size: 0x8, addend: 0x0, symName: __ZNKSt3__19allocatorIiE8max_sizeB7v160006Ev, symObjAddr: 0x13CE0, symBinAddr: 0x10001B1A8, symSize: 0x14 }
  - { offsetInCU: 0x2AB07, offset: 0x5CC05, size: 0x8, addend: 0x0, symName: __ZNKSt3__117__compressed_pairIPiNS_9allocatorIiEEE6secondB7v160006Ev, symObjAddr: 0x13CF4, symBinAddr: 0x10001B1BC, symSize: 0x24 }
  - { offsetInCU: 0x2AB2D, offset: 0x5CC2B, size: 0x8, addend: 0x0, symName: __ZNKSt3__122__compressed_pair_elemINS_9allocatorIiEELi1ELb1EE5__getB7v160006Ev, symObjAddr: 0x13D18, symBinAddr: 0x10001B1E0, symSize: 0x14 }
  - { offsetInCU: 0x2AB53, offset: 0x5CC51, size: 0x8, addend: 0x0, symName: __ZNSt3__19allocatorIiE8allocateB7v160006Em, symObjAddr: 0x13D2C, symBinAddr: 0x10001B1F4, symSize: 0x58 }
  - { offsetInCU: 0x2AB87, offset: 0x5CC85, size: 0x8, addend: 0x0, symName: __ZNSt3__117__compressed_pairIPiNS_9allocatorIiEEE6secondB7v160006Ev, symObjAddr: 0x13D84, symBinAddr: 0x10001B24C, symSize: 0x24 }
  - { offsetInCU: 0x2ABAD, offset: 0x5CCAB, size: 0x8, addend: 0x0, symName: __ZNSt3__122__compressed_pair_elemINS_9allocatorIiEELi1ELb1EE5__getB7v160006Ev, symObjAddr: 0x13DA8, symBinAddr: 0x10001B270, symSize: 0x14 }
  - { offsetInCU: 0x2ABD3, offset: 0x5CCD1, size: 0x8, addend: 0x0, symName: __ZNSt3__117__compressed_pairIPiNS_9allocatorIiEEE5firstB7v160006Ev, symObjAddr: 0x13DBC, symBinAddr: 0x10001B284, symSize: 0x24 }
  - { offsetInCU: 0x2ABF9, offset: 0x5CCF7, size: 0x8, addend: 0x0, symName: __ZNSt3__122__compressed_pair_elemIPiLi0ELb0EE5__getB7v160006Ev, symObjAddr: 0x13DE0, symBinAddr: 0x10001B2A8, symSize: 0x14 }
  - { offsetInCU: 0x2AC1F, offset: 0x5CD1D, size: 0x8, addend: 0x0, symName: __ZNKSt3__16vectorIiNS_9allocatorIiEEE31__annotate_contiguous_containerB7v160006EPKvS5_S5_S5_, symObjAddr: 0x13DF4, symBinAddr: 0x10001B2BC, symSize: 0x20 }
  - { offsetInCU: 0x2AC75, offset: 0x5CD73, size: 0x8, addend: 0x0, symName: __ZNKSt3__16vectorIiNS_9allocatorIiEEE4dataB7v160006Ev, symObjAddr: 0x13E14, symBinAddr: 0x10001B2DC, symSize: 0x28 }
  - { offsetInCU: 0x2AC9B, offset: 0x5CD99, size: 0x8, addend: 0x0, symName: __ZNKSt3__16vectorIiNS_9allocatorIiEEE8capacityB7v160006Ev, symObjAddr: 0x13E3C, symBinAddr: 0x10001B304, symSize: 0x40 }
  - { offsetInCU: 0x2ACC1, offset: 0x5CDBF, size: 0x8, addend: 0x0, symName: __ZNKSt3__16vectorIiNS_9allocatorIiEEE9__end_capB7v160006Ev, symObjAddr: 0x13E90, symBinAddr: 0x10001B358, symSize: 0x28 }
  - { offsetInCU: 0x2ACE7, offset: 0x5CDE5, size: 0x8, addend: 0x0, symName: __ZNKSt3__117__compressed_pairIPiNS_9allocatorIiEEE5firstB7v160006Ev, symObjAddr: 0x13EB8, symBinAddr: 0x10001B380, symSize: 0x24 }
  - { offsetInCU: 0x2AD0D, offset: 0x5CE0B, size: 0x8, addend: 0x0, symName: __ZNKSt3__122__compressed_pair_elemIPiLi0ELb0EE5__getB7v160006Ev, symObjAddr: 0x13EDC, symBinAddr: 0x10001B3A4, symSize: 0x14 }
  - { offsetInCU: 0x2AD4C, offset: 0x5CE4A, size: 0x8, addend: 0x0, symName: __ZNSt3__16vectorIiNS_9allocatorIiEEE21_ConstructTransactionC1B7v160006ERS3_m, symObjAddr: 0x13EF0, symBinAddr: 0x10001B3B8, symSize: 0x3C }
  - { offsetInCU: 0x2AD94, offset: 0x5CE92, size: 0x8, addend: 0x0, symName: __ZNSt3__16vectorIiNS_9allocatorIiEEE21_ConstructTransactionD1B7v160006Ev, symObjAddr: 0x13F64, symBinAddr: 0x10001B42C, symSize: 0x2C }
  - { offsetInCU: 0x2ADBE, offset: 0x5CEBC, size: 0x8, addend: 0x0, symName: __ZNSt3__16vectorIiNS_9allocatorIiEEE21_ConstructTransactionC2B7v160006ERS3_m, symObjAddr: 0x13F90, symBinAddr: 0x10001B458, symSize: 0x44 }
  - { offsetInCU: 0x2AE29, offset: 0x5CF27, size: 0x8, addend: 0x0, symName: __ZNKSt3__114__copy_trivialclB7v160006IKiiLi0EEENS_4pairIPT_PT0_EES5_S5_S7_, symObjAddr: 0x141B0, symBinAddr: 0x10001B678, symSize: 0x48 }
  - { offsetInCU: 0x2AEAF, offset: 0x5CFAD, size: 0x8, addend: 0x0, symName: __ZNSt3__14pairIPKiS2_EC1B7v160006IS2_S2_LPv0EEEOT_OT0_, symObjAddr: 0x14318, symBinAddr: 0x10001B7E0, symSize: 0x3C }
  - { offsetInCU: 0x2AF0D, offset: 0x5D00B, size: 0x8, addend: 0x0, symName: __ZNSt3__14pairIPKiS2_EC2B7v160006IS2_S2_LPv0EEEOT_OT0_, symObjAddr: 0x14354, symBinAddr: 0x10001B81C, symSize: 0x34 }
  - { offsetInCU: 0x2AF6B, offset: 0x5D069, size: 0x8, addend: 0x0, symName: __ZNSt3__118__unwrap_iter_implIPKiLb1EE8__unwrapB7v160006ES2_, symObjAddr: 0x14388, symBinAddr: 0x10001B850, symSize: 0x24 }
  - { offsetInCU: 0x2AF98, offset: 0x5D096, size: 0x8, addend: 0x0, symName: __ZNSt3__14pairIPKiPiEC1B7v160006IRS2_S3_LPv0EEEOT_OT0_, symObjAddr: 0x1447C, symBinAddr: 0x10001B944, symSize: 0x3C }
  - { offsetInCU: 0x2AFF6, offset: 0x5D0F4, size: 0x8, addend: 0x0, symName: __ZNSt3__14pairIPKiPiEC2B7v160006IRS2_S3_LPv0EEEOT_OT0_, symObjAddr: 0x144B8, symBinAddr: 0x10001B980, symSize: 0x34 }
  - { offsetInCU: 0x2B054, offset: 0x5D152, size: 0x8, addend: 0x0, symName: __ZNSt3__118__unwrap_iter_implIPiLb1EE8__unwrapB7v160006ES1_, symObjAddr: 0x144EC, symBinAddr: 0x10001B9B4, symSize: 0x24 }
  - { offsetInCU: 0x2B077, offset: 0x5D175, size: 0x8, addend: 0x0, symName: __ZNSt3__14pairIPKiPiEC1B7v160006IS2_S3_LPv0EEEOT_OT0_, symObjAddr: 0x14510, symBinAddr: 0x10001B9D8, symSize: 0x3C }
  - { offsetInCU: 0x2B0D5, offset: 0x5D1D3, size: 0x8, addend: 0x0, symName: __ZNSt3__14pairIPKiPiEC2B7v160006IS2_S3_LPv0EEEOT_OT0_, symObjAddr: 0x1454C, symBinAddr: 0x10001BA14, symSize: 0x34 }
  - { offsetInCU: 0x2B133, offset: 0x5D231, size: 0x8, addend: 0x0, symName: __ZNSt3__118__unwrap_iter_implIPKiLb1EE8__rewrapB7v160006ES2_S2_, symObjAddr: 0x145BC, symBinAddr: 0x10001BA84, symSize: 0x50 }
  - { offsetInCU: 0x2B164, offset: 0x5D262, size: 0x8, addend: 0x0, symName: __ZNSt3__118__unwrap_iter_implIPiLb1EE8__rewrapB7v160006ES1_S1_, symObjAddr: 0x1460C, symBinAddr: 0x10001BAD4, symSize: 0x50 }
  - { offsetInCU: 0x2B195, offset: 0x5D293, size: 0x8, addend: 0x0, symName: __ZNSt3__16vectorIiNS_9allocatorIiEEE21_ConstructTransactionD2B7v160006Ev, symObjAddr: 0x1465C, symBinAddr: 0x10001BB24, symSize: 0x20 }
  - { offsetInCU: 0x2B1BF, offset: 0x5D2BD, size: 0x8, addend: 0x0, symName: __ZNSt3__128__exception_guard_exceptionsINS_6vectorIiNS_9allocatorIiEEE16__destroy_vectorEED2B7v160006Ev, symObjAddr: 0x1467C, symBinAddr: 0x10001BB44, symSize: 0x50 }
  - { offsetInCU: 0x2B1E9, offset: 0x5D2E7, size: 0x8, addend: 0x0, symName: __ZNSt3__16vectorIiNS_9allocatorIiEEE16__destroy_vectorclB7v160006Ev, symObjAddr: 0x146CC, symBinAddr: 0x10001BB94, symSize: 0x9C }
  - { offsetInCU: 0x2B20F, offset: 0x5D30D, size: 0x8, addend: 0x0, symName: __ZNKSt3__16vectorIiNS_9allocatorIiEEE17__annotate_deleteB7v160006Ev, symObjAddr: 0x14768, symBinAddr: 0x10001BC30, symSize: 0xB8 }
  - { offsetInCU: 0x2B235, offset: 0x5D333, size: 0x8, addend: 0x0, symName: __ZNSt3__16vectorIiNS_9allocatorIiEEE7__clearB7v160006Ev, symObjAddr: 0x14830, symBinAddr: 0x10001BCF8, symSize: 0x28 }
  - { offsetInCU: 0x2B25B, offset: 0x5D359, size: 0x8, addend: 0x0, symName: __ZNSt3__116allocator_traitsINS_9allocatorIiEEE10deallocateB7v160006ERS2_Pim, symObjAddr: 0x14858, symBinAddr: 0x10001BD20, symSize: 0x34 }
  - { offsetInCU: 0x2B29D, offset: 0x5D39B, size: 0x8, addend: 0x0, symName: __ZNKSt3__16vectorIiNS_9allocatorIiEEE4sizeB7v160006Ev, symObjAddr: 0x1488C, symBinAddr: 0x10001BD54, symSize: 0x28 }
  - { offsetInCU: 0x2B2C3, offset: 0x5D3C1, size: 0x8, addend: 0x0, symName: __ZNSt3__16vectorIiNS_9allocatorIiEEE22__base_destruct_at_endB7v160006EPi, symObjAddr: 0x148B4, symBinAddr: 0x10001BD7C, symSize: 0x8C }
  - { offsetInCU: 0x2B307, offset: 0x5D405, size: 0x8, addend: 0x0, symName: __ZNSt3__116allocator_traitsINS_9allocatorIiEEE7destroyB7v160006IivEEvRS2_PT_, symObjAddr: 0x14940, symBinAddr: 0x10001BE08, symSize: 0x2C }
  - { offsetInCU: 0x2B344, offset: 0x5D442, size: 0x8, addend: 0x0, symName: __ZNSt3__19allocatorIiE7destroyB7v160006EPi, symObjAddr: 0x1496C, symBinAddr: 0x10001BE34, symSize: 0x14 }
  - { offsetInCU: 0x2B378, offset: 0x5D476, size: 0x8, addend: 0x0, symName: __ZNSt3__19allocatorIiE10deallocateB7v160006EPim, symObjAddr: 0x14980, symBinAddr: 0x10001BE48, symSize: 0x40 }
  - { offsetInCU: 0x2B3BA, offset: 0x5D4B8, size: 0x8, addend: 0x0, symName: __ZNSt3__16vectorIiNS_9allocatorIiEEED2B7v160006Ev, symObjAddr: 0x149C0, symBinAddr: 0x10001BE88, symSize: 0x44 }
  - { offsetInCU: 0x2B3E4, offset: 0x5D4E2, size: 0x8, addend: 0x0, symName: __ZNSt3__16vectorINS_12basic_stringIcNS_11char_traitsIcEENS_9allocatorIcEEEENS4_IS6_EEEC2ERKS8_, symObjAddr: 0x14A04, symBinAddr: 0x10001BECC, symSize: 0x110 }
  - { offsetInCU: 0x2B444, offset: 0x5D542, size: 0x8, addend: 0x0, symName: __ZNSt3__116allocator_traitsINS_9allocatorINS_12basic_stringIcNS_11char_traitsIcEENS1_IcEEEEEEE37select_on_container_copy_constructionB7v160006IS7_vvEES7_RKS7_, symObjAddr: 0x14B14, symBinAddr: 0x10001BFDC, symSize: 0x10 }
  - { offsetInCU: 0x2B478, offset: 0x5D576, size: 0x8, addend: 0x0, symName: __ZNSt3__117__compressed_pairIPNS_12basic_stringIcNS_11char_traitsIcEENS_9allocatorIcEEEENS4_IS6_EEEC1B7v160006IDnS8_EEOT_OT0_, symObjAddr: 0x14B24, symBinAddr: 0x10001BFEC, symSize: 0x3C }
  - { offsetInCU: 0x2B4D0, offset: 0x5D5CE, size: 0x8, addend: 0x0, symName: __ZNSt3__16vectorINS_12basic_stringIcNS_11char_traitsIcEENS_9allocatorIcEEEENS4_IS6_EEE18__construct_at_endIPS6_Li0EEEvT_SB_m, symObjAddr: 0x14B60, symBinAddr: 0x10001C028, symSize: 0x8C }
  - { offsetInCU: 0x2B543, offset: 0x5D641, size: 0x8, addend: 0x0, symName: __ZNSt3__117__compressed_pairIPNS_12basic_stringIcNS_11char_traitsIcEENS_9allocatorIcEEEENS4_IS6_EEEC2B7v160006IDnS8_EEOT_OT0_, symObjAddr: 0x14BEC, symBinAddr: 0x10001C0B4, symSize: 0x44 }
  - { offsetInCU: 0x2B59B, offset: 0x5D699, size: 0x8, addend: 0x0, symName: __ZNSt3__122__compressed_pair_elemINS_9allocatorINS_12basic_stringIcNS_11char_traitsIcEENS1_IcEEEEEELi1ELb1EEC2B7v160006IS7_vEEOT_, symObjAddr: 0x14C30, symBinAddr: 0x10001C0F8, symSize: 0x18 }
  - { offsetInCU: 0x2B5DD, offset: 0x5D6DB, size: 0x8, addend: 0x0, symName: __ZNSt3__116allocator_traitsINS_9allocatorINS_12basic_stringIcNS_11char_traitsIcEENS1_IcEEEEEEE9constructB7v160006IS6_JRS6_EvEEvRS7_PT_DpOT0_, symObjAddr: 0x14D3C, symBinAddr: 0x10001C204, symSize: 0x34 }
  - { offsetInCU: 0x2B634, offset: 0x5D732, size: 0x8, addend: 0x0, symName: __ZNSt3__19allocatorINS_12basic_stringIcNS_11char_traitsIcEENS0_IcEEEEE9constructB7v160006IS5_JRS5_EEEvPT_DpOT0_, symObjAddr: 0x14D70, symBinAddr: 0x10001C238, symSize: 0x30 }
  - { offsetInCU: 0x2B68A, offset: 0x5D788, size: 0x8, addend: 0x0, symName: __ZNSt3__16vectorIiNS_9allocatorIiEEEC2ERKS3_, symObjAddr: 0x14DA0, symBinAddr: 0x10001C268, symSize: 0x110 }
  - { offsetInCU: 0x2B6EA, offset: 0x5D7E8, size: 0x8, addend: 0x0, symName: __ZNSt3__116allocator_traitsINS_9allocatorIiEEE37select_on_container_copy_constructionB7v160006IS2_vvEES2_RKS2_, symObjAddr: 0x14EB0, symBinAddr: 0x10001C378, symSize: 0x10 }
  - { offsetInCU: 0x2B71E, offset: 0x5D81C, size: 0x8, addend: 0x0, symName: __ZNSt3__117__compressed_pairIPiNS_9allocatorIiEEEC1B7v160006IDnS3_EEOT_OT0_, symObjAddr: 0x14EC0, symBinAddr: 0x10001C388, symSize: 0x3C }
  - { offsetInCU: 0x2B776, offset: 0x5D874, size: 0x8, addend: 0x0, symName: __ZNSt3__16vectorIiNS_9allocatorIiEEE18__construct_at_endIPiLi0EEEvT_S6_m, symObjAddr: 0x14EFC, symBinAddr: 0x10001C3C4, symSize: 0x8C }
  - { offsetInCU: 0x2B7E9, offset: 0x5D8E7, size: 0x8, addend: 0x0, symName: __ZNSt3__117__compressed_pairIPiNS_9allocatorIiEEEC2B7v160006IDnS3_EEOT_OT0_, symObjAddr: 0x14F88, symBinAddr: 0x10001C450, symSize: 0x44 }
  - { offsetInCU: 0x2B841, offset: 0x5D93F, size: 0x8, addend: 0x0, symName: __ZNSt3__122__compressed_pair_elemINS_9allocatorIiEELi1ELb1EEC2B7v160006IS2_vEEOT_, symObjAddr: 0x14FCC, symBinAddr: 0x10001C494, symSize: 0x18 }
  - { offsetInCU: 0x2B883, offset: 0x5D981, size: 0x8, addend: 0x0, symName: __ZNSt3__129_AllocatorDestroyRangeReverseINS_9allocatorIiEEPiEC1B7v160006ERS2_RS3_S6_, symObjAddr: 0x15124, symBinAddr: 0x10001C5EC, symSize: 0x44 }
  - { offsetInCU: 0x2B8DA, offset: 0x5D9D8, size: 0x8, addend: 0x0, symName: __ZNSt3__116allocator_traitsINS_9allocatorIiEEE9constructB7v160006IiJRiEvEEvRS2_PT_DpOT0_, symObjAddr: 0x15168, symBinAddr: 0x10001C630, symSize: 0x34 }
  - { offsetInCU: 0x2B931, offset: 0x5DA2F, size: 0x8, addend: 0x0, symName: __ZNSt3__128__exception_guard_exceptionsINS_29_AllocatorDestroyRangeReverseINS_9allocatorIiEEPiEEE10__completeB7v160006Ev, symObjAddr: 0x1519C, symBinAddr: 0x10001C664, symSize: 0x1C }
  - { offsetInCU: 0x2B957, offset: 0x5DA55, size: 0x8, addend: 0x0, symName: __ZNSt3__128__exception_guard_exceptionsINS_29_AllocatorDestroyRangeReverseINS_9allocatorIiEEPiEEED1B7v160006Ev, symObjAddr: 0x151B8, symBinAddr: 0x10001C680, symSize: 0x2C }
  - { offsetInCU: 0x2B981, offset: 0x5DA7F, size: 0x8, addend: 0x0, symName: __ZNSt3__128__exception_guard_exceptionsINS_29_AllocatorDestroyRangeReverseINS_9allocatorIiEEPiEEEC1B7v160006ES5_, symObjAddr: 0x151E4, symBinAddr: 0x10001C6AC, symSize: 0x34 }
  - { offsetInCU: 0x2B9BA, offset: 0x5DAB8, size: 0x8, addend: 0x0, symName: __ZNSt3__128__exception_guard_exceptionsINS_29_AllocatorDestroyRangeReverseINS_9allocatorIiEEPiEEEC2B7v160006ES5_, symObjAddr: 0x15218, symBinAddr: 0x10001C6E0, symSize: 0x30 }
  - { offsetInCU: 0x2B9F3, offset: 0x5DAF1, size: 0x8, addend: 0x0, symName: __ZNSt3__129_AllocatorDestroyRangeReverseINS_9allocatorIiEEPiEC2B7v160006ERS2_RS3_S6_, symObjAddr: 0x15248, symBinAddr: 0x10001C710, symSize: 0x38 }
  - { offsetInCU: 0x2BA4A, offset: 0x5DB48, size: 0x8, addend: 0x0, symName: __ZNSt3__19allocatorIiE9constructB7v160006IiJRiEEEvPT_DpOT0_, symObjAddr: 0x15280, symBinAddr: 0x10001C748, symSize: 0x28 }
  - { offsetInCU: 0x2BAA0, offset: 0x5DB9E, size: 0x8, addend: 0x0, symName: __ZNSt3__128__exception_guard_exceptionsINS_29_AllocatorDestroyRangeReverseINS_9allocatorIiEEPiEEED2B7v160006Ev, symObjAddr: 0x152A8, symBinAddr: 0x10001C770, symSize: 0x50 }
  - { offsetInCU: 0x2BACA, offset: 0x5DBC8, size: 0x8, addend: 0x0, symName: __ZNKSt3__129_AllocatorDestroyRangeReverseINS_9allocatorIiEEPiEclB7v160006Ev, symObjAddr: 0x152F8, symBinAddr: 0x10001C7C0, symSize: 0x68 }
  - { offsetInCU: 0x2BAF0, offset: 0x5DBEE, size: 0x8, addend: 0x0, symName: __ZNSt3__116reverse_iteratorIPiEC1B7v160006ES1_, symObjAddr: 0x153D0, symBinAddr: 0x10001C898, symSize: 0x34 }
  - { offsetInCU: 0x2BB28, offset: 0x5DC26, size: 0x8, addend: 0x0, symName: __ZNSt3__116reverse_iteratorIPiEppB7v160006Ev, symObjAddr: 0x15470, symBinAddr: 0x10001C938, symSize: 0x20 }
  - { offsetInCU: 0x2BB4E, offset: 0x5DC4C, size: 0x8, addend: 0x0, symName: __ZNKSt3__116reverse_iteratorIPiE4baseB7v160006Ev, symObjAddr: 0x15490, symBinAddr: 0x10001C958, symSize: 0x18 }
  - { offsetInCU: 0x2BB79, offset: 0x5DC77, size: 0x8, addend: 0x0, symName: __ZNSt3__119__to_address_helperINS_16reverse_iteratorIPiEEvE6__callB7v160006ERKS3_, symObjAddr: 0x154A8, symBinAddr: 0x10001C970, symSize: 0x38 }
  - { offsetInCU: 0x2BB9C, offset: 0x5DC9A, size: 0x8, addend: 0x0, symName: __ZNKSt3__116reverse_iteratorIPiEptB7v160006Ev, symObjAddr: 0x154E0, symBinAddr: 0x10001C9A8, symSize: 0x24 }
  - { offsetInCU: 0x2BBC2, offset: 0x5DCC0, size: 0x8, addend: 0x0, symName: __ZNKSt3__116reverse_iteratorIPiEdeB7v160006Ev, symObjAddr: 0x15504, symBinAddr: 0x10001C9CC, symSize: 0x28 }
  - { offsetInCU: 0x2BBF6, offset: 0x5DCF4, size: 0x8, addend: 0x0, symName: __ZNSt3__116reverse_iteratorIPiEC2B7v160006ES1_, symObjAddr: 0x1552C, symBinAddr: 0x10001C9F4, symSize: 0x28 }
  - { offsetInCU: 0x2BC2E, offset: 0x5DD2C, size: 0x8, addend: 0x0, symName: __ZNSt3__19allocatorI8MainMenuEC1B7v160006Ev, symObjAddr: 0x155EC, symBinAddr: 0x10001CAB4, symSize: 0x2C }
  - { offsetInCU: 0x2BC94, offset: 0x5DD92, size: 0x8, addend: 0x0, symName: __ZNSt3__118__allocation_guardINS_9allocatorINS_20__shared_ptr_emplaceI8MainMenuNS1_IS3_EEEEEEEC1B7v160006IS4_EET_m, symObjAddr: 0x15618, symBinAddr: 0x10001CAE0, symSize: 0x34 }
  - { offsetInCU: 0x2BCE3, offset: 0x5DDE1, size: 0x8, addend: 0x0, symName: __ZNKSt3__118__allocation_guardINS_9allocatorINS_20__shared_ptr_emplaceI8MainMenuNS1_IS3_EEEEEEE5__getB7v160006Ev, symObjAddr: 0x1564C, symBinAddr: 0x10001CB14, symSize: 0x18 }
  - { offsetInCU: 0x2BD0E, offset: 0x5DE0C, size: 0x8, addend: 0x0, symName: __ZNSt3__120__shared_ptr_emplaceI8MainMenuNS_9allocatorIS1_EEEC1B7v160006IJS1_EEES3_DpOT_, symObjAddr: 0x15664, symBinAddr: 0x10001CB2C, symSize: 0x34 }
  - { offsetInCU: 0x2BD61, offset: 0x5DE5F, size: 0x8, addend: 0x0, symName: __ZNSt3__118__allocation_guardINS_9allocatorINS_20__shared_ptr_emplaceI8MainMenuNS1_IS3_EEEEEEE13__release_ptrB7v160006Ev, symObjAddr: 0x15698, symBinAddr: 0x10001CB60, symSize: 0x24 }
  - { offsetInCU: 0x2BD95, offset: 0x5DE93, size: 0x8, addend: 0x0, symName: __ZNSt3__110shared_ptrI8MainMenuE27__create_with_control_blockB7v160006IS1_NS_20__shared_ptr_emplaceIS1_NS_9allocatorIS1_EEEEEES2_PT_PT0_, symObjAddr: 0x156BC, symBinAddr: 0x10001CB84, symSize: 0xA4 }
  - { offsetInCU: 0x2BDEA, offset: 0x5DEE8, size: 0x8, addend: 0x0, symName: __ZNSt3__120__shared_ptr_emplaceI8MainMenuNS_9allocatorIS1_EEE10__get_elemB7v160006Ev, symObjAddr: 0x15760, symBinAddr: 0x10001CC28, symSize: 0x28 }
  - { offsetInCU: 0x2BE10, offset: 0x5DF0E, size: 0x8, addend: 0x0, symName: __ZNSt3__118__allocation_guardINS_9allocatorINS_20__shared_ptr_emplaceI8MainMenuNS1_IS3_EEEEEEED1B7v160006Ev, symObjAddr: 0x15788, symBinAddr: 0x10001CC50, symSize: 0x2C }
  - { offsetInCU: 0x2BE3A, offset: 0x5DF38, size: 0x8, addend: 0x0, symName: __ZNSt3__118__allocation_guardINS_9allocatorINS_20__shared_ptr_emplaceI8MainMenuNS1_IS3_EEEEEEEC2B7v160006IS4_EET_m, symObjAddr: 0x157B4, symBinAddr: 0x10001CC7C, symSize: 0x50 }
  - { offsetInCU: 0x2BE89, offset: 0x5DF87, size: 0x8, addend: 0x0, symName: __ZNSt3__19allocatorINS_20__shared_ptr_emplaceI8MainMenuNS0_IS2_EEEEEC1B7v160006IS2_EERKNS0_IT_EE, symObjAddr: 0x15804, symBinAddr: 0x10001CCCC, symSize: 0x34 }
  - { offsetInCU: 0x2BEC6, offset: 0x5DFC4, size: 0x8, addend: 0x0, symName: __ZNSt3__116allocator_traitsINS_9allocatorINS_20__shared_ptr_emplaceI8MainMenuNS1_IS3_EEEEEEE8allocateB7v160006ERS6_m, symObjAddr: 0x15838, symBinAddr: 0x10001CD00, symSize: 0x2C }
  - { offsetInCU: 0x2BEF9, offset: 0x5DFF7, size: 0x8, addend: 0x0, symName: __ZNSt3__19allocatorINS_20__shared_ptr_emplaceI8MainMenuNS0_IS2_EEEEEC2B7v160006IS2_EERKNS0_IT_EE, symObjAddr: 0x15864, symBinAddr: 0x10001CD2C, symSize: 0x30 }
  - { offsetInCU: 0x2BF36, offset: 0x5E034, size: 0x8, addend: 0x0, symName: __ZNSt3__116__non_trivial_ifILb1ENS_9allocatorINS_20__shared_ptr_emplaceI8MainMenuNS1_IS3_EEEEEEEC2B7v160006Ev, symObjAddr: 0x15894, symBinAddr: 0x10001CD5C, symSize: 0x14 }
  - { offsetInCU: 0x2BF60, offset: 0x5E05E, size: 0x8, addend: 0x0, symName: __ZNSt3__19allocatorINS_20__shared_ptr_emplaceI8MainMenuNS0_IS2_EEEEE8allocateB7v160006Em, symObjAddr: 0x158A8, symBinAddr: 0x10001CD70, symSize: 0x5C }
  - { offsetInCU: 0x2BF9E, offset: 0x5E09C, size: 0x8, addend: 0x0, symName: __ZNSt3__116allocator_traitsINS_9allocatorINS_20__shared_ptr_emplaceI8MainMenuNS1_IS3_EEEEEEE8max_sizeB7v160006IS6_vEEmRKS6_, symObjAddr: 0x15904, symBinAddr: 0x10001CDCC, symSize: 0x24 }
  - { offsetInCU: 0x2BFCC, offset: 0x5E0CA, size: 0x8, addend: 0x0, symName: __ZNKSt3__19allocatorINS_20__shared_ptr_emplaceI8MainMenuNS0_IS2_EEEEE8max_sizeB7v160006Ev, symObjAddr: 0x15928, symBinAddr: 0x10001CDF0, symSize: 0x18 }
  - { offsetInCU: 0x2BFF2, offset: 0x5E0F0, size: 0x8, addend: 0x0, symName: __ZNSt3__120__shared_ptr_emplaceI8MainMenuNS_9allocatorIS1_EEEC2B7v160006IJS1_EEES3_DpOT_, symObjAddr: 0x15940, symBinAddr: 0x10001CE08, symSize: 0x94 }
  - { offsetInCU: 0x2C045, offset: 0x5E143, size: 0x8, addend: 0x0, symName: __ZNSt3__120__shared_ptr_emplaceI8MainMenuNS_9allocatorIS1_EEE8_StorageC1B7v160006EOS3_, symObjAddr: 0x159D4, symBinAddr: 0x10001CE9C, symSize: 0x34 }
  - { offsetInCU: 0x2C07E, offset: 0x5E17C, size: 0x8, addend: 0x0, symName: __ZN8MainMenuC1EOS_, symObjAddr: 0x15A08, symBinAddr: 0x10001CED0, symSize: 0x34 }
  - { offsetInCU: 0x2C0B3, offset: 0x5E1B1, size: 0x8, addend: 0x0, symName: __ZNSt3__120__shared_ptr_emplaceI8MainMenuNS_9allocatorIS1_EEED1Ev, symObjAddr: 0x15A3C, symBinAddr: 0x10001CF04, symSize: 0x2C }
  - { offsetInCU: 0x2C0E0, offset: 0x5E1DE, size: 0x8, addend: 0x0, symName: __ZNSt3__120__shared_ptr_emplaceI8MainMenuNS_9allocatorIS1_EEED0Ev, symObjAddr: 0x15A68, symBinAddr: 0x10001CF30, symSize: 0x30 }
  - { offsetInCU: 0x2C10D, offset: 0x5E20B, size: 0x8, addend: 0x0, symName: __ZNSt3__120__shared_ptr_emplaceI8MainMenuNS_9allocatorIS1_EEE16__on_zero_sharedEv, symObjAddr: 0x15A98, symBinAddr: 0x10001CF60, symSize: 0x28 }
  - { offsetInCU: 0x2C133, offset: 0x5E231, size: 0x8, addend: 0x0, symName: __ZNSt3__120__shared_ptr_emplaceI8MainMenuNS_9allocatorIS1_EEE21__on_zero_shared_weakEv, symObjAddr: 0x15AC0, symBinAddr: 0x10001CF88, symSize: 0x5C }
  - { offsetInCU: 0x2C174, offset: 0x5E272, size: 0x8, addend: 0x0, symName: __ZNSt3__120__shared_ptr_emplaceI8MainMenuNS_9allocatorIS1_EEE8_StorageC2B7v160006EOS3_, symObjAddr: 0x15B1C, symBinAddr: 0x10001CFE4, symSize: 0x30 }
  - { offsetInCU: 0x2C1AD, offset: 0x5E2AB, size: 0x8, addend: 0x0, symName: __ZNSt3__120__shared_ptr_emplaceI8MainMenuNS_9allocatorIS1_EEE8_Storage11__get_allocEv, symObjAddr: 0x15B4C, symBinAddr: 0x10001D014, symSize: 0x3C }
  - { offsetInCU: 0x2C200, offset: 0x5E2FE, size: 0x8, addend: 0x0, symName: __ZNSt3__117__compressed_pairINS_9allocatorI8MainMenuEES2_E16__get_first_baseB7v160006EPS4_, symObjAddr: 0x15B88, symBinAddr: 0x10001D050, symSize: 0x14 }
  - { offsetInCU: 0x2C223, offset: 0x5E321, size: 0x8, addend: 0x0, symName: __ZN8MainMenuC2EOS_, symObjAddr: 0x15B9C, symBinAddr: 0x10001D064, symSize: 0x4C }
  - { offsetInCU: 0x2C25D, offset: 0x5E35B, size: 0x8, addend: 0x0, symName: __ZN4MenuC2EOS_, symObjAddr: 0x15BE8, symBinAddr: 0x10001D0B0, symSize: 0x78 }
  - { offsetInCU: 0x2C292, offset: 0x5E390, size: 0x8, addend: 0x0, symName: __ZNSt3__16vectorINS_12basic_stringIcNS_11char_traitsIcEENS_9allocatorIcEEEENS4_IS6_EEEC1B7v160006EOS8_, symObjAddr: 0x15C60, symBinAddr: 0x10001D128, symSize: 0x34 }
  - { offsetInCU: 0x2C2CD, offset: 0x5E3CB, size: 0x8, addend: 0x0, symName: __ZNSt3__16vectorIiNS_9allocatorIiEEEC1B7v160006EOS3_, symObjAddr: 0x15C94, symBinAddr: 0x10001D15C, symSize: 0x34 }
  - { offsetInCU: 0x2C308, offset: 0x5E406, size: 0x8, addend: 0x0, symName: __ZNSt3__16vectorINS_12basic_stringIcNS_11char_traitsIcEENS_9allocatorIcEEEENS4_IS6_EEEC2B7v160006EOS8_, symObjAddr: 0x15CC8, symBinAddr: 0x10001D190, symSize: 0xDC }
  - { offsetInCU: 0x2C343, offset: 0x5E441, size: 0x8, addend: 0x0, symName: __ZNSt3__16vectorIiNS_9allocatorIiEEEC2B7v160006EOS3_, symObjAddr: 0x15DB8, symBinAddr: 0x10001D280, symSize: 0xDC }
  - { offsetInCU: 0x2C37E, offset: 0x5E47C, size: 0x8, addend: 0x0, symName: __ZNSt3__120__shared_ptr_emplaceI8MainMenuNS_9allocatorIS1_EEED2Ev, symObjAddr: 0x15EA8, symBinAddr: 0x10001D370, symSize: 0x48 }
  - { offsetInCU: 0x2C3AB, offset: 0x5E4A9, size: 0x8, addend: 0x0, symName: __ZNSt3__120__shared_ptr_emplaceI8MainMenuNS_9allocatorIS1_EEE8_StorageD1B7v160006Ev, symObjAddr: 0x15EF0, symBinAddr: 0x10001D3B8, symSize: 0x2C }
  - { offsetInCU: 0x2C3D5, offset: 0x5E4D3, size: 0x8, addend: 0x0, symName: __ZNSt3__120__shared_ptr_emplaceI8MainMenuNS_9allocatorIS1_EEE8_StorageD2B7v160006Ev, symObjAddr: 0x15F1C, symBinAddr: 0x10001D3E4, symSize: 0x2C }
  - { offsetInCU: 0x2C3FF, offset: 0x5E4FD, size: 0x8, addend: 0x0, symName: __ZNSt3__120__shared_ptr_emplaceI8MainMenuNS_9allocatorIS1_EEE11__get_allocB7v160006Ev, symObjAddr: 0x15F48, symBinAddr: 0x10001D410, symSize: 0x28 }
  - { offsetInCU: 0x2C425, offset: 0x5E523, size: 0x8, addend: 0x0, symName: __ZNSt3__116allocator_traitsINS_9allocatorINS_20__shared_ptr_emplaceI8MainMenuNS1_IS3_EEEEEEE10deallocateB7v160006ERS6_PS5_m, symObjAddr: 0x15F70, symBinAddr: 0x10001D438, symSize: 0x34 }
  - { offsetInCU: 0x2C467, offset: 0x5E565, size: 0x8, addend: 0x0, symName: __ZNSt3__114pointer_traitsIPNS_20__shared_ptr_emplaceI8MainMenuNS_9allocatorIS2_EEEEE10pointer_toB7v160006ERS5_, symObjAddr: 0x15FA4, symBinAddr: 0x10001D46C, symSize: 0x14 }
  - { offsetInCU: 0x2C48A, offset: 0x5E588, size: 0x8, addend: 0x0, symName: __ZNSt3__19allocatorINS_20__shared_ptr_emplaceI8MainMenuNS0_IS2_EEEEE10deallocateB7v160006EPS4_m, symObjAddr: 0x15FB8, symBinAddr: 0x10001D480, symSize: 0x44 }
  - { offsetInCU: 0x2C4CC, offset: 0x5E5CA, size: 0x8, addend: 0x0, symName: __ZNSt3__110shared_ptrI8MainMenuEC1B7v160006Ev, symObjAddr: 0x15FFC, symBinAddr: 0x10001D4C4, symSize: 0x2C }
  - { offsetInCU: 0x2C4F6, offset: 0x5E5F4, size: 0x8, addend: 0x0, symName: __ZNSt3__110shared_ptrI8MainMenuE18__enable_weak_thisB7v160006Ez, symObjAddr: 0x16028, symBinAddr: 0x10001D4F0, symSize: 0x10 }
  - { offsetInCU: 0x2C51D, offset: 0x5E61B, size: 0x8, addend: 0x0, symName: __ZNSt3__110shared_ptrI8MainMenuEC2B7v160006Ev, symObjAddr: 0x16038, symBinAddr: 0x10001D500, symSize: 0x1C }
  - { offsetInCU: 0x2C547, offset: 0x5E645, size: 0x8, addend: 0x0, symName: __ZNSt3__120__shared_ptr_emplaceI8MainMenuNS_9allocatorIS1_EEE8_Storage10__get_elemEv, symObjAddr: 0x16054, symBinAddr: 0x10001D51C, symSize: 0x3C }
  - { offsetInCU: 0x2C59A, offset: 0x5E698, size: 0x8, addend: 0x0, symName: __ZNSt3__117__compressed_pairINS_9allocatorI8MainMenuEES2_E17__get_second_baseB7v160006EPS4_, symObjAddr: 0x16090, symBinAddr: 0x10001D558, symSize: 0x14 }
  - { offsetInCU: 0x2C5BD, offset: 0x5E6BB, size: 0x8, addend: 0x0, symName: __ZNSt3__118__allocation_guardINS_9allocatorINS_20__shared_ptr_emplaceI8MainMenuNS1_IS3_EEEEEEED2B7v160006Ev, symObjAddr: 0x160A4, symBinAddr: 0x10001D56C, symSize: 0x58 }
  - { offsetInCU: 0x2C5E7, offset: 0x5E6E5, size: 0x8, addend: 0x0, symName: __ZNSt3__19allocatorI8MainMenuEC2B7v160006Ev, symObjAddr: 0x160FC, symBinAddr: 0x10001D5C4, symSize: 0x2C }
  - { offsetInCU: 0x2C611, offset: 0x5E70F, size: 0x8, addend: 0x0, symName: __ZNSt3__116__non_trivial_ifILb1ENS_9allocatorI8MainMenuEEEC2B7v160006Ev, symObjAddr: 0x16128, symBinAddr: 0x10001D5F0, symSize: 0x14 }
  - { offsetInCU: 0x2C63B, offset: 0x5E739, size: 0x8, addend: 0x0, symName: __ZNSt3__110shared_ptrI8MainMenuED2B7v160006Ev, symObjAddr: 0x1613C, symBinAddr: 0x10001D604, symSize: 0x54 }
  - { offsetInCU: 0x2C665, offset: 0x5E763, size: 0x8, addend: 0x0, symName: __ZNSt3__19allocatorI9PauseMenuEC1B7v160006Ev, symObjAddr: 0x16228, symBinAddr: 0x10001D6F0, symSize: 0x2C }
  - { offsetInCU: 0x2C6CB, offset: 0x5E7C9, size: 0x8, addend: 0x0, symName: __ZNSt3__118__allocation_guardINS_9allocatorINS_20__shared_ptr_emplaceI9PauseMenuNS1_IS3_EEEEEEEC1B7v160006IS4_EET_m, symObjAddr: 0x16254, symBinAddr: 0x10001D71C, symSize: 0x34 }
  - { offsetInCU: 0x2C71A, offset: 0x5E818, size: 0x8, addend: 0x0, symName: __ZNKSt3__118__allocation_guardINS_9allocatorINS_20__shared_ptr_emplaceI9PauseMenuNS1_IS3_EEEEEEE5__getB7v160006Ev, symObjAddr: 0x16288, symBinAddr: 0x10001D750, symSize: 0x18 }
  - { offsetInCU: 0x2C745, offset: 0x5E843, size: 0x8, addend: 0x0, symName: __ZNSt3__120__shared_ptr_emplaceI9PauseMenuNS_9allocatorIS1_EEEC1B7v160006IJS1_EEES3_DpOT_, symObjAddr: 0x162A0, symBinAddr: 0x10001D768, symSize: 0x34 }
  - { offsetInCU: 0x2C798, offset: 0x5E896, size: 0x8, addend: 0x0, symName: __ZNSt3__118__allocation_guardINS_9allocatorINS_20__shared_ptr_emplaceI9PauseMenuNS1_IS3_EEEEEEE13__release_ptrB7v160006Ev, symObjAddr: 0x162D4, symBinAddr: 0x10001D79C, symSize: 0x24 }
  - { offsetInCU: 0x2C7CC, offset: 0x5E8CA, size: 0x8, addend: 0x0, symName: __ZNSt3__110shared_ptrI9PauseMenuE27__create_with_control_blockB7v160006IS1_NS_20__shared_ptr_emplaceIS1_NS_9allocatorIS1_EEEEEES2_PT_PT0_, symObjAddr: 0x162F8, symBinAddr: 0x10001D7C0, symSize: 0xA4 }
  - { offsetInCU: 0x2C821, offset: 0x5E91F, size: 0x8, addend: 0x0, symName: __ZNSt3__120__shared_ptr_emplaceI9PauseMenuNS_9allocatorIS1_EEE10__get_elemB7v160006Ev, symObjAddr: 0x1639C, symBinAddr: 0x10001D864, symSize: 0x28 }
  - { offsetInCU: 0x2C847, offset: 0x5E945, size: 0x8, addend: 0x0, symName: __ZNSt3__118__allocation_guardINS_9allocatorINS_20__shared_ptr_emplaceI9PauseMenuNS1_IS3_EEEEEEED1B7v160006Ev, symObjAddr: 0x163C4, symBinAddr: 0x10001D88C, symSize: 0x2C }
  - { offsetInCU: 0x2C871, offset: 0x5E96F, size: 0x8, addend: 0x0, symName: __ZNSt3__118__allocation_guardINS_9allocatorINS_20__shared_ptr_emplaceI9PauseMenuNS1_IS3_EEEEEEEC2B7v160006IS4_EET_m, symObjAddr: 0x163F0, symBinAddr: 0x10001D8B8, symSize: 0x50 }
  - { offsetInCU: 0x2C8C0, offset: 0x5E9BE, size: 0x8, addend: 0x0, symName: __ZNSt3__19allocatorINS_20__shared_ptr_emplaceI9PauseMenuNS0_IS2_EEEEEC1B7v160006IS2_EERKNS0_IT_EE, symObjAddr: 0x16440, symBinAddr: 0x10001D908, symSize: 0x34 }
  - { offsetInCU: 0x2C8FD, offset: 0x5E9FB, size: 0x8, addend: 0x0, symName: __ZNSt3__116allocator_traitsINS_9allocatorINS_20__shared_ptr_emplaceI9PauseMenuNS1_IS3_EEEEEEE8allocateB7v160006ERS6_m, symObjAddr: 0x16474, symBinAddr: 0x10001D93C, symSize: 0x2C }
  - { offsetInCU: 0x2C930, offset: 0x5EA2E, size: 0x8, addend: 0x0, symName: __ZNSt3__19allocatorINS_20__shared_ptr_emplaceI9PauseMenuNS0_IS2_EEEEEC2B7v160006IS2_EERKNS0_IT_EE, symObjAddr: 0x164A0, symBinAddr: 0x10001D968, symSize: 0x30 }
  - { offsetInCU: 0x2C96D, offset: 0x5EA6B, size: 0x8, addend: 0x0, symName: __ZNSt3__116__non_trivial_ifILb1ENS_9allocatorINS_20__shared_ptr_emplaceI9PauseMenuNS1_IS3_EEEEEEEC2B7v160006Ev, symObjAddr: 0x164D0, symBinAddr: 0x10001D998, symSize: 0x14 }
  - { offsetInCU: 0x2C997, offset: 0x5EA95, size: 0x8, addend: 0x0, symName: __ZNSt3__19allocatorINS_20__shared_ptr_emplaceI9PauseMenuNS0_IS2_EEEEE8allocateB7v160006Em, symObjAddr: 0x164E4, symBinAddr: 0x10001D9AC, symSize: 0x5C }
  - { offsetInCU: 0x2C9D5, offset: 0x5EAD3, size: 0x8, addend: 0x0, symName: __ZNSt3__116allocator_traitsINS_9allocatorINS_20__shared_ptr_emplaceI9PauseMenuNS1_IS3_EEEEEEE8max_sizeB7v160006IS6_vEEmRKS6_, symObjAddr: 0x16540, symBinAddr: 0x10001DA08, symSize: 0x24 }
  - { offsetInCU: 0x2CA03, offset: 0x5EB01, size: 0x8, addend: 0x0, symName: __ZNKSt3__19allocatorINS_20__shared_ptr_emplaceI9PauseMenuNS0_IS2_EEEEE8max_sizeB7v160006Ev, symObjAddr: 0x16564, symBinAddr: 0x10001DA2C, symSize: 0x18 }
  - { offsetInCU: 0x2CA29, offset: 0x5EB27, size: 0x8, addend: 0x0, symName: __ZNSt3__120__shared_ptr_emplaceI9PauseMenuNS_9allocatorIS1_EEEC2B7v160006IJS1_EEES3_DpOT_, symObjAddr: 0x1657C, symBinAddr: 0x10001DA44, symSize: 0x94 }
  - { offsetInCU: 0x2CA7C, offset: 0x5EB7A, size: 0x8, addend: 0x0, symName: __ZNSt3__120__shared_ptr_emplaceI9PauseMenuNS_9allocatorIS1_EEE8_StorageC1B7v160006EOS3_, symObjAddr: 0x16610, symBinAddr: 0x10001DAD8, symSize: 0x34 }
  - { offsetInCU: 0x2CAB5, offset: 0x5EBB3, size: 0x8, addend: 0x0, symName: __ZN9PauseMenuC1EOS_, symObjAddr: 0x16644, symBinAddr: 0x10001DB0C, symSize: 0x34 }
  - { offsetInCU: 0x2CAEA, offset: 0x5EBE8, size: 0x8, addend: 0x0, symName: __ZNSt3__120__shared_ptr_emplaceI9PauseMenuNS_9allocatorIS1_EEED1Ev, symObjAddr: 0x16678, symBinAddr: 0x10001DB40, symSize: 0x2C }
  - { offsetInCU: 0x2CB17, offset: 0x5EC15, size: 0x8, addend: 0x0, symName: __ZNSt3__120__shared_ptr_emplaceI9PauseMenuNS_9allocatorIS1_EEED0Ev, symObjAddr: 0x166A4, symBinAddr: 0x10001DB6C, symSize: 0x30 }
  - { offsetInCU: 0x2CB44, offset: 0x5EC42, size: 0x8, addend: 0x0, symName: __ZNSt3__120__shared_ptr_emplaceI9PauseMenuNS_9allocatorIS1_EEE16__on_zero_sharedEv, symObjAddr: 0x166D4, symBinAddr: 0x10001DB9C, symSize: 0x28 }
  - { offsetInCU: 0x2CB6A, offset: 0x5EC68, size: 0x8, addend: 0x0, symName: __ZNSt3__120__shared_ptr_emplaceI9PauseMenuNS_9allocatorIS1_EEE21__on_zero_shared_weakEv, symObjAddr: 0x166FC, symBinAddr: 0x10001DBC4, symSize: 0x5C }
  - { offsetInCU: 0x2CBAB, offset: 0x5ECA9, size: 0x8, addend: 0x0, symName: __ZNSt3__120__shared_ptr_emplaceI9PauseMenuNS_9allocatorIS1_EEE8_StorageC2B7v160006EOS3_, symObjAddr: 0x16758, symBinAddr: 0x10001DC20, symSize: 0x30 }
  - { offsetInCU: 0x2CBE4, offset: 0x5ECE2, size: 0x8, addend: 0x0, symName: __ZNSt3__120__shared_ptr_emplaceI9PauseMenuNS_9allocatorIS1_EEE8_Storage11__get_allocEv, symObjAddr: 0x16788, symBinAddr: 0x10001DC50, symSize: 0x3C }
  - { offsetInCU: 0x2CC37, offset: 0x5ED35, size: 0x8, addend: 0x0, symName: __ZNSt3__117__compressed_pairINS_9allocatorI9PauseMenuEES2_E16__get_first_baseB7v160006EPS4_, symObjAddr: 0x167C4, symBinAddr: 0x10001DC8C, symSize: 0x14 }
  - { offsetInCU: 0x2CC5A, offset: 0x5ED58, size: 0x8, addend: 0x0, symName: __ZN9PauseMenuC2EOS_, symObjAddr: 0x167D8, symBinAddr: 0x10001DCA0, symSize: 0x4C }
  - { offsetInCU: 0x2CC8F, offset: 0x5ED8D, size: 0x8, addend: 0x0, symName: __ZNSt3__120__shared_ptr_emplaceI9PauseMenuNS_9allocatorIS1_EEED2Ev, symObjAddr: 0x16824, symBinAddr: 0x10001DCEC, symSize: 0x48 }
  - { offsetInCU: 0x2CCBC, offset: 0x5EDBA, size: 0x8, addend: 0x0, symName: __ZNSt3__120__shared_ptr_emplaceI9PauseMenuNS_9allocatorIS1_EEE8_StorageD1B7v160006Ev, symObjAddr: 0x1686C, symBinAddr: 0x10001DD34, symSize: 0x2C }
  - { offsetInCU: 0x2CCE6, offset: 0x5EDE4, size: 0x8, addend: 0x0, symName: __ZNSt3__120__shared_ptr_emplaceI9PauseMenuNS_9allocatorIS1_EEE8_StorageD2B7v160006Ev, symObjAddr: 0x16898, symBinAddr: 0x10001DD60, symSize: 0x2C }
  - { offsetInCU: 0x2CD10, offset: 0x5EE0E, size: 0x8, addend: 0x0, symName: __ZNSt3__120__shared_ptr_emplaceI9PauseMenuNS_9allocatorIS1_EEE11__get_allocB7v160006Ev, symObjAddr: 0x168C4, symBinAddr: 0x10001DD8C, symSize: 0x28 }
  - { offsetInCU: 0x2CD36, offset: 0x5EE34, size: 0x8, addend: 0x0, symName: __ZNSt3__116allocator_traitsINS_9allocatorINS_20__shared_ptr_emplaceI9PauseMenuNS1_IS3_EEEEEEE10deallocateB7v160006ERS6_PS5_m, symObjAddr: 0x168EC, symBinAddr: 0x10001DDB4, symSize: 0x34 }
  - { offsetInCU: 0x2CD78, offset: 0x5EE76, size: 0x8, addend: 0x0, symName: __ZNSt3__114pointer_traitsIPNS_20__shared_ptr_emplaceI9PauseMenuNS_9allocatorIS2_EEEEE10pointer_toB7v160006ERS5_, symObjAddr: 0x16920, symBinAddr: 0x10001DDE8, symSize: 0x14 }
  - { offsetInCU: 0x2CD9B, offset: 0x5EE99, size: 0x8, addend: 0x0, symName: __ZNSt3__19allocatorINS_20__shared_ptr_emplaceI9PauseMenuNS0_IS2_EEEEE10deallocateB7v160006EPS4_m, symObjAddr: 0x16934, symBinAddr: 0x10001DDFC, symSize: 0x44 }
  - { offsetInCU: 0x2CDDD, offset: 0x5EEDB, size: 0x8, addend: 0x0, symName: __ZNSt3__110shared_ptrI9PauseMenuEC1B7v160006Ev, symObjAddr: 0x16978, symBinAddr: 0x10001DE40, symSize: 0x2C }
  - { offsetInCU: 0x2CE07, offset: 0x5EF05, size: 0x8, addend: 0x0, symName: __ZNSt3__110shared_ptrI9PauseMenuE18__enable_weak_thisB7v160006Ez, symObjAddr: 0x169A4, symBinAddr: 0x10001DE6C, symSize: 0x10 }
  - { offsetInCU: 0x2CE2E, offset: 0x5EF2C, size: 0x8, addend: 0x0, symName: __ZNSt3__110shared_ptrI9PauseMenuEC2B7v160006Ev, symObjAddr: 0x169B4, symBinAddr: 0x10001DE7C, symSize: 0x1C }
  - { offsetInCU: 0x2CE58, offset: 0x5EF56, size: 0x8, addend: 0x0, symName: __ZNSt3__120__shared_ptr_emplaceI9PauseMenuNS_9allocatorIS1_EEE8_Storage10__get_elemEv, symObjAddr: 0x169D0, symBinAddr: 0x10001DE98, symSize: 0x3C }
  - { offsetInCU: 0x2CEAB, offset: 0x5EFA9, size: 0x8, addend: 0x0, symName: __ZNSt3__117__compressed_pairINS_9allocatorI9PauseMenuEES2_E17__get_second_baseB7v160006EPS4_, symObjAddr: 0x16A0C, symBinAddr: 0x10001DED4, symSize: 0x14 }
  - { offsetInCU: 0x2CECE, offset: 0x5EFCC, size: 0x8, addend: 0x0, symName: __ZNSt3__118__allocation_guardINS_9allocatorINS_20__shared_ptr_emplaceI9PauseMenuNS1_IS3_EEEEEEED2B7v160006Ev, symObjAddr: 0x16A20, symBinAddr: 0x10001DEE8, symSize: 0x58 }
  - { offsetInCU: 0x2CEF8, offset: 0x5EFF6, size: 0x8, addend: 0x0, symName: __ZNSt3__19allocatorI9PauseMenuEC2B7v160006Ev, symObjAddr: 0x16A78, symBinAddr: 0x10001DF40, symSize: 0x2C }
  - { offsetInCU: 0x2CF22, offset: 0x5F020, size: 0x8, addend: 0x0, symName: __ZNSt3__116__non_trivial_ifILb1ENS_9allocatorI9PauseMenuEEEC2B7v160006Ev, symObjAddr: 0x16AA4, symBinAddr: 0x10001DF6C, symSize: 0x14 }
  - { offsetInCU: 0x2CF4C, offset: 0x5F04A, size: 0x8, addend: 0x0, symName: __ZNSt3__110shared_ptrI9PauseMenuED2B7v160006Ev, symObjAddr: 0x16AB8, symBinAddr: 0x10001DF80, symSize: 0x54 }
  - { offsetInCU: 0x2CF76, offset: 0x5F074, size: 0x8, addend: 0x0, symName: __ZNSt3__19allocatorI8InfoMenuEC1B7v160006Ev, symObjAddr: 0x16BA4, symBinAddr: 0x10001E06C, symSize: 0x2C }
  - { offsetInCU: 0x2CFDC, offset: 0x5F0DA, size: 0x8, addend: 0x0, symName: __ZNSt3__118__allocation_guardINS_9allocatorINS_20__shared_ptr_emplaceI8InfoMenuNS1_IS3_EEEEEEEC1B7v160006IS4_EET_m, symObjAddr: 0x16BD0, symBinAddr: 0x10001E098, symSize: 0x34 }
  - { offsetInCU: 0x2D02B, offset: 0x5F129, size: 0x8, addend: 0x0, symName: __ZNKSt3__118__allocation_guardINS_9allocatorINS_20__shared_ptr_emplaceI8InfoMenuNS1_IS3_EEEEEEE5__getB7v160006Ev, symObjAddr: 0x16C04, symBinAddr: 0x10001E0CC, symSize: 0x18 }
  - { offsetInCU: 0x2D056, offset: 0x5F154, size: 0x8, addend: 0x0, symName: __ZNSt3__120__shared_ptr_emplaceI8InfoMenuNS_9allocatorIS1_EEEC1B7v160006IJS1_EEES3_DpOT_, symObjAddr: 0x16C1C, symBinAddr: 0x10001E0E4, symSize: 0x34 }
  - { offsetInCU: 0x2D0A9, offset: 0x5F1A7, size: 0x8, addend: 0x0, symName: __ZNSt3__118__allocation_guardINS_9allocatorINS_20__shared_ptr_emplaceI8InfoMenuNS1_IS3_EEEEEEE13__release_ptrB7v160006Ev, symObjAddr: 0x16C50, symBinAddr: 0x10001E118, symSize: 0x24 }
  - { offsetInCU: 0x2D0DD, offset: 0x5F1DB, size: 0x8, addend: 0x0, symName: __ZNSt3__110shared_ptrI8InfoMenuE27__create_with_control_blockB7v160006IS1_NS_20__shared_ptr_emplaceIS1_NS_9allocatorIS1_EEEEEES2_PT_PT0_, symObjAddr: 0x16C74, symBinAddr: 0x10001E13C, symSize: 0xA4 }
  - { offsetInCU: 0x2D132, offset: 0x5F230, size: 0x8, addend: 0x0, symName: __ZNSt3__120__shared_ptr_emplaceI8InfoMenuNS_9allocatorIS1_EEE10__get_elemB7v160006Ev, symObjAddr: 0x16D18, symBinAddr: 0x10001E1E0, symSize: 0x28 }
  - { offsetInCU: 0x2D158, offset: 0x5F256, size: 0x8, addend: 0x0, symName: __ZNSt3__118__allocation_guardINS_9allocatorINS_20__shared_ptr_emplaceI8InfoMenuNS1_IS3_EEEEEEED1B7v160006Ev, symObjAddr: 0x16D40, symBinAddr: 0x10001E208, symSize: 0x2C }
  - { offsetInCU: 0x2D182, offset: 0x5F280, size: 0x8, addend: 0x0, symName: __ZNSt3__118__allocation_guardINS_9allocatorINS_20__shared_ptr_emplaceI8InfoMenuNS1_IS3_EEEEEEEC2B7v160006IS4_EET_m, symObjAddr: 0x16D6C, symBinAddr: 0x10001E234, symSize: 0x50 }
  - { offsetInCU: 0x2D1D1, offset: 0x5F2CF, size: 0x8, addend: 0x0, symName: __ZNSt3__19allocatorINS_20__shared_ptr_emplaceI8InfoMenuNS0_IS2_EEEEEC1B7v160006IS2_EERKNS0_IT_EE, symObjAddr: 0x16DBC, symBinAddr: 0x10001E284, symSize: 0x34 }
  - { offsetInCU: 0x2D20E, offset: 0x5F30C, size: 0x8, addend: 0x0, symName: __ZNSt3__116allocator_traitsINS_9allocatorINS_20__shared_ptr_emplaceI8InfoMenuNS1_IS3_EEEEEEE8allocateB7v160006ERS6_m, symObjAddr: 0x16DF0, symBinAddr: 0x10001E2B8, symSize: 0x2C }
  - { offsetInCU: 0x2D241, offset: 0x5F33F, size: 0x8, addend: 0x0, symName: __ZNSt3__19allocatorINS_20__shared_ptr_emplaceI8InfoMenuNS0_IS2_EEEEEC2B7v160006IS2_EERKNS0_IT_EE, symObjAddr: 0x16E1C, symBinAddr: 0x10001E2E4, symSize: 0x30 }
  - { offsetInCU: 0x2D27E, offset: 0x5F37C, size: 0x8, addend: 0x0, symName: __ZNSt3__116__non_trivial_ifILb1ENS_9allocatorINS_20__shared_ptr_emplaceI8InfoMenuNS1_IS3_EEEEEEEC2B7v160006Ev, symObjAddr: 0x16E4C, symBinAddr: 0x10001E314, symSize: 0x14 }
  - { offsetInCU: 0x2D2A8, offset: 0x5F3A6, size: 0x8, addend: 0x0, symName: __ZNSt3__19allocatorINS_20__shared_ptr_emplaceI8InfoMenuNS0_IS2_EEEEE8allocateB7v160006Em, symObjAddr: 0x16E60, symBinAddr: 0x10001E328, symSize: 0x5C }
  - { offsetInCU: 0x2D2E6, offset: 0x5F3E4, size: 0x8, addend: 0x0, symName: __ZNSt3__116allocator_traitsINS_9allocatorINS_20__shared_ptr_emplaceI8InfoMenuNS1_IS3_EEEEEEE8max_sizeB7v160006IS6_vEEmRKS6_, symObjAddr: 0x16EBC, symBinAddr: 0x10001E384, symSize: 0x24 }
  - { offsetInCU: 0x2D314, offset: 0x5F412, size: 0x8, addend: 0x0, symName: __ZNKSt3__19allocatorINS_20__shared_ptr_emplaceI8InfoMenuNS0_IS2_EEEEE8max_sizeB7v160006Ev, symObjAddr: 0x16EE0, symBinAddr: 0x10001E3A8, symSize: 0x18 }
  - { offsetInCU: 0x2D33A, offset: 0x5F438, size: 0x8, addend: 0x0, symName: __ZNSt3__120__shared_ptr_emplaceI8InfoMenuNS_9allocatorIS1_EEEC2B7v160006IJS1_EEES3_DpOT_, symObjAddr: 0x16EF8, symBinAddr: 0x10001E3C0, symSize: 0x94 }
  - { offsetInCU: 0x2D38D, offset: 0x5F48B, size: 0x8, addend: 0x0, symName: __ZNSt3__120__shared_ptr_emplaceI8InfoMenuNS_9allocatorIS1_EEE8_StorageC1B7v160006EOS3_, symObjAddr: 0x16F8C, symBinAddr: 0x10001E454, symSize: 0x34 }
  - { offsetInCU: 0x2D3C6, offset: 0x5F4C4, size: 0x8, addend: 0x0, symName: __ZN8InfoMenuC1EOS_, symObjAddr: 0x16FC0, symBinAddr: 0x10001E488, symSize: 0x34 }
  - { offsetInCU: 0x2D3FB, offset: 0x5F4F9, size: 0x8, addend: 0x0, symName: __ZNSt3__120__shared_ptr_emplaceI8InfoMenuNS_9allocatorIS1_EEED1Ev, symObjAddr: 0x16FF4, symBinAddr: 0x10001E4BC, symSize: 0x2C }
  - { offsetInCU: 0x2D428, offset: 0x5F526, size: 0x8, addend: 0x0, symName: __ZNSt3__120__shared_ptr_emplaceI8InfoMenuNS_9allocatorIS1_EEED0Ev, symObjAddr: 0x17020, symBinAddr: 0x10001E4E8, symSize: 0x30 }
  - { offsetInCU: 0x2D455, offset: 0x5F553, size: 0x8, addend: 0x0, symName: __ZNSt3__120__shared_ptr_emplaceI8InfoMenuNS_9allocatorIS1_EEE16__on_zero_sharedEv, symObjAddr: 0x17050, symBinAddr: 0x10001E518, symSize: 0x28 }
  - { offsetInCU: 0x2D47B, offset: 0x5F579, size: 0x8, addend: 0x0, symName: __ZNSt3__120__shared_ptr_emplaceI8InfoMenuNS_9allocatorIS1_EEE21__on_zero_shared_weakEv, symObjAddr: 0x17078, symBinAddr: 0x10001E540, symSize: 0x5C }
  - { offsetInCU: 0x2D4BC, offset: 0x5F5BA, size: 0x8, addend: 0x0, symName: __ZNSt3__120__shared_ptr_emplaceI8InfoMenuNS_9allocatorIS1_EEE8_StorageC2B7v160006EOS3_, symObjAddr: 0x170D4, symBinAddr: 0x10001E59C, symSize: 0x30 }
  - { offsetInCU: 0x2D4F5, offset: 0x5F5F3, size: 0x8, addend: 0x0, symName: __ZNSt3__120__shared_ptr_emplaceI8InfoMenuNS_9allocatorIS1_EEE8_Storage11__get_allocEv, symObjAddr: 0x17104, symBinAddr: 0x10001E5CC, symSize: 0x3C }
  - { offsetInCU: 0x2D548, offset: 0x5F646, size: 0x8, addend: 0x0, symName: __ZNSt3__117__compressed_pairINS_9allocatorI8InfoMenuEES2_E16__get_first_baseB7v160006EPS4_, symObjAddr: 0x17140, symBinAddr: 0x10001E608, symSize: 0x14 }
  - { offsetInCU: 0x2D56B, offset: 0x5F669, size: 0x8, addend: 0x0, symName: __ZN8InfoMenuC2EOS_, symObjAddr: 0x17154, symBinAddr: 0x10001E61C, symSize: 0x4C }
  - { offsetInCU: 0x2D5A0, offset: 0x5F69E, size: 0x8, addend: 0x0, symName: __ZNSt3__120__shared_ptr_emplaceI8InfoMenuNS_9allocatorIS1_EEED2Ev, symObjAddr: 0x171A0, symBinAddr: 0x10001E668, symSize: 0x48 }
  - { offsetInCU: 0x2D5CD, offset: 0x5F6CB, size: 0x8, addend: 0x0, symName: __ZNSt3__120__shared_ptr_emplaceI8InfoMenuNS_9allocatorIS1_EEE8_StorageD1B7v160006Ev, symObjAddr: 0x171E8, symBinAddr: 0x10001E6B0, symSize: 0x2C }
  - { offsetInCU: 0x2D5F7, offset: 0x5F6F5, size: 0x8, addend: 0x0, symName: __ZNSt3__120__shared_ptr_emplaceI8InfoMenuNS_9allocatorIS1_EEE8_StorageD2B7v160006Ev, symObjAddr: 0x17214, symBinAddr: 0x10001E6DC, symSize: 0x2C }
  - { offsetInCU: 0x2D621, offset: 0x5F71F, size: 0x8, addend: 0x0, symName: __ZNSt3__120__shared_ptr_emplaceI8InfoMenuNS_9allocatorIS1_EEE11__get_allocB7v160006Ev, symObjAddr: 0x17240, symBinAddr: 0x10001E708, symSize: 0x28 }
  - { offsetInCU: 0x2D647, offset: 0x5F745, size: 0x8, addend: 0x0, symName: __ZNSt3__116allocator_traitsINS_9allocatorINS_20__shared_ptr_emplaceI8InfoMenuNS1_IS3_EEEEEEE10deallocateB7v160006ERS6_PS5_m, symObjAddr: 0x17268, symBinAddr: 0x10001E730, symSize: 0x34 }
  - { offsetInCU: 0x2D689, offset: 0x5F787, size: 0x8, addend: 0x0, symName: __ZNSt3__114pointer_traitsIPNS_20__shared_ptr_emplaceI8InfoMenuNS_9allocatorIS2_EEEEE10pointer_toB7v160006ERS5_, symObjAddr: 0x1729C, symBinAddr: 0x10001E764, symSize: 0x14 }
  - { offsetInCU: 0x2D6AC, offset: 0x5F7AA, size: 0x8, addend: 0x0, symName: __ZNSt3__19allocatorINS_20__shared_ptr_emplaceI8InfoMenuNS0_IS2_EEEEE10deallocateB7v160006EPS4_m, symObjAddr: 0x172B0, symBinAddr: 0x10001E778, symSize: 0x44 }
  - { offsetInCU: 0x2D6EE, offset: 0x5F7EC, size: 0x8, addend: 0x0, symName: __ZNSt3__110shared_ptrI8InfoMenuEC1B7v160006Ev, symObjAddr: 0x172F4, symBinAddr: 0x10001E7BC, symSize: 0x2C }
  - { offsetInCU: 0x2D718, offset: 0x5F816, size: 0x8, addend: 0x0, symName: __ZNSt3__110shared_ptrI8InfoMenuE18__enable_weak_thisB7v160006Ez, symObjAddr: 0x17320, symBinAddr: 0x10001E7E8, symSize: 0x10 }
  - { offsetInCU: 0x2D73F, offset: 0x5F83D, size: 0x8, addend: 0x0, symName: __ZNSt3__110shared_ptrI8InfoMenuEC2B7v160006Ev, symObjAddr: 0x17330, symBinAddr: 0x10001E7F8, symSize: 0x1C }
  - { offsetInCU: 0x2D769, offset: 0x5F867, size: 0x8, addend: 0x0, symName: __ZNSt3__120__shared_ptr_emplaceI8InfoMenuNS_9allocatorIS1_EEE8_Storage10__get_elemEv, symObjAddr: 0x1734C, symBinAddr: 0x10001E814, symSize: 0x3C }
  - { offsetInCU: 0x2D7BC, offset: 0x5F8BA, size: 0x8, addend: 0x0, symName: __ZNSt3__117__compressed_pairINS_9allocatorI8InfoMenuEES2_E17__get_second_baseB7v160006EPS4_, symObjAddr: 0x17388, symBinAddr: 0x10001E850, symSize: 0x14 }
  - { offsetInCU: 0x2D7DF, offset: 0x5F8DD, size: 0x8, addend: 0x0, symName: __ZNSt3__118__allocation_guardINS_9allocatorINS_20__shared_ptr_emplaceI8InfoMenuNS1_IS3_EEEEEEED2B7v160006Ev, symObjAddr: 0x1739C, symBinAddr: 0x10001E864, symSize: 0x58 }
  - { offsetInCU: 0x2D809, offset: 0x5F907, size: 0x8, addend: 0x0, symName: __ZNSt3__19allocatorI8InfoMenuEC2B7v160006Ev, symObjAddr: 0x173F4, symBinAddr: 0x10001E8BC, symSize: 0x2C }
  - { offsetInCU: 0x2D833, offset: 0x5F931, size: 0x8, addend: 0x0, symName: __ZNSt3__116__non_trivial_ifILb1ENS_9allocatorI8InfoMenuEEEC2B7v160006Ev, symObjAddr: 0x17420, symBinAddr: 0x10001E8E8, symSize: 0x14 }
  - { offsetInCU: 0x2D85D, offset: 0x5F95B, size: 0x8, addend: 0x0, symName: __ZNSt3__110shared_ptrI8InfoMenuED2B7v160006Ev, symObjAddr: 0x17434, symBinAddr: 0x10001E8FC, symSize: 0x54 }
  - { offsetInCU: 0x2D887, offset: 0x5F985, size: 0x8, addend: 0x0, symName: __ZNSt3__19allocatorI9DeathMenuEC1B7v160006Ev, symObjAddr: 0x17520, symBinAddr: 0x10001E9E8, symSize: 0x2C }
  - { offsetInCU: 0x2D8ED, offset: 0x5F9EB, size: 0x8, addend: 0x0, symName: __ZNSt3__118__allocation_guardINS_9allocatorINS_20__shared_ptr_emplaceI9DeathMenuNS1_IS3_EEEEEEEC1B7v160006IS4_EET_m, symObjAddr: 0x1754C, symBinAddr: 0x10001EA14, symSize: 0x34 }
  - { offsetInCU: 0x2D93C, offset: 0x5FA3A, size: 0x8, addend: 0x0, symName: __ZNKSt3__118__allocation_guardINS_9allocatorINS_20__shared_ptr_emplaceI9DeathMenuNS1_IS3_EEEEEEE5__getB7v160006Ev, symObjAddr: 0x17580, symBinAddr: 0x10001EA48, symSize: 0x18 }
  - { offsetInCU: 0x2D967, offset: 0x5FA65, size: 0x8, addend: 0x0, symName: __ZNSt3__120__shared_ptr_emplaceI9DeathMenuNS_9allocatorIS1_EEEC1B7v160006IJS1_EEES3_DpOT_, symObjAddr: 0x17598, symBinAddr: 0x10001EA60, symSize: 0x34 }
  - { offsetInCU: 0x2D9BA, offset: 0x5FAB8, size: 0x8, addend: 0x0, symName: __ZNSt3__118__allocation_guardINS_9allocatorINS_20__shared_ptr_emplaceI9DeathMenuNS1_IS3_EEEEEEE13__release_ptrB7v160006Ev, symObjAddr: 0x175CC, symBinAddr: 0x10001EA94, symSize: 0x24 }
  - { offsetInCU: 0x2D9EE, offset: 0x5FAEC, size: 0x8, addend: 0x0, symName: __ZNSt3__110shared_ptrI9DeathMenuE27__create_with_control_blockB7v160006IS1_NS_20__shared_ptr_emplaceIS1_NS_9allocatorIS1_EEEEEES2_PT_PT0_, symObjAddr: 0x175F0, symBinAddr: 0x10001EAB8, symSize: 0xA4 }
  - { offsetInCU: 0x2DA43, offset: 0x5FB41, size: 0x8, addend: 0x0, symName: __ZNSt3__120__shared_ptr_emplaceI9DeathMenuNS_9allocatorIS1_EEE10__get_elemB7v160006Ev, symObjAddr: 0x17694, symBinAddr: 0x10001EB5C, symSize: 0x28 }
  - { offsetInCU: 0x2DA69, offset: 0x5FB67, size: 0x8, addend: 0x0, symName: __ZNSt3__118__allocation_guardINS_9allocatorINS_20__shared_ptr_emplaceI9DeathMenuNS1_IS3_EEEEEEED1B7v160006Ev, symObjAddr: 0x176BC, symBinAddr: 0x10001EB84, symSize: 0x2C }
  - { offsetInCU: 0x2DA93, offset: 0x5FB91, size: 0x8, addend: 0x0, symName: __ZNSt3__118__allocation_guardINS_9allocatorINS_20__shared_ptr_emplaceI9DeathMenuNS1_IS3_EEEEEEEC2B7v160006IS4_EET_m, symObjAddr: 0x176E8, symBinAddr: 0x10001EBB0, symSize: 0x50 }
  - { offsetInCU: 0x2DAE2, offset: 0x5FBE0, size: 0x8, addend: 0x0, symName: __ZNSt3__19allocatorINS_20__shared_ptr_emplaceI9DeathMenuNS0_IS2_EEEEEC1B7v160006IS2_EERKNS0_IT_EE, symObjAddr: 0x17738, symBinAddr: 0x10001EC00, symSize: 0x34 }
  - { offsetInCU: 0x2DB1F, offset: 0x5FC1D, size: 0x8, addend: 0x0, symName: __ZNSt3__116allocator_traitsINS_9allocatorINS_20__shared_ptr_emplaceI9DeathMenuNS1_IS3_EEEEEEE8allocateB7v160006ERS6_m, symObjAddr: 0x1776C, symBinAddr: 0x10001EC34, symSize: 0x2C }
  - { offsetInCU: 0x2DB52, offset: 0x5FC50, size: 0x8, addend: 0x0, symName: __ZNSt3__19allocatorINS_20__shared_ptr_emplaceI9DeathMenuNS0_IS2_EEEEEC2B7v160006IS2_EERKNS0_IT_EE, symObjAddr: 0x17798, symBinAddr: 0x10001EC60, symSize: 0x30 }
  - { offsetInCU: 0x2DB8F, offset: 0x5FC8D, size: 0x8, addend: 0x0, symName: __ZNSt3__116__non_trivial_ifILb1ENS_9allocatorINS_20__shared_ptr_emplaceI9DeathMenuNS1_IS3_EEEEEEEC2B7v160006Ev, symObjAddr: 0x177C8, symBinAddr: 0x10001EC90, symSize: 0x14 }
  - { offsetInCU: 0x2DBB9, offset: 0x5FCB7, size: 0x8, addend: 0x0, symName: __ZNSt3__19allocatorINS_20__shared_ptr_emplaceI9DeathMenuNS0_IS2_EEEEE8allocateB7v160006Em, symObjAddr: 0x177DC, symBinAddr: 0x10001ECA4, symSize: 0x5C }
  - { offsetInCU: 0x2DBF7, offset: 0x5FCF5, size: 0x8, addend: 0x0, symName: __ZNSt3__116allocator_traitsINS_9allocatorINS_20__shared_ptr_emplaceI9DeathMenuNS1_IS3_EEEEEEE8max_sizeB7v160006IS6_vEEmRKS6_, symObjAddr: 0x17838, symBinAddr: 0x10001ED00, symSize: 0x24 }
  - { offsetInCU: 0x2DC25, offset: 0x5FD23, size: 0x8, addend: 0x0, symName: __ZNKSt3__19allocatorINS_20__shared_ptr_emplaceI9DeathMenuNS0_IS2_EEEEE8max_sizeB7v160006Ev, symObjAddr: 0x1785C, symBinAddr: 0x10001ED24, symSize: 0x18 }
  - { offsetInCU: 0x2DC4B, offset: 0x5FD49, size: 0x8, addend: 0x0, symName: __ZNSt3__120__shared_ptr_emplaceI9DeathMenuNS_9allocatorIS1_EEEC2B7v160006IJS1_EEES3_DpOT_, symObjAddr: 0x17874, symBinAddr: 0x10001ED3C, symSize: 0x94 }
  - { offsetInCU: 0x2DC9E, offset: 0x5FD9C, size: 0x8, addend: 0x0, symName: __ZNSt3__120__shared_ptr_emplaceI9DeathMenuNS_9allocatorIS1_EEE8_StorageC1B7v160006EOS3_, symObjAddr: 0x17908, symBinAddr: 0x10001EDD0, symSize: 0x34 }
  - { offsetInCU: 0x2DCD7, offset: 0x5FDD5, size: 0x8, addend: 0x0, symName: __ZN9DeathMenuC1EOS_, symObjAddr: 0x1793C, symBinAddr: 0x10001EE04, symSize: 0x34 }
  - { offsetInCU: 0x2DD0C, offset: 0x5FE0A, size: 0x8, addend: 0x0, symName: __ZNSt3__120__shared_ptr_emplaceI9DeathMenuNS_9allocatorIS1_EEED1Ev, symObjAddr: 0x17970, symBinAddr: 0x10001EE38, symSize: 0x2C }
  - { offsetInCU: 0x2DD39, offset: 0x5FE37, size: 0x8, addend: 0x0, symName: __ZNSt3__120__shared_ptr_emplaceI9DeathMenuNS_9allocatorIS1_EEED0Ev, symObjAddr: 0x1799C, symBinAddr: 0x10001EE64, symSize: 0x30 }
  - { offsetInCU: 0x2DD66, offset: 0x5FE64, size: 0x8, addend: 0x0, symName: __ZNSt3__120__shared_ptr_emplaceI9DeathMenuNS_9allocatorIS1_EEE16__on_zero_sharedEv, symObjAddr: 0x179CC, symBinAddr: 0x10001EE94, symSize: 0x28 }
  - { offsetInCU: 0x2DD8C, offset: 0x5FE8A, size: 0x8, addend: 0x0, symName: __ZNSt3__120__shared_ptr_emplaceI9DeathMenuNS_9allocatorIS1_EEE21__on_zero_shared_weakEv, symObjAddr: 0x179F4, symBinAddr: 0x10001EEBC, symSize: 0x5C }
  - { offsetInCU: 0x2DDCD, offset: 0x5FECB, size: 0x8, addend: 0x0, symName: __ZNSt3__120__shared_ptr_emplaceI9DeathMenuNS_9allocatorIS1_EEE8_StorageC2B7v160006EOS3_, symObjAddr: 0x17A50, symBinAddr: 0x10001EF18, symSize: 0x30 }
  - { offsetInCU: 0x2DE06, offset: 0x5FF04, size: 0x8, addend: 0x0, symName: __ZNSt3__120__shared_ptr_emplaceI9DeathMenuNS_9allocatorIS1_EEE8_Storage11__get_allocEv, symObjAddr: 0x17A80, symBinAddr: 0x10001EF48, symSize: 0x3C }
  - { offsetInCU: 0x2DE59, offset: 0x5FF57, size: 0x8, addend: 0x0, symName: __ZNSt3__117__compressed_pairINS_9allocatorI9DeathMenuEES2_E16__get_first_baseB7v160006EPS4_, symObjAddr: 0x17ABC, symBinAddr: 0x10001EF84, symSize: 0x14 }
  - { offsetInCU: 0x2DE7C, offset: 0x5FF7A, size: 0x8, addend: 0x0, symName: __ZN9DeathMenuC2EOS_, symObjAddr: 0x17AD0, symBinAddr: 0x10001EF98, symSize: 0x4C }
  - { offsetInCU: 0x2DEB1, offset: 0x5FFAF, size: 0x8, addend: 0x0, symName: __ZNSt3__120__shared_ptr_emplaceI9DeathMenuNS_9allocatorIS1_EEED2Ev, symObjAddr: 0x17B1C, symBinAddr: 0x10001EFE4, symSize: 0x48 }
  - { offsetInCU: 0x2DEDE, offset: 0x5FFDC, size: 0x8, addend: 0x0, symName: __ZNSt3__120__shared_ptr_emplaceI9DeathMenuNS_9allocatorIS1_EEE8_StorageD1B7v160006Ev, symObjAddr: 0x17B64, symBinAddr: 0x10001F02C, symSize: 0x2C }
  - { offsetInCU: 0x2DF08, offset: 0x60006, size: 0x8, addend: 0x0, symName: __ZNSt3__120__shared_ptr_emplaceI9DeathMenuNS_9allocatorIS1_EEE8_StorageD2B7v160006Ev, symObjAddr: 0x17B90, symBinAddr: 0x10001F058, symSize: 0x2C }
  - { offsetInCU: 0x2DF32, offset: 0x60030, size: 0x8, addend: 0x0, symName: __ZNSt3__120__shared_ptr_emplaceI9DeathMenuNS_9allocatorIS1_EEE11__get_allocB7v160006Ev, symObjAddr: 0x17BBC, symBinAddr: 0x10001F084, symSize: 0x28 }
  - { offsetInCU: 0x2DF58, offset: 0x60056, size: 0x8, addend: 0x0, symName: __ZNSt3__116allocator_traitsINS_9allocatorINS_20__shared_ptr_emplaceI9DeathMenuNS1_IS3_EEEEEEE10deallocateB7v160006ERS6_PS5_m, symObjAddr: 0x17BE4, symBinAddr: 0x10001F0AC, symSize: 0x34 }
  - { offsetInCU: 0x2DF9A, offset: 0x60098, size: 0x8, addend: 0x0, symName: __ZNSt3__114pointer_traitsIPNS_20__shared_ptr_emplaceI9DeathMenuNS_9allocatorIS2_EEEEE10pointer_toB7v160006ERS5_, symObjAddr: 0x17C18, symBinAddr: 0x10001F0E0, symSize: 0x14 }
  - { offsetInCU: 0x2DFBD, offset: 0x600BB, size: 0x8, addend: 0x0, symName: __ZNSt3__19allocatorINS_20__shared_ptr_emplaceI9DeathMenuNS0_IS2_EEEEE10deallocateB7v160006EPS4_m, symObjAddr: 0x17C2C, symBinAddr: 0x10001F0F4, symSize: 0x44 }
  - { offsetInCU: 0x2DFFF, offset: 0x600FD, size: 0x8, addend: 0x0, symName: __ZNSt3__110shared_ptrI9DeathMenuEC1B7v160006Ev, symObjAddr: 0x17C70, symBinAddr: 0x10001F138, symSize: 0x2C }
  - { offsetInCU: 0x2E029, offset: 0x60127, size: 0x8, addend: 0x0, symName: __ZNSt3__110shared_ptrI9DeathMenuE18__enable_weak_thisB7v160006Ez, symObjAddr: 0x17C9C, symBinAddr: 0x10001F164, symSize: 0x10 }
  - { offsetInCU: 0x2E050, offset: 0x6014E, size: 0x8, addend: 0x0, symName: __ZNSt3__110shared_ptrI9DeathMenuEC2B7v160006Ev, symObjAddr: 0x17CAC, symBinAddr: 0x10001F174, symSize: 0x1C }
  - { offsetInCU: 0x2E07A, offset: 0x60178, size: 0x8, addend: 0x0, symName: __ZNSt3__120__shared_ptr_emplaceI9DeathMenuNS_9allocatorIS1_EEE8_Storage10__get_elemEv, symObjAddr: 0x17CC8, symBinAddr: 0x10001F190, symSize: 0x3C }
  - { offsetInCU: 0x2E0CD, offset: 0x601CB, size: 0x8, addend: 0x0, symName: __ZNSt3__117__compressed_pairINS_9allocatorI9DeathMenuEES2_E17__get_second_baseB7v160006EPS4_, symObjAddr: 0x17D04, symBinAddr: 0x10001F1CC, symSize: 0x14 }
  - { offsetInCU: 0x2E0F0, offset: 0x601EE, size: 0x8, addend: 0x0, symName: __ZNSt3__118__allocation_guardINS_9allocatorINS_20__shared_ptr_emplaceI9DeathMenuNS1_IS3_EEEEEEED2B7v160006Ev, symObjAddr: 0x17D18, symBinAddr: 0x10001F1E0, symSize: 0x58 }
  - { offsetInCU: 0x2E11A, offset: 0x60218, size: 0x8, addend: 0x0, symName: __ZNSt3__19allocatorI9DeathMenuEC2B7v160006Ev, symObjAddr: 0x17D70, symBinAddr: 0x10001F238, symSize: 0x2C }
  - { offsetInCU: 0x2E144, offset: 0x60242, size: 0x8, addend: 0x0, symName: __ZNSt3__116__non_trivial_ifILb1ENS_9allocatorI9DeathMenuEEEC2B7v160006Ev, symObjAddr: 0x17D9C, symBinAddr: 0x10001F264, symSize: 0x14 }
  - { offsetInCU: 0x2E16E, offset: 0x6026C, size: 0x8, addend: 0x0, symName: __ZNSt3__110shared_ptrI9DeathMenuED2B7v160006Ev, symObjAddr: 0x17DB0, symBinAddr: 0x10001F278, symSize: 0x54 }
  - { offsetInCU: 0x2E198, offset: 0x60296, size: 0x8, addend: 0x0, symName: __ZNSt3__13mapINS_12basic_stringIcNS_11char_traitsIcEENS_9allocatorIcEEEENS_10shared_ptrI4MenuEENS_4lessIS6_EENS4_INS_4pairIKS6_S9_EEEEEC2B7v160006Ev, symObjAddr: 0x17E04, symBinAddr: 0x10001F2CC, symSize: 0x40 }
  - { offsetInCU: 0x2E1C2, offset: 0x602C0, size: 0x8, addend: 0x0, symName: __ZNSt3__119__map_value_compareINS_12basic_stringIcNS_11char_traitsIcEENS_9allocatorIcEEEENS_12__value_typeIS6_NS_10shared_ptrI4MenuEEEENS_4lessIS6_EELb1EEC1B7v160006ESD_, symObjAddr: 0x17E44, symBinAddr: 0x10001F30C, symSize: 0x2C }
  - { offsetInCU: 0x2E1FB, offset: 0x602F9, size: 0x8, addend: 0x0, symName: __ZNSt3__16__treeINS_12__value_typeINS_12basic_stringIcNS_11char_traitsIcEENS_9allocatorIcEEEENS_10shared_ptrI4MenuEEEENS_19__map_value_compareIS7_SB_NS_4lessIS7_EELb1EEENS5_ISB_EEEC1ERKSF_, symObjAddr: 0x17E70, symBinAddr: 0x10001F338, symSize: 0x34 }
  - { offsetInCU: 0x2E236, offset: 0x60334, size: 0x8, addend: 0x0, symName: __ZNSt3__119__map_value_compareINS_12basic_stringIcNS_11char_traitsIcEENS_9allocatorIcEEEENS_12__value_typeIS6_NS_10shared_ptrI4MenuEEEENS_4lessIS6_EELb1EEC2B7v160006ESD_, symObjAddr: 0x17EA4, symBinAddr: 0x10001F36C, symSize: 0x14 }
  - { offsetInCU: 0x2E26F, offset: 0x6036D, size: 0x8, addend: 0x0, symName: __ZNSt3__16__treeINS_12__value_typeINS_12basic_stringIcNS_11char_traitsIcEENS_9allocatorIcEEEENS_10shared_ptrI4MenuEEEENS_19__map_value_compareIS7_SB_NS_4lessIS7_EELb1EEENS5_ISB_EEEC2ERKSF_, symObjAddr: 0x17EB8, symBinAddr: 0x10001F380, symSize: 0x7C }
  - { offsetInCU: 0x2E2AA, offset: 0x603A8, size: 0x8, addend: 0x0, symName: __ZNSt3__117__compressed_pairINS_15__tree_end_nodeIPNS_16__tree_node_baseIPvEEEENS_9allocatorINS_11__tree_nodeINS_12__value_typeINS_12basic_stringIcNS_11char_traitsIcEENS7_IcEEEENS_10shared_ptrI4MenuEEEES3_EEEEEC1B7v160006ILb1EvEEv, symObjAddr: 0x17F34, symBinAddr: 0x10001F3FC, symSize: 0x2C }
  - { offsetInCU: 0x2E2DF, offset: 0x603DD, size: 0x8, addend: 0x0, symName: __ZNSt3__117__compressed_pairINS_15__tree_end_nodeIPNS_16__tree_node_baseIPvEEEENS_9allocatorINS_11__tree_nodeINS_12__value_typeINS_12basic_stringIcNS_11char_traitsIcEENS7_IcEEEENS_10shared_ptrI4MenuEEEES3_EEEEEC2B7v160006ILb1EvEEv, symObjAddr: 0x17FDC, symBinAddr: 0x10001F428, symSize: 0x34 }
  - { offsetInCU: 0x2E314, offset: 0x60412, size: 0x8, addend: 0x0, symName: __ZNSt3__122__compressed_pair_elemINS_9allocatorINS_11__tree_nodeINS_12__value_typeINS_12basic_stringIcNS_11char_traitsIcEENS1_IcEEEENS_10shared_ptrI4MenuEEEEPvEEEELi1ELb1EEC2B7v160006ENS_16__value_init_tagE, symObjAddr: 0x18010, symBinAddr: 0x10001F45C, symSize: 0x2C }
  - { offsetInCU: 0x2E348, offset: 0x60446, size: 0x8, addend: 0x0, symName: __ZNSt3__19allocatorINS_11__tree_nodeINS_12__value_typeINS_12basic_stringIcNS_11char_traitsIcEENS0_IcEEEENS_10shared_ptrI4MenuEEEEPvEEEC2B7v160006Ev, symObjAddr: 0x1803C, symBinAddr: 0x10001F488, symSize: 0x2C }
  - { offsetInCU: 0x2E372, offset: 0x60470, size: 0x8, addend: 0x0, symName: __ZNSt3__116__non_trivial_ifILb1ENS_9allocatorINS_11__tree_nodeINS_12__value_typeINS_12basic_stringIcNS_11char_traitsIcEENS1_IcEEEENS_10shared_ptrI4MenuEEEEPvEEEEEC2B7v160006Ev, symObjAddr: 0x18068, symBinAddr: 0x10001F4B4, symSize: 0x14 }
  - { offsetInCU: 0x2E39C, offset: 0x6049A, size: 0x8, addend: 0x0, symName: __ZNSt3__16__treeINS_12__value_typeINS_12basic_stringIcNS_11char_traitsIcEENS_9allocatorIcEEEENS_10shared_ptrI4MenuEEEENS_19__map_value_compareIS7_SB_NS_4lessIS7_EELb1EEENS5_ISB_EEE25__emplace_unique_key_argsIS7_JRKNS_21piecewise_construct_tENS_5tupleIJOS7_EEENSM_IJEEEEEENS_4pairINS_15__tree_iteratorISB_PNS_11__tree_nodeISB_PvEElEEbEERKT_DpOT0_, symObjAddr: 0x18514, symBinAddr: 0x10001F4C8, symSize: 0x100 }
  - { offsetInCU: 0x2E473, offset: 0x60571, size: 0x8, addend: 0x0, symName: __ZNSt3__16__treeINS_12__value_typeINS_12basic_stringIcNS_11char_traitsIcEENS_9allocatorIcEEEENS_10shared_ptrI4MenuEEEENS_19__map_value_compareIS7_SB_NS_4lessIS7_EELb1EEENS5_ISB_EEE16__construct_nodeIJRKNS_21piecewise_construct_tENS_5tupleIJOS7_EEENSM_IJEEEEEENS_10unique_ptrINS_11__tree_nodeISB_PvEENS_22__tree_node_destructorINS5_IST_EEEEEEDpOT_, symObjAddr: 0x187F0, symBinAddr: 0x10001F5F4, symSize: 0x120 }
  - { offsetInCU: 0x2E501, offset: 0x605FF, size: 0x8, addend: 0x0, symName: __ZNSt3__116allocator_traitsINS_9allocatorINS_11__tree_nodeINS_12__value_typeINS_12basic_stringIcNS_11char_traitsIcEENS1_IcEEEENS_10shared_ptrI4MenuEEEEPvEEEEE9constructB7v160006INS_4pairIKS8_SB_EEJRKNS_21piecewise_construct_tENS_5tupleIJOS8_EEENSO_IJEEEEvEEvRSF_PT_DpOT0_, symObjAddr: 0x192B0, symBinAddr: 0x10001F714, symSize: 0x44 }
  - { offsetInCU: 0x2E58A, offset: 0x60688, size: 0x8, addend: 0x0, symName: __ZNSt3__19allocatorINS_11__tree_nodeINS_12__value_typeINS_12basic_stringIcNS_11char_traitsIcEENS0_IcEEEENS_10shared_ptrI4MenuEEEEPvEEE9constructB7v160006INS_4pairIKS7_SA_EEJRKNS_21piecewise_construct_tENS_5tupleIJOS7_EEENSM_IJEEEEEEvPT_DpOT0_, symObjAddr: 0x1952C, symBinAddr: 0x10001F758, symSize: 0x44 }
  - { offsetInCU: 0x2E606, offset: 0x60704, size: 0x8, addend: 0x0, symName: __ZNSt3__14pairIKNS_12basic_stringIcNS_11char_traitsIcEENS_9allocatorIcEEEENS_10shared_ptrI4MenuEEEC1B7v160006IJOS6_EJEEENS_21piecewise_construct_tENS_5tupleIJDpT_EEENSF_IJDpT0_EEE, symObjAddr: 0x19570, symBinAddr: 0x10001F79C, symSize: 0x44 }
  - { offsetInCU: 0x2E66D, offset: 0x6076B, size: 0x8, addend: 0x0, symName: __ZNSt3__14pairIKNS_12basic_stringIcNS_11char_traitsIcEENS_9allocatorIcEEEENS_10shared_ptrI4MenuEEEC1B7v160006IJOS6_EJEJLm0EEJEEENS_21piecewise_construct_tERNS_5tupleIJDpT_EEERNSF_IJDpT0_EEENS_15__tuple_indicesIJXspT1_EEEENSO_IJXspT2_EEEE, symObjAddr: 0x195B4, symBinAddr: 0x10001F7E0, symSize: 0x3C }
  - { offsetInCU: 0x2E6FD, offset: 0x607FB, size: 0x8, addend: 0x0, symName: __ZNSt3__14pairIKNS_12basic_stringIcNS_11char_traitsIcEENS_9allocatorIcEEEENS_10shared_ptrI4MenuEEEC2B7v160006IJOS6_EJEJLm0EEJEEENS_21piecewise_construct_tERNS_5tupleIJDpT_EEERNSF_IJDpT0_EEENS_15__tuple_indicesIJXspT1_EEEENSO_IJXspT2_EEEE, symObjAddr: 0x195F0, symBinAddr: 0x10001F81C, symSize: 0x50 }
  - { offsetInCU: 0x2E78D, offset: 0x6088B, size: 0x8, addend: 0x0, symName: __ZNSt3__112basic_stringIcNS_11char_traitsIcEENS_9allocatorIcEEEC1B7v160006EOS5_, symObjAddr: 0x19664, symBinAddr: 0x10001F890, symSize: 0x34 }
  - { offsetInCU: 0x2E7C6, offset: 0x608C4, size: 0x8, addend: 0x0, symName: __ZNSt3__112__tuple_leafILm0EONS_12basic_stringIcNS_11char_traitsIcEENS_9allocatorIcEEEELb0EE3getB7v160006Ev, symObjAddr: 0x196C4, symBinAddr: 0x10001F8C4, symSize: 0x18 }
  - { offsetInCU: 0x2E7EC, offset: 0x608EA, size: 0x8, addend: 0x0, symName: __ZNSt3__112basic_stringIcNS_11char_traitsIcEENS_9allocatorIcEEEC2B7v160006EOS5_, symObjAddr: 0x196DC, symBinAddr: 0x10001F8DC, symSize: 0x84 }
  - { offsetInCU: 0x2E825, offset: 0x60923, size: 0x8, addend: 0x0, symName: __ZNSt3__112basic_stringIcNS_11char_traitsIcEENS_9allocatorIcEEE14__default_initB7v160006Ev, symObjAddr: 0x19760, symBinAddr: 0x10001F960, symSize: 0x40 }
  - { offsetInCU: 0x2E84B, offset: 0x60949, size: 0x8, addend: 0x0, symName: __ZNSt3__117__compressed_pairINS_12basic_stringIcNS_11char_traitsIcEENS_9allocatorIcEEE5__repES5_E5firstB7v160006Ev, symObjAddr: 0x197B4, symBinAddr: 0x10001F9B4, symSize: 0x24 }
  - { offsetInCU: 0x2E871, offset: 0x6096F, size: 0x8, addend: 0x0, symName: __ZNSt3__122__compressed_pair_elemINS_12basic_stringIcNS_11char_traitsIcEENS_9allocatorIcEEE5__repELi0ELb0EE5__getB7v160006Ev, symObjAddr: 0x197D8, symBinAddr: 0x10001F9D8, symSize: 0x14 }
  - { offsetInCU: 0x2E897, offset: 0x60995, size: 0x8, addend: 0x0, symName: __ZNSt3__15tupleIJONS_12basic_stringIcNS_11char_traitsIcEENS_9allocatorIcEEEEEEC1B7v160006IJS6_ELi0EEEDpOT_, symObjAddr: 0x19A94, symBinAddr: 0x10001F9EC, symSize: 0x34 }
  - { offsetInCU: 0x2E8E1, offset: 0x609DF, size: 0x8, addend: 0x0, symName: __ZNSt3__15tupleIJONS_12basic_stringIcNS_11char_traitsIcEENS_9allocatorIcEEEEEEC2B7v160006IJS6_ELi0EEEDpOT_, symObjAddr: 0x19AC8, symBinAddr: 0x10001FA20, symSize: 0x34 }
  - { offsetInCU: 0x2E92B, offset: 0x60A29, size: 0x8, addend: 0x0, symName: __ZNSt3__112__tuple_implINS_15__tuple_indicesIJLm0EEEEJONS_12basic_stringIcNS_11char_traitsIcEENS_9allocatorIcEEEEEEC1B7v160006IJLm0EEJS9_EJEJEJS8_EEENS1_IJXspT_EEEENS_13__tuple_typesIJDpT0_EEENS1_IJXspT1_EEEENSD_IJDpT2_EEEDpOT3_, symObjAddr: 0x19AFC, symBinAddr: 0x10001FA54, symSize: 0x34 }
  - { offsetInCU: 0x2E9C0, offset: 0x60ABE, size: 0x8, addend: 0x0, symName: __ZNSt3__112__tuple_implINS_15__tuple_indicesIJLm0EEEEJONS_12basic_stringIcNS_11char_traitsIcEENS_9allocatorIcEEEEEEC2B7v160006IJLm0EEJS9_EJEJEJS8_EEENS1_IJXspT_EEEENS_13__tuple_typesIJDpT0_EEENS1_IJXspT1_EEEENSD_IJDpT2_EEEDpOT3_, symObjAddr: 0x19B30, symBinAddr: 0x10001FA88, symSize: 0x34 }
  - { offsetInCU: 0x2EA55, offset: 0x60B53, size: 0x8, addend: 0x0, symName: __ZNSt3__112__tuple_leafILm0EONS_12basic_stringIcNS_11char_traitsIcEENS_9allocatorIcEEEELb0EEC2B7v160006IS6_vEEOT_, symObjAddr: 0x19B64, symBinAddr: 0x10001FABC, symSize: 0x20 }
  - { offsetInCU: 0x2EA98, offset: 0x60B96, size: 0x8, addend: 0x0, symName: __ZNSt3__110shared_ptrI4MenuEC1B7v160006I8MainMenuvEERKNS0_IT_EE, symObjAddr: 0x19BB0, symBinAddr: 0x10001FADC, symSize: 0x34 }
  - { offsetInCU: 0x2EADB, offset: 0x60BD9, size: 0x8, addend: 0x0, symName: __ZNSt3__110shared_ptrI4MenuE4swapB7v160006ERS2_, symObjAddr: 0x19BE4, symBinAddr: 0x10001FB10, symSize: 0x44 }
  - { offsetInCU: 0x2EB10, offset: 0x60C0E, size: 0x8, addend: 0x0, symName: __ZNSt3__110shared_ptrI4MenuEC2B7v160006I8MainMenuvEERKNS0_IT_EE, symObjAddr: 0x19C28, symBinAddr: 0x10001FB54, symSize: 0x70 }
  - { offsetInCU: 0x2EB53, offset: 0x60C51, size: 0x8, addend: 0x0, symName: __ZNSt3__110shared_ptrI4MenuEC1B7v160006I8InfoMenuvEERKNS0_IT_EE, symObjAddr: 0x19CD4, symBinAddr: 0x10001FC00, symSize: 0x34 }
  - { offsetInCU: 0x2EB96, offset: 0x60C94, size: 0x8, addend: 0x0, symName: __ZNSt3__110shared_ptrI4MenuEC2B7v160006I8InfoMenuvEERKNS0_IT_EE, symObjAddr: 0x19D08, symBinAddr: 0x10001FC34, symSize: 0x70 }
  - { offsetInCU: 0x2EBD9, offset: 0x60CD7, size: 0x8, addend: 0x0, symName: __ZNSt3__110shared_ptrI4MenuEC1B7v160006I9PauseMenuvEERKNS0_IT_EE, symObjAddr: 0x19D78, symBinAddr: 0x10001FCA4, symSize: 0x34 }
  - { offsetInCU: 0x2EC1C, offset: 0x60D1A, size: 0x8, addend: 0x0, symName: __ZNSt3__110shared_ptrI4MenuEC2B7v160006I9PauseMenuvEERKNS0_IT_EE, symObjAddr: 0x19DAC, symBinAddr: 0x10001FCD8, symSize: 0x70 }
  - { offsetInCU: 0x2EC5F, offset: 0x60D5D, size: 0x8, addend: 0x0, symName: __ZNSt3__110shared_ptrI4MenuEC1B7v160006I9DeathMenuvEERKNS0_IT_EE, symObjAddr: 0x19E1C, symBinAddr: 0x10001FD48, symSize: 0x34 }
  - { offsetInCU: 0x2ECA2, offset: 0x60DA0, size: 0x8, addend: 0x0, symName: __ZNSt3__110shared_ptrI4MenuEC2B7v160006I9DeathMenuvEERKNS0_IT_EE, symObjAddr: 0x19E50, symBinAddr: 0x10001FD7C, symSize: 0x70 }
  - { offsetInCU: 0x82, offset: 0x612E7, size: 0x8, addend: 0x0, symName: __ZNSt3__1L19piecewise_constructE, symObjAddr: 0xB4A7, symBinAddr: 0x10002688C, symSize: 0x0 }
  - { offsetInCU: 0x5CC1, offset: 0x66F26, size: 0x8, addend: 0x0, symName: __ZNSt3__113__fill_n_trueB7v160006INS_6vectorIbNS_9allocatorIbEEEEEEvNS_14__bit_iteratorIT_Lb0EXLi0EEEENS6_9size_typeE, symObjAddr: 0xABAC, symBinAddr: 0x100023650, symSize: 0x160 }
  - { offsetInCU: 0x5D86, offset: 0x66FEB, size: 0x8, addend: 0x0, symName: __ZNSt3__114__fill_n_falseB7v160006INS_6vectorIbNS_9allocatorIbEEEEEEvNS_14__bit_iteratorIT_Lb0EXLi0EEEENS6_9size_typeE, symObjAddr: 0xAD40, symBinAddr: 0x1000237E4, symSize: 0x15C }
  - { offsetInCU: 0x6B22, offset: 0x67D87, size: 0x8, addend: 0x0, symName: __ZNSt3__1neB7v160006IPKNS_10shared_ptrI5EnemyEEEEbRKNS_11__wrap_iterIT_EESA_, symObjAddr: 0x704, symBinAddr: 0x100020354, symSize: 0x34 }
  - { offsetInCU: 0x6B65, offset: 0x67DCA, size: 0x8, addend: 0x0, symName: __ZNSt3__1neB7v160006IPKNS_10shared_ptrI6ButtonEEEEbRKNS_11__wrap_iterIT_EESA_, symObjAddr: 0x848, symBinAddr: 0x100020438, symSize: 0x34 }
  - { offsetInCU: 0x6BA8, offset: 0x67E0D, size: 0x8, addend: 0x0, symName: __ZNSt3__1neB7v160006IPNS_10shared_ptrI6ButtonEEEEbRKNS_11__wrap_iterIT_EES9_, symObjAddr: 0xA8C, symBinAddr: 0x10002067C, symSize: 0x34 }
  - { offsetInCU: 0x6BEB, offset: 0x67E50, size: 0x8, addend: 0x0, symName: __ZNSt3__1neB7v160006IPNS_10shared_ptrI5EnemyEEEEbRKNS_11__wrap_iterIT_EES9_, symObjAddr: 0x1004, symBinAddr: 0x100020B94, symSize: 0x34 }
  - { offsetInCU: 0x6C2E, offset: 0x67E93, size: 0x8, addend: 0x0, symName: __ZNSt3__1eqB7v160006IPKNS_10shared_ptrI5EnemyEEEEbRKNS_11__wrap_iterIT_EESA_, symObjAddr: 0x3310, symBinAddr: 0x100022C1C, symSize: 0x48 }
  - { offsetInCU: 0x6C71, offset: 0x67ED6, size: 0x8, addend: 0x0, symName: __ZNSt3__1eqB7v160006IPKNS_10shared_ptrI6ButtonEEEEbRKNS_11__wrap_iterIT_EESA_, symObjAddr: 0x3370, symBinAddr: 0x100022C7C, symSize: 0x48 }
  - { offsetInCU: 0x6CB4, offset: 0x67F19, size: 0x8, addend: 0x0, symName: __ZNSt3__1eqB7v160006IPNS_10shared_ptrI6ButtonEEEEbRKNS_11__wrap_iterIT_EES9_, symObjAddr: 0x33D0, symBinAddr: 0x100022CDC, symSize: 0x48 }
  - { offsetInCU: 0x6CF7, offset: 0x67F5C, size: 0x8, addend: 0x0, symName: __ZNSt3__1eqB7v160006IPNS_10shared_ptrI5EnemyEEEEbRKNS_11__wrap_iterIT_EES9_, symObjAddr: 0x3430, symBinAddr: 0x100022D3C, symSize: 0x48 }
  - { offsetInCU: 0x6D3A, offset: 0x67F9F, size: 0x8, addend: 0x0, symName: __ZNSt3__119__allocate_at_leastB7v160006INS_9allocatorImEEEENS_19__allocation_resultINS_16allocator_traitsIT_E7pointerEEERS5_m, symObjAddr: 0xA880, symBinAddr: 0x1000233D0, symSize: 0x40 }
  - { offsetInCU: 0x6F69, offset: 0x681CE, size: 0x8, addend: 0x0, symName: __ZNSt3__16fill_nB7v160006INS_6vectorIbNS_9allocatorIbEEEEEEvNS_14__bit_iteratorIT_Lb0EXLi0EEEENS6_9size_typeEb, symObjAddr: 0xAAB4, symBinAddr: 0x100023558, symSize: 0x94 }
  - { offsetInCU: 0x6FBB, offset: 0x68220, size: 0x8, addend: 0x0, symName: __ZNSt3__16fill_nB7v160006IPmmmEET_S2_T0_RKT1_, symObjAddr: 0xAE9C, symBinAddr: 0x100023940, symSize: 0x44 }
  - { offsetInCU: 0x701E, offset: 0x68283, size: 0x8, addend: 0x0, symName: __ZNSt3__112__to_addressB7v160006ImEEPT_S2_, symObjAddr: 0xAEE0, symBinAddr: 0x100023984, symSize: 0x14 }
  - { offsetInCU: 0x7053, offset: 0x682B8, size: 0x8, addend: 0x0, symName: __ZNSt3__18__fill_nB7v160006IPmmmEET_S2_T0_RKT1_, symObjAddr: 0xAEF4, symBinAddr: 0x100023998, symSize: 0x64 }
  - { offsetInCU: 0x70B6, offset: 0x6831B, size: 0x8, addend: 0x0, symName: __ZNSt3__121__convert_to_integralB7v160006Em, symObjAddr: 0xAF58, symBinAddr: 0x1000239FC, symSize: 0x14 }
  - { offsetInCU: 0x70E2, offset: 0x68347, size: 0x8, addend: 0x0, symName: __ZNSt3__16fill_nB7v160006IPmmiEET_S2_T0_RKT1_, symObjAddr: 0xAF9C, symBinAddr: 0x100023A40, symSize: 0x44 }
  - { offsetInCU: 0x7145, offset: 0x683AA, size: 0x8, addend: 0x0, symName: __ZNSt3__18__fill_nB7v160006IPmmiEET_S2_T0_RKT1_, symObjAddr: 0xAFE0, symBinAddr: 0x100023A84, symSize: 0x64 }
  - { offsetInCU: 0x99D7, offset: 0x6AC3C, size: 0x8, addend: 0x0, symName: __ZN9LevelGridC2ENSt3__15arrayINS1_IiLm80EEELm40EEE6mypairIiENS0_6vectorINS0_4pairIS5_iEENS0_9allocatorIS8_EEEENS6_INS0_10shared_ptrI5EnemyEENS9_ISE_EEEENS6_INSC_I6ButtonEENS9_ISI_EEEENS0_3mapISI_NSC_I19HorizontalSlideDoorEENS0_4lessISI_EENS9_INS7_IKSI_SN_EEEEEER15PlayerCharacter, symObjAddr: 0x0, symBinAddr: 0x10001FDEC, symSize: 0x13C }
  - { offsetInCU: 0x9A6A, offset: 0x6ACCF, size: 0x8, addend: 0x0, symName: __ZN9LevelGridC1ENSt3__15arrayINS1_IiLm80EEELm40EEE6mypairIiENS0_6vectorINS0_4pairIS5_iEENS0_9allocatorIS8_EEEENS6_INS0_10shared_ptrI5EnemyEENS9_ISE_EEEENS6_INSC_I6ButtonEENS9_ISI_EEEENS0_3mapISI_NSC_I19HorizontalSlideDoorEENS0_4lessISI_EENS9_INS7_IKSI_SN_EEEEEER15PlayerCharacter, symObjAddr: 0x290, symBinAddr: 0x10001FF28, symSize: 0x64 }
  - { offsetInCU: 0x9AFD, offset: 0x6AD62, size: 0x8, addend: 0x0, symName: __ZNK9LevelGrid12displayWallsEP7_win_st, symObjAddr: 0x2F4, symBinAddr: 0x10001FF8C, symSize: 0x1F0 }
  - { offsetInCU: 0x9B6B, offset: 0x6ADD0, size: 0x8, addend: 0x0, symName: __ZNK9LevelGrid15displayEntitiesEP7_win_st, symObjAddr: 0x560, symBinAddr: 0x1000201B0, symSize: 0x144 }
  - { offsetInCU: 0x9C35, offset: 0x6AE9A, size: 0x8, addend: 0x0, symName: __ZNKSt3__16vectorINS_10shared_ptrI5EnemyEENS_9allocatorIS3_EEE5beginB7v160006Ev, symObjAddr: 0x6A4, symBinAddr: 0x1000202F4, symSize: 0x30 }
  - { offsetInCU: 0x9C5D, offset: 0x6AEC2, size: 0x8, addend: 0x0, symName: __ZNKSt3__16vectorINS_10shared_ptrI5EnemyEENS_9allocatorIS3_EEE3endB7v160006Ev, symObjAddr: 0x6D4, symBinAddr: 0x100020324, symSize: 0x30 }
  - { offsetInCU: 0x9C85, offset: 0x6AEEA, size: 0x8, addend: 0x0, symName: __ZNKSt3__111__wrap_iterIPKNS_10shared_ptrI5EnemyEEEdeB7v160006Ev, symObjAddr: 0x738, symBinAddr: 0x100020388, symSize: 0x18 }
  - { offsetInCU: 0x9CAB, offset: 0x6AF10, size: 0x8, addend: 0x0, symName: __ZNKSt3__110shared_ptrI5EnemyEptB7v160006Ev, symObjAddr: 0x784, symBinAddr: 0x1000203A0, symSize: 0x18 }
  - { offsetInCU: 0x9CD1, offset: 0x6AF36, size: 0x8, addend: 0x0, symName: __ZNSt3__111__wrap_iterIPKNS_10shared_ptrI5EnemyEEEppB7v160006Ev, symObjAddr: 0x7C8, symBinAddr: 0x1000203B8, symSize: 0x20 }
  - { offsetInCU: 0x9CF7, offset: 0x6AF5C, size: 0x8, addend: 0x0, symName: __ZNKSt3__16vectorINS_10shared_ptrI6ButtonEENS_9allocatorIS3_EEE5beginB7v160006Ev, symObjAddr: 0x7E8, symBinAddr: 0x1000203D8, symSize: 0x30 }
  - { offsetInCU: 0x9D1F, offset: 0x6AF84, size: 0x8, addend: 0x0, symName: __ZNKSt3__16vectorINS_10shared_ptrI6ButtonEENS_9allocatorIS3_EEE3endB7v160006Ev, symObjAddr: 0x818, symBinAddr: 0x100020408, symSize: 0x30 }
  - { offsetInCU: 0x9D47, offset: 0x6AFAC, size: 0x8, addend: 0x0, symName: __ZNKSt3__111__wrap_iterIPKNS_10shared_ptrI6ButtonEEEdeB7v160006Ev, symObjAddr: 0x87C, symBinAddr: 0x10002046C, symSize: 0x18 }
  - { offsetInCU: 0x9D6D, offset: 0x6AFD2, size: 0x8, addend: 0x0, symName: __ZNKSt3__110shared_ptrI6ButtonEptB7v160006Ev, symObjAddr: 0x894, symBinAddr: 0x100020484, symSize: 0x18 }
  - { offsetInCU: 0x9D93, offset: 0x6AFF8, size: 0x8, addend: 0x0, symName: __ZNSt3__111__wrap_iterIPKNS_10shared_ptrI6ButtonEEEppB7v160006Ev, symObjAddr: 0x8AC, symBinAddr: 0x10002049C, symSize: 0x20 }
  - { offsetInCU: 0x9DB9, offset: 0x6B01E, size: 0x8, addend: 0x0, symName: __ZN9LevelGrid21updateButtonsAndDoorsEv, symObjAddr: 0x8CC, symBinAddr: 0x1000204BC, symSize: 0x160 }
  - { offsetInCU: 0x9E32, offset: 0x6B097, size: 0x8, addend: 0x0, symName: __ZNSt3__16vectorINS_10shared_ptrI6ButtonEENS_9allocatorIS3_EEE5beginB7v160006Ev, symObjAddr: 0xA2C, symBinAddr: 0x10002061C, symSize: 0x30 }
  - { offsetInCU: 0x9E5A, offset: 0x6B0BF, size: 0x8, addend: 0x0, symName: __ZNSt3__16vectorINS_10shared_ptrI6ButtonEENS_9allocatorIS3_EEE3endB7v160006Ev, symObjAddr: 0xA5C, symBinAddr: 0x10002064C, symSize: 0x30 }
  - { offsetInCU: 0x9E82, offset: 0x6B0E7, size: 0x8, addend: 0x0, symName: __ZNKSt3__111__wrap_iterIPNS_10shared_ptrI6ButtonEEEdeB7v160006Ev, symObjAddr: 0xAC0, symBinAddr: 0x1000206B0, symSize: 0x18 }
  - { offsetInCU: 0x9EA8, offset: 0x6B10D, size: 0x8, addend: 0x0, symName: __ZN6Button11readyToMoveENSt3__16chrono10time_pointINS1_12steady_clockENS1_8durationIxNS0_5ratioILl1ELl1000000000EEEEEEE, symObjAddr: 0xAD8, symBinAddr: 0x1000206C8, symSize: 0x98 }
  - { offsetInCU: 0x9EDE, offset: 0x6B143, size: 0x8, addend: 0x0, symName: __ZN6Button19updatePressedStatusERK15PlayerCharacter, symObjAddr: 0xB70, symBinAddr: 0x100020760, symSize: 0x78 }
  - { offsetInCU: 0x9F14, offset: 0x6B179, size: 0x8, addend: 0x0, symName: __ZNK6Button14wantToOpenDoorEv, symObjAddr: 0xBE8, symBinAddr: 0x1000207D8, symSize: 0x9C }
  - { offsetInCU: 0x9F3C, offset: 0x6B1A1, size: 0x8, addend: 0x0, symName: __ZN9LevelGrid8openDoorENSt3__110shared_ptrI6ButtonEE, symObjAddr: 0xC84, symBinAddr: 0x100020874, symSize: 0xEC }
  - { offsetInCU: 0x9F73, offset: 0x6B1D8, size: 0x8, addend: 0x0, symName: __ZN9LevelGrid9closeDoorENSt3__110shared_ptrI6ButtonEE, symObjAddr: 0xDD0, symBinAddr: 0x100020960, symSize: 0xF4 }
  - { offsetInCU: 0x9FAA, offset: 0x6B20F, size: 0x8, addend: 0x0, symName: __ZNSt3__111__wrap_iterIPNS_10shared_ptrI6ButtonEEEppB7v160006Ev, symObjAddr: 0xEC4, symBinAddr: 0x100020A54, symSize: 0x20 }
  - { offsetInCU: 0x9FD0, offset: 0x6B235, size: 0x8, addend: 0x0, symName: __ZN9LevelGrid13updateEnemiesEv, symObjAddr: 0xEE4, symBinAddr: 0x100020A74, symSize: 0xC0 }
  - { offsetInCU: 0xA057, offset: 0x6B2BC, size: 0x8, addend: 0x0, symName: __ZNSt3__16vectorINS_10shared_ptrI5EnemyEENS_9allocatorIS3_EEE5beginB7v160006Ev, symObjAddr: 0xFA4, symBinAddr: 0x100020B34, symSize: 0x30 }
  - { offsetInCU: 0xA07F, offset: 0x6B2E4, size: 0x8, addend: 0x0, symName: __ZNSt3__16vectorINS_10shared_ptrI5EnemyEENS_9allocatorIS3_EEE3endB7v160006Ev, symObjAddr: 0xFD4, symBinAddr: 0x100020B64, symSize: 0x30 }
  - { offsetInCU: 0xA0A7, offset: 0x6B30C, size: 0x8, addend: 0x0, symName: __ZNKSt3__111__wrap_iterIPNS_10shared_ptrI5EnemyEEEdeB7v160006Ev, symObjAddr: 0x1038, symBinAddr: 0x100020BC8, symSize: 0x18 }
  - { offsetInCU: 0xA0CD, offset: 0x6B332, size: 0x8, addend: 0x0, symName: __ZNSt3__111__wrap_iterIPNS_10shared_ptrI5EnemyEEEppB7v160006Ev, symObjAddr: 0x1050, symBinAddr: 0x100020BE0, symSize: 0x20 }
  - { offsetInCU: 0xA0F3, offset: 0x6B358, size: 0x8, addend: 0x0, symName: __ZN9LevelGrid10resetLevelEv, symObjAddr: 0x1070, symBinAddr: 0x100020C00, symSize: 0x100 }
  - { offsetInCU: 0xA137, offset: 0x6B39C, size: 0x8, addend: 0x0, symName: __ZNSt3__16vectorINS_10shared_ptrI5EnemyEENS_9allocatorIS3_EEEixB7v160006Em, symObjAddr: 0x1198, symBinAddr: 0x100020D00, symSize: 0x24 }
  - { offsetInCU: 0xA16E, offset: 0x6B3D3, size: 0x8, addend: 0x0, symName: __ZNKSt3__16vectorINS_4pairI6mypairIiEiEENS_9allocatorIS4_EEEixB7v160006Em, symObjAddr: 0x11BC, symBinAddr: 0x100020D24, symSize: 0x2C }
  - { offsetInCU: 0xA1A5, offset: 0x6B40A, size: 0x8, addend: 0x0, symName: __ZNK9LevelGrid9detectHitEv, symObjAddr: 0x11E8, symBinAddr: 0x100020D50, symSize: 0xDC }
  - { offsetInCU: 0xA21E, offset: 0x6B483, size: 0x8, addend: 0x0, symName: __ZNKSt3__110shared_ptrI19HorizontalSlideDoorEptB7v160006Ev, symObjAddr: 0x13CC, symBinAddr: 0x100020E2C, symSize: 0x18 }
  - { offsetInCU: 0xA244, offset: 0x6B4A9, size: 0x8, addend: 0x0, symName: __ZNK19HorizontalSlideDoor8okToOpenEv, symObjAddr: 0x13E4, symBinAddr: 0x100020E44, symSize: 0x64 }
  - { offsetInCU: 0xA26C, offset: 0x6B4D1, size: 0x8, addend: 0x0, symName: __ZNSt3__15arrayINS0_IiLm80EEELm40EEixB7v160006Em, symObjAddr: 0x1448, symBinAddr: 0x100020EA8, symSize: 0x28 }
  - { offsetInCU: 0xA2A0, offset: 0x6B505, size: 0x8, addend: 0x0, symName: __ZNK19HorizontalSlideDoor17posNextDoorToOpenEv, symObjAddr: 0x1470, symBinAddr: 0x100020ED0, symSize: 0x3C }
  - { offsetInCU: 0xA2C8, offset: 0x6B52D, size: 0x8, addend: 0x0, symName: __ZNSt3__15arrayIiLm80EEixB7v160006Em, symObjAddr: 0x14AC, symBinAddr: 0x100020F0C, symSize: 0x20 }
  - { offsetInCU: 0xA2FC, offset: 0x6B561, size: 0x8, addend: 0x0, symName: __ZN19HorizontalSlideDoor15updateDoorsOpenEi, symObjAddr: 0x14CC, symBinAddr: 0x100020F2C, symSize: 0x40 }
  - { offsetInCU: 0xA332, offset: 0x6B597, size: 0x8, addend: 0x0, symName: __ZNK19HorizontalSlideDoor9okToCloseEv, symObjAddr: 0x150C, symBinAddr: 0x100020F6C, symSize: 0x58 }
  - { offsetInCU: 0xA35A, offset: 0x6B5BF, size: 0x8, addend: 0x0, symName: __ZN6EntityC2E6mypairIiE, symObjAddr: 0x1564, symBinAddr: 0x100020FC4, symSize: 0x30 }
  - { offsetInCU: 0xA394, offset: 0x6B5F9, size: 0x8, addend: 0x0, symName: __ZN6EntityD2Ev, symObjAddr: 0x1594, symBinAddr: 0x100020FF4, symSize: 0x14 }
  - { offsetInCU: 0xA3C0, offset: 0x6B625, size: 0x8, addend: 0x0, symName: __ZN6EntityD1Ev, symObjAddr: 0x15A8, symBinAddr: 0x100021008, symSize: 0x14 }
  - { offsetInCU: 0xA3EC, offset: 0x6B651, size: 0x8, addend: 0x0, symName: __ZN6EntityD0Ev, symObjAddr: 0x15BC, symBinAddr: 0x10002101C, symSize: 0xC }
  - { offsetInCU: 0xA418, offset: 0x6B67D, size: 0x8, addend: 0x0, symName: __ZN19HorizontalSlideDoorC2E6mypairIiES1_i, symObjAddr: 0x15C8, symBinAddr: 0x100021028, symSize: 0x30 }
  - { offsetInCU: 0xA46E, offset: 0x6B6D3, size: 0x8, addend: 0x0, symName: __ZN19HorizontalSlideDoorC1E6mypairIiES1_i, symObjAddr: 0x15F8, symBinAddr: 0x100021058, symSize: 0x44 }
  - { offsetInCU: 0xA4C4, offset: 0x6B729, size: 0x8, addend: 0x0, symName: __ZN12LivingEntityC2E6mypairIiEii, symObjAddr: 0x1678, symBinAddr: 0x10002109C, symSize: 0xAC }
  - { offsetInCU: 0xA51A, offset: 0x6B77F, size: 0x8, addend: 0x0, symName: __ZNSt3__16vectorIbNS_9allocatorIbEEEC1EmRKb, symObjAddr: 0x1724, symBinAddr: 0x100021148, symSize: 0x3C }
  - { offsetInCU: 0xA564, offset: 0x6B7C9, size: 0x8, addend: 0x0, symName: __ZN6ButtonC2E6mypairIiEbbc, symObjAddr: 0x1760, symBinAddr: 0x100021184, symSize: 0xE4 }
  - { offsetInCU: 0xA5CD, offset: 0x6B832, size: 0x8, addend: 0x0, symName: __ZN6ButtonC1E6mypairIiEbbc, symObjAddr: 0x1880, symBinAddr: 0x100021268, symSize: 0x60 }
  - { offsetInCU: 0xA631, offset: 0x6B896, size: 0x8, addend: 0x0, symName: __ZNK6Button7displayEP7_win_st, symObjAddr: 0x18E0, symBinAddr: 0x1000212C8, symSize: 0x50 }
  - { offsetInCU: 0xA667, offset: 0x6B8CC, size: 0x8, addend: 0x0, symName: __ZNK6ButtonltERKS_, symObjAddr: 0x19EC, symBinAddr: 0x100021318, symSize: 0x30 }
  - { offsetInCU: 0xA69C, offset: 0x6B901, size: 0x8, addend: 0x0, symName: __Z22integerDivisionRoundedii, symObjAddr: 0x1A1C, symBinAddr: 0x100021348, symSize: 0x7C }
  - { offsetInCU: 0xA6F2, offset: 0x6B957, size: 0x8, addend: 0x0, symName: __Z16makeLevel_1Wallsv, symObjAddr: 0x1A98, symBinAddr: 0x1000213C4, symSize: 0x970 }
  - { offsetInCU: 0xA774, offset: 0x6B9D9, size: 0x8, addend: 0x0, symName: __Z16makeLevel_2Wallsv, symObjAddr: 0x2408, symBinAddr: 0x100021D34, symSize: 0x5E8 }
  - { offsetInCU: 0xA7FB, offset: 0x6BA60, size: 0x8, addend: 0x0, symName: __Z16makeLevel_3Wallsv, symObjAddr: 0x29F0, symBinAddr: 0x10002231C, symSize: 0x8A4 }
  - { offsetInCU: 0xA883, offset: 0x6BAE8, size: 0x8, addend: 0x0, symName: __ZN6ButtonD1Ev, symObjAddr: 0x3294, symBinAddr: 0x100022BC0, symSize: 0x2C }
  - { offsetInCU: 0xA8AF, offset: 0x6BB14, size: 0x8, addend: 0x0, symName: __ZN6ButtonD0Ev, symObjAddr: 0x32C0, symBinAddr: 0x100022BEC, symSize: 0x30 }
  - { offsetInCU: 0xA8DB, offset: 0x6BB40, size: 0x8, addend: 0x0, symName: __ZNKSt3__111__wrap_iterIPKNS_10shared_ptrI5EnemyEEE4baseB7v160006Ev, symObjAddr: 0x3358, symBinAddr: 0x100022C64, symSize: 0x18 }
  - { offsetInCU: 0xA901, offset: 0x6BB66, size: 0x8, addend: 0x0, symName: __ZNKSt3__111__wrap_iterIPKNS_10shared_ptrI6ButtonEEE4baseB7v160006Ev, symObjAddr: 0x33B8, symBinAddr: 0x100022CC4, symSize: 0x18 }
  - { offsetInCU: 0xA927, offset: 0x6BB8C, size: 0x8, addend: 0x0, symName: __ZNKSt3__111__wrap_iterIPNS_10shared_ptrI6ButtonEEE4baseB7v160006Ev, symObjAddr: 0x3418, symBinAddr: 0x100022D24, symSize: 0x18 }
  - { offsetInCU: 0xA94D, offset: 0x6BBB2, size: 0x8, addend: 0x0, symName: __ZNKSt3__111__wrap_iterIPNS_10shared_ptrI5EnemyEEE4baseB7v160006Ev, symObjAddr: 0x3478, symBinAddr: 0x100022D84, symSize: 0x18 }
  - { offsetInCU: 0xA973, offset: 0x6BBD8, size: 0x8, addend: 0x0, symName: __ZN6ButtonD2Ev, symObjAddr: 0x370C, symBinAddr: 0x100022D9C, symSize: 0x2C }
  - { offsetInCU: 0xAA07, offset: 0x6BC6C, size: 0x8, addend: 0x0, symName: __ZNKSt3__16vectorINS_10shared_ptrI5EnemyEENS_9allocatorIS3_EEE11__make_iterB7v160006EPKS3_, symObjAddr: 0x9B50, symBinAddr: 0x100022DC8, symSize: 0x34 }
  - { offsetInCU: 0xAA3D, offset: 0x6BCA2, size: 0x8, addend: 0x0, symName: __ZNSt3__111__wrap_iterIPKNS_10shared_ptrI5EnemyEEEC1B7v160006EPKvS5_, symObjAddr: 0x9B84, symBinAddr: 0x100022DFC, symSize: 0x3C }
  - { offsetInCU: 0xAA83, offset: 0x6BCE8, size: 0x8, addend: 0x0, symName: __ZNSt3__111__wrap_iterIPKNS_10shared_ptrI5EnemyEEEC2B7v160006EPKvS5_, symObjAddr: 0x9BC0, symBinAddr: 0x100022E38, symSize: 0x24 }
  - { offsetInCU: 0xAAC8, offset: 0x6BD2D, size: 0x8, addend: 0x0, symName: __ZNKSt3__16vectorINS_10shared_ptrI6ButtonEENS_9allocatorIS3_EEE11__make_iterB7v160006EPKS3_, symObjAddr: 0x9CA8, symBinAddr: 0x100022E5C, symSize: 0x34 }
  - { offsetInCU: 0xAAFE, offset: 0x6BD63, size: 0x8, addend: 0x0, symName: __ZNSt3__111__wrap_iterIPKNS_10shared_ptrI6ButtonEEEC1B7v160006EPKvS5_, symObjAddr: 0x9CDC, symBinAddr: 0x100022E90, symSize: 0x3C }
  - { offsetInCU: 0xAB44, offset: 0x6BDA9, size: 0x8, addend: 0x0, symName: __ZNSt3__111__wrap_iterIPKNS_10shared_ptrI6ButtonEEEC2B7v160006EPKvS5_, symObjAddr: 0x9D18, symBinAddr: 0x100022ECC, symSize: 0x24 }
  - { offsetInCU: 0xAB89, offset: 0x6BDEE, size: 0x8, addend: 0x0, symName: __ZNSt3__16vectorINS_10shared_ptrI6ButtonEENS_9allocatorIS3_EEE11__make_iterB7v160006EPS3_, symObjAddr: 0x9D3C, symBinAddr: 0x100022EF0, symSize: 0x34 }
  - { offsetInCU: 0xABBF, offset: 0x6BE24, size: 0x8, addend: 0x0, symName: __ZNSt3__111__wrap_iterIPNS_10shared_ptrI6ButtonEEEC1B7v160006EPKvS4_, symObjAddr: 0x9D70, symBinAddr: 0x100022F24, symSize: 0x3C }
  - { offsetInCU: 0xAC05, offset: 0x6BE6A, size: 0x8, addend: 0x0, symName: __ZNSt3__111__wrap_iterIPNS_10shared_ptrI6ButtonEEEC2B7v160006EPKvS4_, symObjAddr: 0x9DAC, symBinAddr: 0x100022F60, symSize: 0x24 }
  - { offsetInCU: 0xAC4A, offset: 0x6BEAF, size: 0x8, addend: 0x0, symName: __ZNSt3__16vectorINS_10shared_ptrI5EnemyEENS_9allocatorIS3_EEE11__make_iterB7v160006EPS3_, symObjAddr: 0x9E94, symBinAddr: 0x100022F84, symSize: 0x34 }
  - { offsetInCU: 0xAC80, offset: 0x6BEE5, size: 0x8, addend: 0x0, symName: __ZNSt3__111__wrap_iterIPNS_10shared_ptrI5EnemyEEEC1B7v160006EPKvS4_, symObjAddr: 0x9EC8, symBinAddr: 0x100022FB8, symSize: 0x3C }
  - { offsetInCU: 0xACC6, offset: 0x6BF2B, size: 0x8, addend: 0x0, symName: __ZNSt3__111__wrap_iterIPNS_10shared_ptrI5EnemyEEEC2B7v160006EPKvS4_, symObjAddr: 0x9F04, symBinAddr: 0x100022FF4, symSize: 0x24 }
  - { offsetInCU: 0xAD16, offset: 0x6BF7B, size: 0x8, addend: 0x0, symName: __ZNSt3__16vectorIbNS_9allocatorIbEEEC2EmRKb, symObjAddr: 0xA4C8, symBinAddr: 0x100023018, symSize: 0x90 }
  - { offsetInCU: 0xAD60, offset: 0x6BFC5, size: 0x8, addend: 0x0, symName: __ZNSt3__117__compressed_pairImNS_9allocatorImEEEC1B7v160006IiNS_18__default_init_tagEEEOT_OT0_, symObjAddr: 0xA558, symBinAddr: 0x1000230A8, symSize: 0x3C }
  - { offsetInCU: 0xADB7, offset: 0x6C01C, size: 0x8, addend: 0x0, symName: __ZNSt3__16vectorIbNS_9allocatorIbEEE11__vallocateB7v160006Em, symObjAddr: 0xA594, symBinAddr: 0x1000230E4, symSize: 0xA0 }
  - { offsetInCU: 0xADFC, offset: 0x6C061, size: 0x8, addend: 0x0, symName: __ZNSt3__16vectorIbNS_9allocatorIbEEE18__construct_at_endB7v160006Emb, symObjAddr: 0xA634, symBinAddr: 0x100023184, symSize: 0x108 }
  - { offsetInCU: 0xAE51, offset: 0x6C0B6, size: 0x8, addend: 0x0, symName: __ZNSt3__117__compressed_pairImNS_9allocatorImEEEC2B7v160006IiNS_18__default_init_tagEEEOT_OT0_, symObjAddr: 0xA73C, symBinAddr: 0x10002328C, symSize: 0x40 }
  - { offsetInCU: 0xAEA9, offset: 0x6C10E, size: 0x8, addend: 0x0, symName: __ZNSt3__122__compressed_pair_elemINS_9allocatorImEELi1ELb1EEC2B7v160006ENS_18__default_init_tagE, symObjAddr: 0xA77C, symBinAddr: 0x1000232CC, symSize: 0x2C }
  - { offsetInCU: 0xAEDD, offset: 0x6C142, size: 0x8, addend: 0x0, symName: __ZNSt3__19allocatorImEC2B7v160006Ev, symObjAddr: 0xA7A8, symBinAddr: 0x1000232F8, symSize: 0x2C }
  - { offsetInCU: 0xAF07, offset: 0x6C16C, size: 0x8, addend: 0x0, symName: __ZNSt3__116__non_trivial_ifILb1ENS_9allocatorImEEEC2B7v160006Ev, symObjAddr: 0xA7D4, symBinAddr: 0x100023324, symSize: 0x14 }
  - { offsetInCU: 0xAF31, offset: 0x6C196, size: 0x8, addend: 0x0, symName: __ZNKSt3__16vectorIbNS_9allocatorIbEEE8max_sizeEv, symObjAddr: 0xA7E8, symBinAddr: 0x100023338, symSize: 0x7C }
  - { offsetInCU: 0xAF76, offset: 0x6C1DB, size: 0x8, addend: 0x0, symName: __ZNKSt3__16vectorIbNS_9allocatorIbEEE20__throw_length_errorB7v160006Ev, symObjAddr: 0xA864, symBinAddr: 0x1000233B4, symSize: 0x1C }
  - { offsetInCU: 0xAF9D, offset: 0x6C202, size: 0x8, addend: 0x0, symName: __ZNSt3__16vectorIbNS_9allocatorIbEEE26__external_cap_to_internalB7v160006Em, symObjAddr: 0xA8E8, symBinAddr: 0x100023410, symSize: 0x24 }
  - { offsetInCU: 0xAFCB, offset: 0x6C230, size: 0x8, addend: 0x0, symName: __ZNSt3__116allocator_traitsINS_9allocatorImEEE8max_sizeB7v160006IS2_vEEmRKS2_, symObjAddr: 0xA934, symBinAddr: 0x100023434, symSize: 0x24 }
  - { offsetInCU: 0xAFF8, offset: 0x6C25D, size: 0x8, addend: 0x0, symName: __ZNKSt3__16vectorIbNS_9allocatorIbEEE7__allocB7v160006Ev, symObjAddr: 0xA958, symBinAddr: 0x100023458, symSize: 0x28 }
  - { offsetInCU: 0xB01F, offset: 0x6C284, size: 0x8, addend: 0x0, symName: __ZNSt3__114numeric_limitsImE3maxB7v160006Ev, symObjAddr: 0xA980, symBinAddr: 0x100023480, symSize: 0x14 }
  - { offsetInCU: 0xB033, offset: 0x6C298, size: 0x8, addend: 0x0, symName: __ZNSt3__16vectorIbNS_9allocatorIbEEE26__internal_cap_to_externalB7v160006Em, symObjAddr: 0xA994, symBinAddr: 0x100023494, symSize: 0x18 }
  - { offsetInCU: 0xB057, offset: 0x6C2BC, size: 0x8, addend: 0x0, symName: __ZNKSt3__19allocatorImE8max_sizeB7v160006Ev, symObjAddr: 0xA9AC, symBinAddr: 0x1000234AC, symSize: 0x14 }
  - { offsetInCU: 0xB07C, offset: 0x6C2E1, size: 0x8, addend: 0x0, symName: __ZNKSt3__117__compressed_pairImNS_9allocatorImEEE6secondB7v160006Ev, symObjAddr: 0xA9C0, symBinAddr: 0x1000234C0, symSize: 0x24 }
  - { offsetInCU: 0xB0A3, offset: 0x6C308, size: 0x8, addend: 0x0, symName: __ZNKSt3__122__compressed_pair_elemINS_9allocatorImEELi1ELb1EE5__getB7v160006Ev, symObjAddr: 0xA9E4, symBinAddr: 0x1000234E4, symSize: 0x14 }
  - { offsetInCU: 0xB0C9, offset: 0x6C32E, size: 0x8, addend: 0x0, symName: __ZNSt3__123__libcpp_numeric_limitsImLb1EE3maxB7v160006Ev, symObjAddr: 0xA9F8, symBinAddr: 0x1000234F8, symSize: 0x8 }
  - { offsetInCU: 0xB0DC, offset: 0x6C341, size: 0x8, addend: 0x0, symName: __ZNSt3__19allocatorImE8allocateB7v160006Em, symObjAddr: 0xAA00, symBinAddr: 0x100023500, symSize: 0x58 }
  - { offsetInCU: 0xB110, offset: 0x6C375, size: 0x8, addend: 0x0, symName: __ZNSt3__16vectorIbNS_9allocatorIbEEE11__make_iterB7v160006Em, symObjAddr: 0xAB48, symBinAddr: 0x1000235EC, symSize: 0x64 }
  - { offsetInCU: 0xB146, offset: 0x6C3AB, size: 0x8, addend: 0x0, symName: __ZNSt3__114__bit_iteratorINS_6vectorIbNS_9allocatorIbEEEELb0ELm0EEC1B7v160006ERKS5_, symObjAddr: 0xAD0C, symBinAddr: 0x1000237B0, symSize: 0x34 }
  - { offsetInCU: 0xB17F, offset: 0x6C3E4, size: 0x8, addend: 0x0, symName: __ZNSt3__114__bit_iteratorINS_6vectorIbNS_9allocatorIbEEEELb0ELm0EEC2B7v160006ERKS5_, symObjAddr: 0xAF6C, symBinAddr: 0x100023A10, symSize: 0x30 }
  - { offsetInCU: 0xB1B8, offset: 0x6C41D, size: 0x8, addend: 0x0, symName: __ZNSt3__114__bit_iteratorINS_6vectorIbNS_9allocatorIbEEEELb0ELm0EEC1B7v160006EPmj, symObjAddr: 0xB044, symBinAddr: 0x100023AE8, symSize: 0x3C }
  - { offsetInCU: 0xB200, offset: 0x6C465, size: 0x8, addend: 0x0, symName: __ZNSt3__114__bit_iteratorINS_6vectorIbNS_9allocatorIbEEEELb0ELm0EEC2B7v160006EPmj, symObjAddr: 0xB080, symBinAddr: 0x100023B24, symSize: 0x2C }
  - { offsetInCU: 0x624F, offset: 0x727AF, size: 0x8, addend: 0x0, symName: __ZN4MenuC2EP7_win_stNSt3__16vectorINS2_12basic_stringIcNS2_11char_traitsIcEENS2_9allocatorIcEEEENS7_IS9_EEEEiNS3_IiNS7_IiEEEEi, symObjAddr: 0x0, symBinAddr: 0x100023B50, symSize: 0xB8 }
  - { offsetInCU: 0x62C3, offset: 0x72823, size: 0x8, addend: 0x0, symName: __ZN4Menu12chooseOptionEv, symObjAddr: 0x14C, symBinAddr: 0x100023C08, symSize: 0x1B0 }
  - { offsetInCU: 0x62F9, offset: 0x72859, size: 0x8, addend: 0x0, symName: __ZNSt3__16vectorIiNS_9allocatorIiEEEixB7v160006Em, symObjAddr: 0x2FC, symBinAddr: 0x100023DB8, symSize: 0x24 }
  - { offsetInCU: 0x6335, offset: 0x72895, size: 0x8, addend: 0x0, symName: __ZN8MainMenuC2EP7_win_stNSt3__16vectorINS2_12basic_stringIcNS2_11char_traitsIcEENS2_9allocatorIcEEEENS7_IS9_EEEEiNS3_IiNS7_IiEEEEi, symObjAddr: 0x320, symBinAddr: 0x100023DDC, symSize: 0xF8 }
  - { offsetInCU: 0x63A9, offset: 0x72909, size: 0x8, addend: 0x0, symName: __ZN8MainMenuC1EP7_win_stNSt3__16vectorINS2_12basic_stringIcNS2_11char_traitsIcEENS2_9allocatorIcEEEENS7_IS9_EEEEiNS3_IiNS7_IiEEEEi, symObjAddr: 0x444, symBinAddr: 0x100023ED4, symSize: 0x54 }
  - { offsetInCU: 0x641D, offset: 0x7297D, size: 0x8, addend: 0x0, symName: __ZNK8MainMenu11displayMenuEv, symObjAddr: 0x498, symBinAddr: 0x100023F28, symSize: 0x124 }
  - { offsetInCU: 0x6461, offset: 0x729C1, size: 0x8, addend: 0x0, symName: __ZNKSt3__16vectorINS_12basic_stringIcNS_11char_traitsIcEENS_9allocatorIcEEEENS4_IS6_EEEixB7v160006Em, symObjAddr: 0x5BC, symBinAddr: 0x10002404C, symSize: 0x2C }
  - { offsetInCU: 0x6498, offset: 0x729F8, size: 0x8, addend: 0x0, symName: __ZNKSt3__112basic_stringIcNS_11char_traitsIcEENS_9allocatorIcEEE5c_strB7v160006Ev, symObjAddr: 0x5E8, symBinAddr: 0x100024078, symSize: 0x24 }
  - { offsetInCU: 0x64C3, offset: 0x72A23, size: 0x8, addend: 0x0, symName: __ZN8InfoMenuC2EP7_win_stNSt3__16vectorINS2_12basic_stringIcNS2_11char_traitsIcEENS2_9allocatorIcEEEENS7_IS9_EEEEiNS3_IiNS7_IiEEEEi, symObjAddr: 0x60C, symBinAddr: 0x10002409C, symSize: 0xF8 }
  - { offsetInCU: 0x6537, offset: 0x72A97, size: 0x8, addend: 0x0, symName: __ZN8InfoMenuC1EP7_win_stNSt3__16vectorINS2_12basic_stringIcNS2_11char_traitsIcEENS2_9allocatorIcEEEENS7_IS9_EEEEiNS3_IiNS7_IiEEEEi, symObjAddr: 0x704, symBinAddr: 0x100024194, symSize: 0x54 }
  - { offsetInCU: 0x65AB, offset: 0x72B0B, size: 0x8, addend: 0x0, symName: __ZNK8InfoMenu11displayMenuEv, symObjAddr: 0x758, symBinAddr: 0x1000241E8, symSize: 0xCC }
  - { offsetInCU: 0x65D8, offset: 0x72B38, size: 0x8, addend: 0x0, symName: __ZN9PauseMenuC2EP7_win_stNSt3__16vectorINS2_12basic_stringIcNS2_11char_traitsIcEENS2_9allocatorIcEEEENS7_IS9_EEEEiNS3_IiNS7_IiEEEEi, symObjAddr: 0x824, symBinAddr: 0x1000242B4, symSize: 0xF8 }
  - { offsetInCU: 0x664C, offset: 0x72BAC, size: 0x8, addend: 0x0, symName: __ZN9PauseMenuC1EP7_win_stNSt3__16vectorINS2_12basic_stringIcNS2_11char_traitsIcEENS2_9allocatorIcEEEENS7_IS9_EEEEiNS3_IiNS7_IiEEEEi, symObjAddr: 0x91C, symBinAddr: 0x1000243AC, symSize: 0x54 }
  - { offsetInCU: 0x66C0, offset: 0x72C20, size: 0x8, addend: 0x0, symName: __ZNK9PauseMenu11displayMenuEv, symObjAddr: 0x970, symBinAddr: 0x100024400, symSize: 0x124 }
  - { offsetInCU: 0x6704, offset: 0x72C64, size: 0x8, addend: 0x0, symName: __ZN9PauseMenu12chooseOptionEv, symObjAddr: 0xA94, symBinAddr: 0x100024524, symSize: 0x1B0 }
  - { offsetInCU: 0x673F, offset: 0x72C9F, size: 0x8, addend: 0x0, symName: __ZN9DeathMenuC2EP7_win_stNSt3__16vectorINS2_12basic_stringIcNS2_11char_traitsIcEENS2_9allocatorIcEEEENS7_IS9_EEEEiNS3_IiNS7_IiEEEEi, symObjAddr: 0xC44, symBinAddr: 0x1000246D4, symSize: 0xF8 }
  - { offsetInCU: 0x67B3, offset: 0x72D13, size: 0x8, addend: 0x0, symName: __ZN9DeathMenuC1EP7_win_stNSt3__16vectorINS2_12basic_stringIcNS2_11char_traitsIcEENS2_9allocatorIcEEEENS7_IS9_EEEEiNS3_IiNS7_IiEEEEi, symObjAddr: 0xD3C, symBinAddr: 0x1000247CC, symSize: 0x54 }
  - { offsetInCU: 0x6827, offset: 0x72D87, size: 0x8, addend: 0x0, symName: __ZNK9DeathMenu11displayMenuEv, symObjAddr: 0xD90, symBinAddr: 0x100024820, symSize: 0x124 }
...
